(dp1
Vneighbors
p2
I1
sVall
p3
I1
sVhardheaded
p4
I1
sVlyrics
p5
I2
sVvictim
p6
I1
sVsigns
p7
I1
sVgo
p8
I1
sVnephew
p9
I1
sVcold
p10
I1
sVstill
p11
I2
sVchuuch
p12
I1
sVaint
p13
I3
sVgivin
p14
I1
sVspite
p15
I1
sVwed
p16
I1
sVchosen
p17
I1
sVmasses
p18
I1
sVyoung
p19
I2
sVcarin
p20
I1
sVpassage
p21
I1
sVfog
p22
I1
sVblack
p23
I1
sVrhythm
p24
I1
sVhomies
p25
I1
sVgangsta
p26
I1
sVcircumstances
p27
I1
sVmight
p28
I1
sVta
p29
I1
sVdo
p30
I1
sVwoman
p31
I1
sVhit
p32
I1
sVlivin
p33
I2
sVget
p34
I2
sVmoms
p35
I1
sVbig
p36
I2
sVdope
p37
I1
sVcaught
p38
I1
sVstripes
p39
I1
sVfeelin
p40
I1
sVbreak
p41
I1
sVgame
p42
I1
sVmom
p43
I1
sVhands
p44
I1
sVworld
p45
I1
sVmessin
p46
I1
sVday
p47
I1
sVname
p48
I1
sVheaven
p49
I1
sVlike
p50
I1
sVplayin
p51
I1
sVfofifth
p52
I1
sVchoir
p53
I1
sVlose
p54
I1
sVfound
p55
I2
sVwrote
p56
I1
sVpreach
p57
I1
sVem
p58
I1
sVright
p59
I3
sVold
p60
I1
sVoften
p61
I1
sVpeople
p62
I2
sVthrowin
p63
I1
sVstreets
p64
I2
sVyeah
p65
I1
sVsoul
p66
I1
sVgride
p67
I1
sVsecond
p68
I1
sV61st
p69
I1
sV24s
p70
I1
sVhome
p71
I1
sVdub
p72
I1
sVcouldnt
p73
I1
sVblue
p74
I1
sVpractice
p75
I1
sVgon
p76
I2
sVopened
p77
I1
sVtemptation
p78
I1
sVgod
p79
I2
sVaway
p80
I1
sVgrindin
p81
I1
sVoutside
p82
I1
sVrg
p83
I1
sVsurfaced
p84
I1
sVheavenly
p85
I1
sVgot
p86
I3
sVdoggy
p87
I1
sVcause
p88
I2
sVwatchin
p89
I1
sVspot
p90
I1
sVnever
p91
I2
sVquite
p92
I1
sVreason
p93
I1
sVmasterpiece
p94
I1
sVlet
p95
I2
sVsing
p96
I1
sVboss
p97
I1
sVbeginning
p98
I1
sVsayin
p99
I1
sVshine
p100
I3
sVsister
p101
I1
sVflossed
p102
I1
sVadolescent
p103
I1
sVknowin
p104
I1
sVcreated
p105
I1
sValchemist
p106
I1
sVeastside
p107
I1
sVstep
p108
I1
sVexperience
p109
I1
sVcoffin
p110
I1
sVjotted
p111
I1
sVyall
p112
I3
sVneighbor
p113
I3
sVsystem
p114
I1
sVhonor
p115
I1
sVblock
p116
I1
sVfirst
p117
I2
sVlove
p118
I7
sVdont
p119
I2
sVive
p120
I2
sVwhatever
p121
I1
sVone
p122
I2
sVdown
p123
I1
sVnigga
p124
I1
sVdeacons
p125
I2
sVescalade
p126
I1
sVreached
p127
I1
sVmessage
p128
I1
sVcomprehend
p129
I1
sVcity
p130
I1
sVgiven
p131
I1
sVsnoop
p132
I2
sVdogg
p133
I2
sVtop
p134
I1
sVministers
p135
I1
sVcall
p136
I1
sVlot
p137
I1
sVspinnin
p138
I1
sVlovely
p139
I1
sVglobe
p140
I1
sVtoday
p141
I1
sVdowwwwwn
p142
I1
sVeyes
p143
I1
sVglock
p144
I1
sVform
p145
I1
sVhuh
p146
I1
sVpulpits
p147
I1
sVback
p148
I1
sVphone
p149
I1
sVunderstand
p150
I1
sVgain
p151
I1
sVchild
p152
I2
sVha
p153
I2
sVwith
p154
I1
sVbout
p155
I1
sVgeah
p156
I1
sVsound
p157
I1
sVbaptist
p158
I1
sVjohn
p159
I1
sVword
p160
I1
sVdealin
p161
I1
sVinside
p162
I1
sVup
p163
I1
sVniggaz
p164
I2
sVbangin
p165
I1
sVagree
p166
I1
sVbeautiful
p167
I1
sVrag
p168
I1
sVushers
p169
I2
sVgive
p170
I4
sVwasnt
p171
I2
sVlock
p172
I1
sVmodern
p173
I1
sVlife
p174
I1
sVneed
p175
I2
sVsay
p176
I3
sVintro
p177
I2
sVim
p178
I2
sVrap
p179
I1
sVdisrespectin
p180
I1
sVay
p181
I1
sVacros
p182
I1
sVaround
p183
I1
sVgrown
p184
I2
sVjackers
p185
I1
sVpeace
p186
I1
sV40
p187
I1
sValso
p188
I1
sVfo
p189
I1
sVnew
p190
I1
sVyou
p191
I3
sVmany
p192
I1
sVbeach
p193
I1
sVstatus
p194
I1
sVpreachin
p195
I1
sVproduct
p196
I1
sVball
p197
I1
sVblocks
p198
I1
sVgoin
p199
I3
sVthough
p200
I1
sVgangbangin
p201
I1
sVlocked
p202
I3
sVwelcome
p203
I1
sVreach
p204
I1
sVpurpose
p205
I1
sVman
p206
I3
sVpurchase
p207
I1
sVlook
p208
I2
sVlight
p209
I7
sVthink
p210
I2
sVthought
p211
I1
sVthangs
p212
I1
sVteachin
p213
I1
sVtime
p214
I1
sVthats
p215
I1
s.