(dp1
Vrepresent
p2
I1
sVkiddin
p3
I1
sVlyrics
p4
I2
sVshow
p5
I1
sVscrappy
p6
I1
sVbeware
p7
I4
sVtop
p8
I1
sVencounter
p9
I1
sVnamed
p10
I2
sVimthey
p11
I1
sVbring
p12
I1
sVbrim
p13
I1
sVtore
p14
I1
sVgo
p15
I1
sVlove
p16
I2
sVpsycho
p17
I1
sVaint
p18
I2
sVtilt
p19
I1
sVcut
p20
I1
sVjust
p21
I1
sVhead
p22
I1
sVthang
p23
I3
sVtechnique
p24
I1
sVyoung
p25
I1
sVday
p26
I1
sVdare
p27
I1
sVgon
p28
I2
sVbout
p29
I1
sVeast
p30
I1
sVnate
p31
I1
sVta
p32
I3
sVlookout
p33
I1
sVdo
p34
I2
sVdl
p35
I1
sVlonely
p36
I1
sVhit
p37
I1
sVsweetie
p38
I1
sVget
p39
I9
sVya
p40
I1
sVunleash
p41
I1
sVsittin
p42
I1
sVuhh
p43
I4
sVgame
p44
I2
sVkillers
p45
I2
sVknow
p46
I2
sVgambinos
p47
I1
sVma
p48
I1
sVbit
p49
I1
sVblast
p50
I1
sVhim
p51
I3
sVteartheylooked
p52
I1
sVname
p53
I3
sVsmash
p54
I1
sVlike
p55
I7
sVlost
p56
I1
sVsoopafly
p57
I1
sVtear
p58
I3
sVgettin
p59
I1
sVmichael
p60
I1
sVclown
p61
I1
sVtry
p62
I2
sVwit
p63
I3
sVteam
p64
I1
sVquick
p65
I2
sVdoggzll
p66
I1
sVna
p67
I1
sVtray
p68
I1
sVyall
p69
I2
sVbitch
p70
I3
sVem
p71
I8
sVnigga
p72
I4
sVhalfhead
p73
I1
sVpeople
p74
I1
sVhard
p75
I2
sVback
p76
I3
sVdead
p77
I1
sVseat
p78
I2
sVpetey
p79
I1
sVsee
p80
I1
sVbare
p81
I1
sVscrappydu
p82
I1
sVhell
p83
I2
sVplayin
p84
I1
sVbark
p85
I1
sVsport
p86
I1
sVcold
p87
I6
sVleave
p88
I2
sVsaid
p89
I1
sVitchin
p90
I1
sVgod
p91
I1
sVscrap
p92
I1
sVmines
p93
I1
sVholstered
p94
I1
sVcase
p95
I1
sVbehind
p96
I1
sVpriest
p97
I1
sVcentral
p98
I1
sVdoggz
p99
I13
sVgot
p100
I8
sVred
p101
I2
sVpants
p102
I1
sVass
p103
I2
sVima
p104
I2
sVleg
p105
I1
sVrock
p106
I1
sVblame
p107
I1
sVdeadly
p108
I1
sVstudio
p109
I1
sVkurupt
p110
I1
sVgangbanged
p111
I1
sVyeezell
p112
I1
sVask
p113
I2
sVgots
p114
I2
sVchino
p115
I1
sVwait
p116
I1
sVon
p117
I1
sVcos
p118
I7
sVlast
p119
I1
sVher
p120
I1
sVoh
p121
I2
sVog
p122
I1
sVmotherfuckin
p123
I1
sVpits
p124
I1
sVhes
p125
I1
sVdedicate
p126
I1
sVkeep
p127
I3
sVangeles
p128
I1
sVdinner
p129
I1
sVgangsta
p130
I1
sVhusband
p131
I1
sVfear
p132
I1
sVact
p133
I1
sVswim
p134
I1
sVassassin
p135
I1
sVwhole
p136
I1
sVthink
p137
I3
sVcomes
p138
I1
sVthats
p139
I2
sVkid
p140
I1
sVliked
p141
I1
sVthinner
p142
I1
sVsparkyo
p143
I1
sVdont
p144
I5
sVstray
p145
I1
sVsweep
p146
I1
sVscars
p147
I1
sVone
p148
I4
sVdown
p149
I1
sVput
p150
I1
sVmomma
p151
I1
sVright
p152
I2
sVlikes
p153
I1
sVfool
p154
I1
sVcrew
p155
I1
sVbusters
p156
I1
sVoften
p157
I1
sVwan
p158
I1
sVlittle
p159
I1
sVbasketball
p160
I1
sVsnoop
p161
I2
sVcreamy
p162
I1
sVdogg
p163
I4
sVbite
p164
I2
sVtiny
p165
I1
sVmobbin
p166
I1
sVstuck
p167
I1
sVcry
p168
I1
sVdamn
p169
I3
sVlow
p170
I2
sVtaken
p171
I1
sVscheme
p172
I1
sVlos
p173
I1
sVkilled
p174
I2
sVlife
p175
I2
sVshell
p176
I1
sVrest
p177
I1
sVboy
p178
I2
sVfuck
p179
I1
sVyeah
p180
I1
sVheat
p181
I2
sVcorleone
p182
I4
sVbasis
p183
I1
sVbaby
p184
I1
sVyard
p185
I1
sVeat
p186
I2
sVop
p187
I1
sVme
p188
I3
sVtheyve
p189
I1
sVsquabblefriday
p190
I1
sVlook
p191
I1
sVselltodem
p192
I1
sVniggas
p193
I3
sVseezell
p194
I1
sVlayin
p195
I1
sVhomey
p196
I4
sVbeg
p197
I1
sVdogs
p198
I1
sVtrick
p199
I1
sVdirty
p200
I1
sVscarface
p201
I1
sVdidnt
p202
I3
sVcalled
p203
I1
sVfeet
p204
I1
sVreal
p205
I1
sVcaught
p206
I1
sVpound
p207
I4
sVgeese
p208
I1
sVgive
p209
I1
sVran
p210
I1
sVlocko
p211
I1
sVfrown
p212
I1
sVfly
p213
I1
sVcant
p214
I4
sVgood
p215
I1
sVim
p216
I5
sVdaily
p217
I1
sVwant
p218
I2
sVneed
p219
I3
sVpaws
p220
I1
sVsaw
p221
I1
sVtrip
p222
I1
sVshit
p223
I3
sVcream
p224
I1
sVholla
p225
I1
sVdeee
p226
I1
sVcourt
p227
I1
sVpit
p228
I3
sVpitbulls
p229
I1
sVyknow
p230
I1
sVsquab
p231
I1
sVsick
p232
I3
sVbig
p233
I1
sVgate
p234
I1
sVgets
p235
I1
sVgamer
p236
I1
sVweek
p237
I1
sVtame
p238
I1
sVkiller
p239
I1
sVit
p240
I1
sVknew
p241
I1
sVreach
p242
I1
sVstay
p243
I1
sVpigs
p244
I1
sVfucked
p245
I1
sVbackyard
p246
I2
sVman
p247
I1
sVsouth
p248
I1
sVprove
p249
I1
sVoff
p250
I1
sVremember
p251
I1
sVatcha
p252
I1
sVyoure
p253
I1
sVdog
p254
I1
sVrollin
p255
I1
sVthought
p256
I1
sVpart
p257
I1
sVshameuh
p258
I1
sVcame
p259
I1
sVtime
p260
I1
sVspark
p261
I1
sVserious
p262
I1
sV12
p263
I1
sVtha
p264
I1
sVjack
p265
I1
s.