(dp1
Vrepresent
p2
I1
sVgolf
p3
I1
sVlyrics
p4
I2
sVyea
p5
I1
sVhats
p6
I1
sVhanging
p7
I1
sVgo
p8
I1
sVgs
p9
I1
sVzippy
p10
I1
sVcut
p11
I1
sVimma
p12
I1
sVyoung
p13
I1
sVchoose
p14
I1
sVcroker
p15
I1
sVhomies
p16
I2
sVbread
p17
I1
sVfool
p18
I1
sVget
p19
I1
sVrules
p20
I1
sVcoast
p21
I1
sVbang
p22
I1
sVknow
p23
I1
sVhalf
p24
I1
sVname
p25
I1
sVwont
p26
I1
sVlike
p27
I3
sVgun
p28
I1
sVyippie
p29
I1
sVnigga
p30
I2
sVyeah
p31
I2
sVdead
p32
I1
sVsee
p33
I1
sVstreet
p34
I1
sVeven
p35
I1
sVhezeart
p36
I1
sVgocarts
p37
I1
sVscrap
p38
I1
sVeverything
p39
I1
sVgot
p40
I1
sVbought
p41
I1
sVmamas
p42
I1
sV501s
p43
I1
sVbusiness
p44
I1
sVput
p45
I1
sVrare
p46
I1
sVzip
p47
I1
sVog
p48
I1
sVkeep
p49
I1
sVfootwear
p50
I1
sVsmoke
p51
I1
sVwest
p52
I1
sVreal
p53
I1
sVwhole
p54
I2
sVmotherfuckers
p55
I1
sVdont
p56
I1
sVpoint
p57
I1
sVtippy
p58
I1
sVbitch
p59
I1
sVlittle
p60
I1
sVtoy
p61
I1
sVsnoop
p62
I1
sVscript
p63
I1
sVdogg
p64
I1
sVbreed
p65
I1
sVlong
p66
I1
sVlot
p67
I1
sVmama
p68
I1
sVtell
p69
I1
sVbitches
p70
I1
sVfuck
p71
I1
sVstick
p72
I1
sVcrippy
p73
I1
sVstocking
p74
I1
sVmust
p75
I1
sVme
p76
I1
sVup
p77
I1
sVpolicies
p78
I1
sVfun
p79
I1
sVskippy
p80
I1
sVheart
p81
I1
sVit
p82
I2
sVdeep
p83
I1
sVbanging
p84
I1
sVcant
p85
I1
sVim
p86
I4
sVwow
p87
I1
sVbow
p88
I1
sVstole
p89
I1
sVshit
p90
I1
sVpippy
p91
I1
sVpizark
p92
I1
sVdifferent
p93
I1
sVmake
p94
I1
sVbreaking
p95
I1
sVdezart
p96
I1
sVdezark
p97
I1
sVsnitch
p98
I1
sVstezart
p99
I1
sVquarterback
p100
I1
sVcoming
p101
I1
sVauthentic
p102
I1
sVremember
p103
I1
sVsacks
p104
I1
sVonto
p105
I1
sVgame
p106
I1
sVjail
p107
I1
sVtime
p108
I1
sVcadillacs
p109
I3
sVplaying
p110
I1
s.