(dp1
Vgreats
p2
I1
sVgates
p3
I1
sVlyrics
p4
I2
sVchild
p5
I1
sVtrife
p6
I1
sVcatch
p7
I1
sVkill
p8
I1
sVthanks
p9
I1
sVcruise
p10
I1
sVgo
p11
I8
sVhell
p12
I2
sVsuffer
p13
I1
sVfeat
p14
I1
sVfind
p15
I2
sVhmmm
p16
I1
sVaint
p17
I5
sVthank
p18
I1
sVpray
p19
I1
sVchasin
p20
I1
sVseems
p21
I1
sVbetter
p22
I1
sVrich
p23
I1
sVhomies
p24
I1
sVlord
p25
I1
sVbout
p26
I1
sVtroublefree
p27
I1
sVovercome
p28
I1
sVdo
p29
I1
sVgood
p30
I3
sVhit
p31
I1
sVlivin
p32
I2
sVget
p33
I2
sVconversations
p34
I2
sVlaughed
p35
I1
sVfeelin
p36
I1
sVevery
p37
I2
sVknow
p38
I6
sVsnoopy
p39
I1
sVfall
p40
I1
sVnot
p41
I1
sVworld
p42
I2
sVbread
p43
I1
sVpoppa
p44
I1
sVlike
p45
I3
sVmothers
p46
I1
sVfrustrated
p47
I1
sVgleamin
p48
I1
sVsin
p49
I1
sVbless
p50
I1
sVrace
p51
I1
sVharrrarrrrrd
p52
I6
sVlose
p53
I2
sVpopular
p54
I1
sVold
p55
I1
sVsnakes
p56
I1
sVpeople
p57
I1
sVunderstand
p58
I1
sVhard
p59
I1
sVyeah
p60
I1
sVslippin
p61
I1
sVsee
p62
I1
sVaskin
p63
I3
sVsanitys
p64
I1
sVsoldiers
p65
I1
sVwonder
p66
I1
sVeven
p67
I4
sVknees
p68
I1
sVgon
p69
I1
sVprofit
p70
I1
sVgod
p71
I4
sVplease
p72
I1
sVcell
p73
I1
sVcause
p74
I1
sVoppression
p75
I1
sVendure
p76
I1
sVnever
p77
I3
sVrun
p78
I1
sVjes
p79
I1
sVmen
p80
I1
sVsins
p81
I1
sVfree
p82
I1
sVforgive
p83
I1
sVpressure
p84
I1
sVprotection
p85
I1
sVlet
p86
I1
sVstruggle
p87
I1
sVcongestion
p88
I1
sVstrong
p89
I1
sVswift
p90
I1
sVsayin
p91
I1
sVpearly
p92
I1
sVoh
p93
I1
sVstevie
p94
I1
sVkeep
p95
I1
sVdrama
p96
I1
sVwest
p97
I1
sVpoverty
p98
I1
sVwhole
p99
I1
sVease
p100
I1
sVblock
p101
I1
sVthats
p102
I5
sVcopper
p103
I1
sVladies
p104
I1
sVown
p105
I1
sVlove
p106
I3
sVdont
p107
I4
sVbaaaaaaad
p108
I1
sVconclude
p109
I1
sVfeel
p110
I7
sVwin
p111
I1
sVconfession
p112
I1
sVblessed
p113
I1
sVone
p114
I1
sVdown
p115
I1
sVmomma
p116
I1
sVsteven
p117
I1
sVuncle
p118
I1
sVdifficulty
p119
I1
sVthroughout
p120
I1
sVyous
p121
I1
sVtabernacle
p122
I1
sVwan
p123
I1
sVwack
p124
I1
sVlifes
p125
I6
sVsnoop
p126
I2
sVdogg
p127
I1
sVsteamin
p128
I1
sVgirls
p129
I2
sVhey
p130
I1
sVlong
p131
I1
sVdreamin
p132
I1
sVheyyyyyyeahhhheyyyy
p133
I1
sVmuch
p134
I4
sVway
p135
I1
sVwelfare
p136
I1
sVtryin
p137
I1
sVtell
p138
I1
sVtoday
p139
I1
sVtryna
p140
I1
sVlife
p141
I4
sVmornings
p142
I1
sVlot
p143
I1
sVdemon
p144
I1
sVblessing
p145
I1
sVboys
p146
I1
sVwake
p147
I1
sVgain
p148
I1
sVdemand
p149
I1
sVknown
p150
I1
sVwomen
p151
I2
sVwise
p152
I1
sVwhether
p153
I1
sVsoul
p154
I2
sVbed
p155
I1
sVcan
p156
I1
sVchuuuch
p157
I1
sVwild
p158
I1
sVproblem
p159
I1
sVpiece
p160
I1
sVtheres
p161
I1
sVcontrol
p162
I1
sVworryin
p163
I1
sVyoure
p164
I1
sVgive
p165
I1
sVprayyyyy
p166
I1
sVstrippin
p167
I1
sVmind
p168
I1
sVit
p169
I1
sVcant
p170
I2
sVhomie
p171
I1
sVim
p172
I4
sVhave
p173
I1
sVwalks
p174
I1
sVave
p175
I1
sVfame
p176
I1
sVend
p177
I1
sVgoal
p178
I1
sVna
p179
I1
sVmake
p180
I1
sVpsychiatrist
p181
I1
sVtrip
p182
I1
sVthanking
p183
I1
sVtake
p184
I1
sVpure
p185
I1
sVpeoples
p186
I1
sVanswer
p187
I1
sVyou
p188
I2
sVroll
p189
I1
sVleavin
p190
I1
sVstar
p191
I1
sVbrothers
p192
I1
sVthough
p193
I1
sVdodoubleg
p194
I1
sVproblems
p195
I1
sVgoooooood
p196
I6
sVwrong
p197
I1
sVfeds
p198
I1
sVman
p199
I7
sVyeahhhheyyyy
p200
I1
sVobstacles
p201
I1
sVappreciate
p202
I1
sVdisease
p203
I1
sVcomes
p204
I1
sVhearts
p205
I1
sVnah
p206
I1
sVtalk
p207
I8
sVleft
p208
I1
s.