(dp1
Vrepresent
p2
I1
sVslums
p3
I1
sVirs
p4
I1
sVgs
p5
I2
sVgangs
p6
I1
sVlyrics
p7
I2
sVshow
p8
I1
sVfiendish
p9
I1
sVsoon
p10
I1
sVrest
p11
I1
sVfour
p12
I1
sVbring
p13
I1
sVsaidya
p14
I1
sVkill
p15
I1
sVagank
p16
I1
sVdaylight
p17
I1
sVmob
p18
I1
sV120
p19
I1
sVshot
p20
I1
sVrewarded
p21
I1
sVstill
p22
I1
sVfeat
p23
I1
sVits
p24
I1
sVhelp
p25
I1
sVaint
p26
I2
sVweapons
p27
I1
sVstyle
p28
I1
sVhold
p29
I1
sVdopei
p30
I1
sVtill
p31
I3
sVthang
p32
I1
sVbusinessracketeerin
p33
I1
sVdick
p34
I1
sVsky
p35
I1
sVyoung
p36
I2
sVcrime
p37
I1
sVstallin
p38
I1
sVcharge
p39
I1
sVblaze
p40
I1
sVwhatsoever
p41
I1
sVblastinme
p42
I1
sVdeck
p43
I1
sVmight
p44
I1
sVworth
p45
I1
sVta
p46
I1
sVreal
p47
I1
sVtown
p48
I2
sVhit
p49
I2
sVincreased
p50
I1
sVget
p51
I3
sVya
p52
I5
sVbeim
p53
I1
sVstop
p54
I1
sVaddicts
p55
I1
sVchoice
p56
I1
sVdat
p57
I1
sVshoot
p58
I1
sVknow
p59
I1
sVgambinos
p60
I2
sVconvict
p61
I1
sVfront
p62
I1
sVdont
p63
I2
sVson
p64
I1
sVfools
p65
I1
sVdaz
p66
I1
sVenemy
p67
I1
sVthink
p68
I2
sVhearts
p69
I1
sVlike
p70
I4
sVlost
p71
I1
sVflaid
p72
I1
sVgettin
p73
I1
sVcelebratenew
p74
I1
sVhandout
p75
I1
sVcalling
p76
I1
sVusci
p77
I1
sVhelpyou
p78
I1
sVhassans
p79
I1
sVstupid
p80
I1
sVdeenigga
p81
I1
sVoutta
p82
I1
sVbreak
p83
I1
sVdie
p84
I1
sVtray
p85
I1
sVround
p86
I1
sVvision
p87
I1
sVheavy
p88
I1
sVdropcircle
p89
I1
sVnigga
p90
I1
sVburst
p91
I1
sVstreets
p92
I3
sV700
p93
I1
sVyeah
p94
I1
sVsmugglindoin
p95
I1
sVkilos
p96
I1
sVcrook
p97
I1
sV88
p98
I1
sVstreet
p99
I1
sVasscommence
p100
I1
sVlistenin
p101
I1
sVrespect
p102
I1
sVempire
p103
I1
sVbuzz
p104
I1
sVout
p105
I4
sVblue
p106
I1
sVoutrageous
p107
I1
sVcapone
p108
I1
sVthroughout
p109
I1
sVomonths
p110
I1
sVtakin
p111
I2
sVcorleones
p112
I1
sVmoneyyour
p113
I1
sVforty
p114
I1
sVhandin
p115
I1
sVdoggs
p116
I1
sVclucks
p117
I1
sVremorse
p118
I2
sVgot
p119
I4
sVever
p120
I1
sVass
p121
I1
sVmultiplied
p122
I1
sVmen
p123
I1
sVrun
p124
I4
sVbusiness
p125
I1
sVplot
p126
I2
sVreach
p127
I3
sVmillion
p128
I2
sVbehaviour
p129
I1
sVhookniggashakin
p130
I1
sVjumpstreet
p131
I1
sVlet
p132
I1
sVriskin
p133
I1
sValone
p134
I1
sVcousin
p135
I1
sVwanted
p136
I2
sVcome
p137
I3
sVaspark
p138
I1
sVgunis
p139
I1
sVbuck
p140
I1
sVcos
p141
I2
sVviolators
p142
I1
sVg
I1
sVtoast
p143
I1
sVrobberies
p144
I1
sVcountry
p145
I1
sVdollars
p146
I2
sVdrug
p147
I1
sVthing
p148
I1
sVamount
p149
I1
sVplane
p150
I1
sVgames
p151
I1
sVpealers
p152
I1
sVillegal
p153
I1
sVassassin
p154
I1
sVverandahs
p155
I1
sVblock
p156
I1
sVfirst
p157
I1
sVem
p158
I6
sVmajor
p159
I1
sVglory
p160
I1
sVuzi
p161
I1
sVpick
p162
I1
sVfeel
p163
I1
sVdarts
p164
I1
sVmakin
p165
I1
sVpop
p166
I1
sVgs873
p167
I1
sVdown
p168
I1
sVhogs
p169
I1
sVzonedon
p170
I1
sVunexpected
p171
I1
sVnaythe
p172
I1
sVuptown
p173
I1
sVcocaine
p174
I1
sVspeak
p175
I1
sVcity
p176
I4
sVstory
p177
I1
sVcaskets
p178
I1
sVtakes
p179
I1
sVsnoop
p180
I1
sVchrome
p181
I1
sVdogg
p182
I1
sVdrugsdope
p183
I1
sVrides
p184
I1
sVsettill
p185
I1
sVlong
p186
I4
sVmark
p187
I1
sVsmackdead
p188
I1
sVdopeme
p189
I1
sVtaken
p190
I1
sVinfected
p191
I1
sVwar
p192
I1
sVlife
p193
I1
sVhard
p194
I1
sVrich
p195
I1
sVfoes
p196
I1
sVdrugs
p197
I2
sVbite
p198
I1
sVpark
p199
I1
sVfore
p200
I1
sVaware
p201
I1
sVdowntown
p202
I4
sVcops
p203
I2
sVheat
p204
I2
sVcorleone
p205
I2
sVdead
p206
I1
sVknown
p207
I1
sVstandout
p208
I1
sVhitmen
p209
I1
sV95
p210
I1
sVmyselfme
p211
I1
sVme
p212
I1
sV10
p213
I1
sVspayed
p214
I1
sVlook
p215
I1
sVsince
p216
I2
sVniggas
p217
I4
sVexamplewhat
p218
I1
sVsee
p219
I2
sVvalue
p220
I1
sVyouth
p221
I1
sVmatter
p222
I1
sVbaddest
p223
I1
sVknives
p224
I1
sVshift
p225
I1
sVbodyguards
p226
I1
sVgraffiti
p227
I1
sVjudgesi
p228
I1
sVmurders
p229
I2
sVdee
p230
I1
sVdeceased
p231
I1
sVtheres
p232
I2
sVcrazy
p233
I1
sVordered
p234
I1
sVwant
p235
I2
sVmashinmay
p236
I1
sVran
p237
I2
sVartillery
p238
I1
sVtax
p239
I1
sVal
p240
I1
sVtrustbustbe
p241
I1
sVgunned
p242
I1
sVcant
p243
I1
sVmurder
p244
I1
sVim
p245
I3
sVfile
p246
I1
sVkisa
p247
I1
sVdared
p248
I1
sVcreepmo
p249
I1
sVeveryday
p250
I1
sVshit
p251
I1
sVaround
p252
I1
sVagain
p253
I1
sVdifferent
p254
I1
sVstrikes
p255
I1
sVenforcements
p256
I1
sVevasion
p257
I1
sVthings
p258
I1
sVmake
p259
I4
sVpeace
p260
I1
sVcheck
p261
I1
sVdietill
p262
I1
sVfearin
p263
I1
sVhos
p264
I1
sVwall
p265
I1
sVbig
p266
I2
sVplace
p267
I1
sVputtin
p268
I1
sVbeach
p269
I3
sVgatewhos
p270
I1
sVsweat
p271
I1
sVtried
p272
I1
sVwatch
p273
I1
sVshouldve
p274
I1
sVtime
p275
I1
sVspot
p276
I1
sVpaid
p277
I1
sVkeepin
p278
I1
sV75
p279
I1
sVcurse
p280
I1
sVstab
p281
I1
sVplan
p282
I1
sVnever
p283
I1
sVcoming
p284
I1
sVdark
p285
I1
sVend
p286
I1
sVtanadian
p287
I1
sVlaw
p288
I1
sVgoin
p289
I1
sVgrief
p290
I1
sVassassins
p291
I2
sVunload
p292
I1
sVhaulin
p293
I1
sVface
p294
I1
sVbudge
p295
I1
sVscoop
p296
I1
sVtrafficking
p297
I1
sVchipsjag
p298
I1
sVlocationsspots
p299
I1
sVviolatorsthe
p300
I1
sVleft
p301
I1
sVdream
p302
I1
sVgunsfrom
p303
I1
s.