(dp1
Vlyrics
p2
I2
sVshow
p3
I1
sVyea
p4
I1
sVmoney
p5
I2
sVover
p6
I2
sVcheddar
p7
I1
sVsoon
p8
I1
sVyears
p9
I1
sVdisguise
p10
I1
sVlove
p11
I1
sVstill
p12
I1
sVaint
p13
I3
sVstyle
p14
I5
sVslow
p15
I2
sV20
p16
I1
sVjay
p17
I1
sVimma
p18
I1
sVdick
p19
I2
sVcrew
p20
I1
sVgoing
p21
I4
sVblaze
p22
I1
sVhomies
p23
I2
sVsurprised
p24
I1
sVstepped
p25
I1
sVhit
p26
I2
sVget
p27
I7
sVbeat
p28
I2
sVbig
p29
I1
sVdope
p30
I1
sVrise
p31
I1
sVcoast
p32
I2
sVbang
p33
I2
sVevery
p34
I1
sVknow
p35
I5
sVhalf
p36
I1
sVbit
p37
I1
sVhim
p38
I1
sVbread
p39
I1
sVsmash
p40
I1
sVlike
p41
I3
sVbring
p42
I1
sVyoull
p43
I1
sVdrop
p44
I1
sVtry
p45
I2
sVbad
p46
I1
sVmillimeters
p47
I1
sVsecond
p48
I1
sVdabs
p49
I1
sVclap
p50
I1
sVnigga
p51
I6
sVoverwith
p52
I2
sVstreets
p53
I1
sVback
p54
I2
sVup
p55
I2
sVsee
p56
I3
sVyear
p57
I2
sVclose
p58
I4
sVreally
p59
I1
sVblue
p60
I1
sVheaters
p61
I1
sVgon
p62
I5
sVdusted
p63
I1
sVlooking
p64
I2
sVgot
p65
I2
sVcause
p66
I2
sVbe
p67
I1
sVrun
p68
I2
sVmercedes
p69
I1
sVlet
p70
I2
sVkurupt
p71
I2
sVlips
p72
I1
sVclique
p73
I1
sVsuckers
p74
I1
sVsouls
p75
I1
sVcome
p76
I3
sVchange
p77
I1
sVg
I1
sVtoast
p78
I1
sVstudy
p79
I1
sVpunk
p80
I1
sVkeep
p81
I1
sVtour
p82
I1
sVplace
p83
I1
sVdpgc
p84
I2
sVmotherfuckers
p85
I2
sVfuckin
p86
I1
sVnowhere
p87
I3
sVcheese
p88
I1
sVwhats
p89
I4
sVdont
p90
I4
sVpussy
p91
I1
sVwalk
p92
I1
sVdown
p93
I1
sVna
p94
I2
sVbitch
p95
I4
sVframe
p96
I1
sVsize
p97
I1
sVeverybody
p98
I1
sVlittle
p99
I1
sVsnoop
p100
I5
sVaye
p101
I1
sVdogg
p102
I3
sVhey
p103
I4
sVnext
p104
I1
sVspread
p105
I1
sVlow
p106
I1
sVway
p107
I1
sVyall
p108
I1
sVtell
p109
I1
sVmore
p110
I1
sVeyes
p111
I1
sVname
p112
I1
sVgray
p113
I1
sVfreestyle
p114
I2
sVposter
p115
I1
sVbitches
p116
I2
sVheat
p117
I1
sVcorner
p118
I1
sVbaby
p119
I1
sVsmoking
p120
I1
sVtrue
p121
I1
sV94
p122
I1
sVme
p123
I3
sVgotti
p124
I1
sVlook
p125
I2
sVniggas
p126
I7
sVgetting
p127
I2
sVcash
p128
I1
sVus
p129
I2
sVmatter
p130
I1
sVpulling
p131
I1
sVlisten
p132
I1
sVtipping
p133
I1
sVcrazy
p134
I1
sVpound
p135
I1
sVwasnt
p136
I1
sVhoes
p137
I2
sVfuck
p138
I3
sVdeep
p139
I1
sVheard
p140
I1
sVim
p141
I4
sVrap
p142
I1
sVshit
p143
I8
sVfunny
p144
I6
sVthings
p145
I1
sVmic
p146
I1
sVwrite
p147
I1
sVloving
p148
I1
sVbus
p149
I1
sVyou
p150
I2
sVgets
p151
I2
sVpicture
p152
I1
sVplay
p153
I1
sVknew
p154
I1
sVspot
p155
I3
sVstay
p156
I1
sVsaid
p157
I1
sVmoving
p158
I1
sVcracking
p159
I1
sVrolling
p160
I1
sVman
p161
I2
sVbuilding
p162
I2
sVthought
p163
I1
sVrealized
p164
I1
sVhappening
p165
I1
sVtrippin
p166
I1
sVlater
p167
I1
sVbanging
p168
I1
sVthink
p169
I3
sVfucked
p170
I1
sVcame
p171
I1
sVtime
p172
I2
sVcrackin
p173
I1
sVthats
p174
I2
sVdream
p175
I1
sVmake
p176
I1
sVtalk
p177
I1
s.