(dp1
Vignite
p2
I1
sVall
p3
I1
sVlyrics
p4
I2
sVmoney
p5
I1
sVbring
p6
I1
sVrumbling
p7
I1
sVpaper
p8
I1
sVbedroom
p9
I1
sVgo
p10
I2
sVfollow
p11
I1
sVwonderwoman
p12
I1
sVfeat
p13
I1
sVblender
p14
I1
sVblow
p15
I1
sVtrying
p16
I1
sVchong
p17
I1
sVitll
p18
I1
sVjar
p19
I1
sVyoung
p20
I2
sVwindow
p21
I1
sVoz
p22
I1
sVparents
p23
I1
sVbout
p24
I3
sVeast
p25
I1
sVmight
p26
I1
sVta
p27
I1
sVcount
p28
I1
sVaston
p29
I1
sVhit
p30
I1
sVget
p31
I3
sVya
p32
I1
sVbig
p33
I1
sVkiller
p34
I1
sVtrees
p35
I1
sVbreak
p36
I1
sVfamous
p37
I1
sVgame
p38
I1
sVbitch
p39
I1
sVknow
p40
I2
sVday
p41
I1
sVname
p42
I2
sVbrought
p43
I1
sVswift
p44
I1
sVlike
p45
I6
sVtoes
p46
I1
sVmiami
p47
I1
sVstun
p48
I1
sVplush
p49
I1
sVleave
p50
I2
sVthese
p51
I1
sVbad
p52
I1
sVnight
p53
I1
sVside
p54
I1
sVyall
p55
I2
sVsho
p56
I1
sVcircles
p57
I1
sVcookies
p58
I1
sVnigga
p59
I8
sVcones
p60
I1
sVkhalifa
p61
I1
sVfucking
p62
I1
sVsome
p63
I1
sVback
p64
I1
sVschizophrenic
p65
I1
sVfold
p66
I1
sVsee
p67
I1
sVtaught
p68
I1
sVchopping
p69
I1
sVcorner
p70
I1
sVhoes
p71
I1
sVclose
p72
I1
sVpopping
p73
I1
sVeven
p74
I1
sVmarijuanaology
p75
I1
sVgon
p76
I4
sVleaf
p77
I1
sVfor
p78
I2
sVdinosaur
p79
I1
sVgiving
p80
I1
sVjump
p81
I1
sVcooking
p82
I1
sVslide
p83
I1
sVtomorrow
p84
I1
sVlooking
p85
I1
sVlaid
p86
I1
sVgot
p87
I3
sVdoggy
p88
I1
sVchains
p89
I1
sVcurreny
p90
I1
sVtold
p91
I1
sVbody
p92
I1
sVbe
p93
I1
sVblowing
p94
I2
sVolder
p95
I2
sVrolled
p96
I1
sVscreen
p97
I1
sVnever
p98
I1
sVdome
p99
I1
sVlet
p100
I1
sVask
p101
I1
sVcome
p102
I1
sVcaught
p103
I1
sVtitties
p104
I1
sVc
I1
sVg
I1
sVoh
p105
I1
sVog
p106
I7
sVill
p107
I1
sVrunning
p108
I1
sVdinner
p109
I1
sVnothing
p110
I1
sVmentor
p111
I1
sVsmoke
p112
I6
sVmegaman
p113
I1
sVwhole
p114
I1
sVor
p115
I1
sVthats
p116
I5
sVcutlass
p117
I1
sValready
p118
I1
sVlove
p119
I1
sVdont
p120
I3
sVfamily
p121
I1
sVlone
p122
I1
sVpot
p123
I1
sVcontender
p124
I1
sVcrib
p125
I1
sVone
p126
I2
sVdown
p127
I1
sVchronic
p128
I2
sVright
p129
I1
sVspokes
p130
I1
sVtable
p131
I1
sVquality
p132
I1
sVwiz
p133
I1
sVbongs
p134
I1
sVbaby
p135
I3
sVps
p136
I1
sVlittle
p137
I1
sVfrom
p138
I1
sVbrownies
p139
I1
sVsnoop
p140
I1
sVchrome
p141
I1
sVdogg
p142
I1
sVtop
p143
I1
sVgirls
p144
I1
sVkoed
p145
I1
sVlong
p146
I1
sVnext
p147
I1
sVcali
p148
I1
sVundertsand
p149
I1
sV2
I1
sVlow
p150
I1
sVway
p151
I1
sVjane
p152
I1
sVcram
p153
I1
sVmary
p154
I1
sVempty
p155
I1
sV3
I1
sVengine
p156
I1
sVflat
p157
I1
sVshell
p158
I1
sVdoor
p159
I1
sVstarted
p160
I1
sVfore
p161
I1
sVhear
p162
I1
sV501s
p163
I1
sVknown
p164
I1
sVsmoking
p165
I1
sVwan
p166
I1
sVcheech
p167
I1
sVeat
p168
I1
sVpaying
p169
I1
sVpull
p170
I1
sVtelevision
p171
I1
sVlook
p172
I1
sVfull
p173
I1
sVniggas
p174
I3
sVfrozen
p175
I1
sVstraight
p176
I1
sVj
I1
sVup
p177
I2
sVtell
p178
I1
sVlight
p179
I1
sVfun
p180
I1
sVinvited
p181
I1
sVbet
p182
I1
sVtheres
p183
I1
sVrag
p184
I1
sVstuffing
p185
I1
sVgive
p186
I3
sVis
p187
I1
sVram
p188
I1
sVit
p189
I4
sVdog
p190
I1
sVhigh
p191
I2
sVraw
p192
I1
sVsay
p193
I1
sVim
p194
I5
sVsomething
p195
I1
sVneed
p196
I1
sVstomach
p197
I1
sVwork
p198
I1
sVkush
p199
I1
sVsounding
p200
I1
sVroom
p201
I1
sVdancing
p202
I1
sVrather
p203
I1
sVthings
p204
I1
sVmake
p205
I1
sVjogging
p206
I1
sVcouch
p207
I1
sV1
I1
sVpad
p208
I1
sVtake
p209
I1
sVparty
p210
I2
sVpanties
p211
I1
sVbeach
p212
I1
sVroll
p213
I1
sVvegetation
p214
I1
sVhoneycomb
p215
I1
sVmotherfuckas
p216
I1
sVblue
p217
I1
sVacting
p218
I1
sVsewing
p219
I1
sVme
p220
I1
sVweed
p221
I2
sVmac
p222
I1
sVsaid
p223
I1
sVmoving
p224
I1
sVlay
p225
I1
sVcoming
p226
I1
sVrolling
p227
I2
sVstunting
p228
I1
sVfo
p229
I1
sVcause
p230
I1
sVremember
p231
I1
sVapology
p232
I1
sVlunch
p233
I1
sVzags
p234
I1
sVbanging
p235
I1
sVplaying
p236
I1
sVhella
p237
I1
sVspend
p238
I1
sVquantity
p239
I1
s.