(dp1
Vcute
p2
I1
sVjordans
p3
I1
sVset
p4
I1
sVlyrics
p5
I2
sVdance
p6
I1
sVmoney
p7
I3
sVmove
p8
I2
sVtcs
p9
I1
sVbring
p10
I1
sVsoulja
p11
I7
sVgang
p12
I2
sVgo
p13
I2
sVnephew
p14
I2
sVcold
p15
I1
sVfeat
p16
I1
sVaint
p17
I1
sVswag
p18
I1
sV20
p19
I1
sVblowin
p20
I1
sVpronto
p21
I10
sVdancin
p22
I1
sVenough
p23
I2
sVsend
p24
I1
sVkryptonite
p25
I1
sVspread
p26
I1
sVactin
p27
I1
sVcombo
p28
I1
sVbout
p29
I3
sVcap
p30
I1
sVlbc
p31
I1
sVcallin
p32
I1
sVhit
p33
I1
sVcaint
p34
I1
sVget
p35
I7
sVya
p36
I3
sVsittin
p37
I4
sVtrees
p38
I1
sVscene
p39
I1
sVbreak
p40
I2
sVdiiiiiig
p41
I1
sVgame
p42
I1
sVrapalot
p43
I1
sVknow
p44
I2
sVkiss
p45
I1
sVfall
p46
I1
sVwalk
p47
I2
sVday
p48
I3
sVlike
p49
I8
sVtoes
p50
I2
sVhook
p51
I1
sVcooler
p52
I1
sVl7s
p53
I1
sVrapper
p54
I1
sVcandy
p55
I1
sVleave
p56
I1
sVbad
p57
I2
sVstuff
p58
I1
sVteam
p59
I1
sVsmall
p60
I1
sVhavent
p61
I1
sVjerk
p62
I1
sVround
p63
I1
sVcoogis
p64
I1
sVem
p65
I3
sVright
p66
I2
sVbe
p67
I2
sVhard
p68
I1
sVback
p69
I6
sVbounce
p70
I1
sVup
p71
I2
sVsee
p72
I1
sVhoncho
p73
I1
sVfools
p74
I1
sVlevis
p75
I1
sVgirl
p76
I2
sVair
p77
I1
sVout
p78
I3
sVgon
p79
I3
sVmutombo
p80
I1
sVrep
p81
I1
sVice
p82
I1
sVpayday
p83
I1
sVmayday
p84
I1
sVgot
p85
I4
sVcause
p86
I1
sVred
p87
I1
sVtold
p88
I1
sVima
p89
I1
sVnoise
p90
I1
sVchose
p91
I4
sVnever
p92
I3
sVlaker
p93
I1
sVmotherfucker
p94
I1
sVboss
p95
I1
sVlet
p96
I1
sVask
p97
I1
sVbuy
p98
I1
sVwent
p99
I1
sVgmix
p100
I2
sVboy
p101
I9
sVdikembe
p102
I1
sVlast
p103
I1
sVbirdie
p104
I1
sVanything
p105
I1
sValways
p106
I1
sVog
p107
I2
sVuniverse
p108
I1
sVill
p109
I2
sVvietnamese
p110
I1
sVput
p111
I2
sVbrooklyn
p112
I1
sVdrawers
p113
I1
sVgrain
p114
I1
sVstand
p115
I2
sVlookin
p116
I1
sVwest
p117
I1
sVturf
p118
I1
sVbatmannered
p119
I1
sVdre
p120
I1
sVthink
p121
I1
sVblock
p122
I2
sVthats
p123
I3
sVknots
p124
I1
sVcheese
p125
I1
sVlove
p126
I1
sVsod
p127
I3
sVwall
p128
I1
sVnumber
p129
I1
sVcrib
p130
I1
sVone
p131
I1
sVfeet
p132
I1
sVchronic
p133
I1
sVvip
p134
I2
sVnigga
p135
I3
sVcomin
p136
I2
sVthroughout
p137
I1
sVcity
p138
I3
sVjerkin
p139
I1
sVsnoop
p140
I4
sVdogg
p141
I4
sVgirls
p142
I2
sVleast
p143
I1
sVlive
p144
I1
sVdamn
p145
I1
sVway
p146
I2
sVblack
p147
I1
sVhottest
p148
I1
sVtryin
p149
I2
sVbigg
p150
I2
sVhead
p151
I2
sV30s
p152
I1
sVlot
p153
I1
sVclub
p154
I1
sVbitches
p155
I2
sVwatts
p156
I2
sVbut
p157
I1
sVyeah
p158
I3
sVphone
p159
I1
sVbun
p160
I1
sVdead
p161
I1
sVknown
p162
I1
sVhardcore
p163
I1
sVhaters
p164
I1
sVchurch
p165
I1
sVking
p166
I1
sVb
I1
sVthese
p167
I1
sVcrack
p168
I1
sVinside
p169
I1
sVwork
p170
I1
sVflip
p171
I1
sVus
p172
I1
sVtell
p173
I2
sVplanet
p174
I1
sVmatter
p175
I1
sVadore
p176
I1
sVdirty
p177
I1
sVsposed
p178
I1
sVpound
p179
I1
sVoutta
p180
I2
sVexpeditiously
p181
I1
sVis
p182
I1
sVit
p183
I2
sVdog
p184
I1
sVii
p185
I1
sVyellin
p186
I1
sVsay
p187
I1
sVcube
p188
I1
sVim
p189
I8
sVsomething
p190
I1
sVneed
p191
I2
sVworkin
p192
I1
sVfeelin
p193
I1
sVturn
p194
I2
sVsuperman
p195
I1
sVholla
p196
I1
sVbunb
p197
I1
sVyo
p198
I2
sVtrill
p199
I1
sVfloor
p200
I1
sVna
p201
I1
sVmake
p202
I5
sVgcs
p203
I1
sVtil
p204
I3
sVread
p205
I1
sVgotham
p206
I1
sVtake
p207
I2
sVunderground
p208
I1
sVstepped
p209
I1
sVtalkin
p210
I2
sVgirlies
p211
I1
sVball
p212
I1
sVboppers
p213
I1
sVtrack
p214
I2
sVkizzall
p215
I2
sVhooded
p216
I1
sVmouth
p217
I1
sVpurty
p218
I1
sVkinda
p219
I2
sVhurt
p220
I1
sVfo
p221
I1
sVflirty
p222
I1
sVboys
p223
I2
sVlater
p224
I1
sVlife
p225
I1
sVbang
p226
I2
sVrollin
p227
I1
sVstacks
p228
I2
sVpurple
p229
I1
sVsizzore
p230
I2
sVtall
p231
I1
sVmic
p232
I1
sVfact
p233
I2
s.