(dp1
Vburnt
p2
I1
sVgown
p3
I1
sVall
p4
I1
sVshoes
p5
I1
sVlyrics
p6
I2
sVshow
p7
I1
sVsylk
p8
I1
sVbedroom
p9
I1
sVgo
p10
I4
sVcouch
p11
I1
sVfeat
p12
I1
sVaint
p13
I8
sVbelieve
p14
I1
sVgivin
p15
I1
sVthang
p16
I1
sVdick
p17
I1
sVheezee
p18
I1
sVshakin
p19
I1
sVthursday
p20
I1
sVeasy
p21
I2
sVcrack
p22
I1
sVgirl
p23
I2
sVbout
p24
I1
sVta
p25
I1
sVdo
p26
I3
sVahhah
p27
I1
sVcaint
p28
I1
sVget
p29
I4
sVya
p30
I2
sVnahnananahnah
p31
I8
sVtrees
p32
I1
sVbang
p33
I3
sVmade
p34
I2
sVknow
p35
I3
sVnew
p36
I2
sVnow
p37
I6
sVlady
p38
I1
sVheyyy
p39
I3
sVname
p40
I1
sVpimp
p41
I1
sVeverytime
p42
I1
sVgettin
p43
I1
sVclown
p44
I1
sVhomegirl
p45
I2
sVremind
p46
I1
sVman
p47
I1
sVnight
p48
I2
sVwent
p49
I1
sV923
p50
I1
sVfriendship
p51
I1
sVmo
p52
I1
sVwaitin
p53
I1
sVmotherfuckin
p54
I1
sVnigga
p55
I3
sVold
p56
I1
sVdeal
p57
I1
sVbump
p58
I1
sVhouse
p59
I2
sVhard
p60
I2
sVyeah
p61
I4
sVup
p62
I1
sVsee
p63
I4
sVhelluva
p64
I1
sVhome
p65
I2
sVblues
p66
I1
sVuhuh
p67
I1
sVwhip
p68
I1
sVsaid
p69
I3
sVwhas
p70
I2
sVtemptation
p71
I1
sVfine
p72
I1
sVsince
p73
I1
sVsweat
p74
I2
sVattire
p75
I1
sVgot
p76
I3
sVbitchass
p77
I1
sVcause
p78
I2
sVass
p79
I2
sVima
p80
I2
sVshut
p81
I1
sVcheatin
p82
I1
sVpeel
p83
I1
sVreminscin
p84
I1
sVnever
p85
I1
sVsuga
p86
I3
sVmotherfucker
p87
I3
sVfree
p88
I4
sVlike
p89
I2
sVmet
p90
I1
sVimagine
p91
I1
sVeye
p92
I1
sVcome
p93
I3
sVcataracts
p94
I1
sVhairdo
p95
I1
sVwould
p96
I1
sVwouldnt
p97
I12
sVmesmerized
p98
I1
sVchirped
p99
I1
sVfault
p100
I1
sVwrong
p101
I1
sVregular
p102
I1
sVplus
p103
I2
sVstand
p104
I1
sVlookin
p105
I1
sVdealin
p106
I1
sVoldass
p107
I1
sVmotherfuckers
p108
I1
sVthats
p109
I1
sVwhatcha
p110
I7
sVlove
p111
I4
sVdont
p112
I3
sVpussy
p113
I1
sVahh
p114
I1
sVhighn
p115
I1
sVone
p116
I1
sVhappenin
p117
I1
sVmomma
p118
I1
sVbitch
p119
I6
sVstrip
p120
I1
sVtrust
p121
I23
sVpoopoo
p122
I1
sVlittle
p123
I1
sVchecked
p124
I1
sVsnoop
p125
I2
sVdogg
p126
I2
sVslept
p127
I1
sVthree
p128
I2
sVnext
p129
I1
sVlive
p130
I2
sVmuch
p131
I12
sVcall
p132
I1
sVtreat
p133
I1
sVmusic
p134
I1
sVwait
p135
I1
sVtype
p136
I2
sVtell
p137
I1
sVhomeboys
p138
I1
sVlife
p139
I1
sVpimpin
p140
I8
sVrelationship
p141
I1
sVthat
p142
I2
sVclub
p143
I1
sVhomies
p144
I2
sVpark
p145
I1
sVcant
p146
I4
sVexcuse
p147
I1
sVbaby
p148
I5
sVsex
p149
I1
sVwith
p150
I1
sVbefo
p151
I1
sVme
p152
I1
sVtryin
p153
I2
sVlook
p154
I1
sVwish
p155
I12
sVride
p156
I1
sVhomey
p157
I4
sVcash
p158
I1
sVniggaz
p159
I1
sVroom
p160
I1
sVsituation
p161
I1
sVescapin
p162
I1
sVpack
p163
I1
sVive
p164
I1
sVslid
p165
I1
sVcum
p166
I2
sVdip
p167
I1
sVloco
p168
I1
sVspent
p169
I1
sVsay
p170
I10
sVhomie
p171
I1
sVim
p172
I5
sVneed
p173
I1
sVseville
p174
I1
sVcheck
p175
I1
sVshit
p176
I8
sVhoe
p177
I4
sVlivingroom
p178
I1
sVyo
p179
I3
sVno
p180
I1
sVwhoo
p181
I1
sVubuh
p182
I1
sVtakin
p183
I1
sVtrip
p184
I1
sVhoein
p185
I2
sVbeat
p186
I1
sVhot
p187
I2
sVpad
p188
I1
sVnaw
p189
I2
sVfo
p190
I2
sVyou
p191
I3
sVdownstairs
p192
I1
sVnice
p193
I1
sVslappin
p194
I1
sVbitches
p195
I1
sVhey
p196
I1
sVdamn
p197
I3
sVtrustless
p198
I1
sVhuh
p199
I1
sVknew
p200
I4
sVhang
p201
I1
sVchance
p202
I1
sVgon
p203
I2
sVtwo
p204
I1
sVfresh
p205
I1
sVfucked
p206
I1
sVon
p207
I2
sVgoin
p208
I1
sVe
I1
sVhmm
p209
I1
sVdrip
p210
I1
sVface
p211
I1
sVgod
p212
I1
sVcadillacs
p213
I1
sVtalk
p214
I1
sVleft
p215
I2
s.