(dp1
Vthings
p2
I1
sVlyrics
p3
I2
sVmoney
p4
I1
sVqueen
p5
I1
sVyears
p6
I1
sVyikes
p7
I1
sVever
p8
I1
sVsleep
p9
I1
sVlove
p10
I3
sVfind
p11
I1
sVaint
p12
I5
sVsayin
p13
I2
sVsend
p14
I1
sVyoung
p15
I1
sVhousewife
p16
I1
sVcrew
p17
I1
sV5
I2
sVcool
p18
I2
sVta
p19
I2
sVreal
p20
I1
sVdo
p21
I5
sVget
p22
I3
sVrules
p23
I1
sVsittin
p24
I1
sVhoodrat
p25
I1
sVbought
p26
I1
sVda
p27
I1
sVgame
p28
I3
sVanotha
p29
I1
sVevery
p30
I1
sVknow
p31
I11
sVgate
p32
I1
sVfoot
p33
I2
sVday
p34
I1
sVbread
p35
I1
sVwhatchu
p36
I1
sVlike
p37
I2
sVyoull
p38
I1
sVdig
p39
I1
sVleave
p40
I1
sVp
I2
sVbad
p41
I1
sVlose
p42
I1
sVwent
p43
I1
sVquarter
p44
I1
sVstraight
p45
I1
sVmean
p46
I1
sVem
p47
I6
sVfittin
p48
I1
sVmotherfuckin
p49
I1
sVnigga
p50
I6
sVhouse
p51
I1
sVtold
p52
I1
sVted
p53
I1
sVyeah
p54
I1
sVsee
p55
I2
sVshouldnt
p56
I1
sVhoes
p57
I8
sVshabba
p58
I1
sVpacked
p59
I1
sV85
p60
I1
sVsleepin
p61
I1
sVjumped
p62
I1
sVsince
p63
I2
sVgot
p64
I6
sVcause
p65
I2
sVsupposed
p66
I1
sVass
p67
I3
sVbe
p68
I1
sVchose
p69
I1
sVslut
p70
I1
sVsoder
p71
I1
sVlet
p72
I5
sVhere
p73
I1
sVput
p74
I4
sVshoulda
p75
I1
sVrocafella
p76
I1
sVcare
p77
I1
sVg
I2
sVfault
p78
I4
sVkeep
p79
I1
sVkarat
p80
I1
sVboo
p81
I2
sVmotherfuckers
p82
I1
sVthats
p83
I6
sVblind
p84
I1
sVwhats
p85
I1
sVdont
p86
I4
sVive
p87
I1
sVdown
p88
I2
sVask
p89
I1
sVmomma
p90
I2
sVwit
p91
I3
sVbitch
p92
I5
sVyous
p93
I1
sVwan
p94
I8
sVsnoop
p95
I1
sVhes
p96
I1
sVdogg
p97
I1
sVcaught
p98
I1
sVtwo
p99
I1
sVbeen
p100
I1
sVmuch
p101
I2
sVblow
p102
I1
sVtryin
p103
I3
sVtell
p104
I1
sVfriend
p105
I1
sVflat
p106
I1
sVhead
p107
I2
sVbuy
p108
I1
sVcontrolled
p109
I1
sVthat
p110
I1
sVbitches
p111
I2
sVgas
p112
I1
sVback
p113
I2
sVunderstand
p114
I5
sVho
p115
I5
sVbaby
p116
I2
sVtrue
p117
I2
sVme
p118
I1
sVniggas
p119
I2
sVride
p120
I2
sVhomey
p121
I1
sVbounds
p122
I1
sVtellin
p123
I1
sVuh
p124
I2
sVgave
p125
I2
sVsay
p126
I1
sVcontrol
p127
I6
sVfool
p128
I2
sVsmacked
p129
I1
sVohh
p130
I1
sVwasnt
p131
I4
sVbust
p132
I1
sVmine
p133
I1
sVshame
p134
I3
sVcant
p135
I9
sVhomie
p136
I1
sVim
p137
I3
sVcheck
p138
I1
sVtattoo
p139
I1
sVsit
p140
I1
sVna
p141
I8
sVmake
p142
I2
sVhomeboy
p143
I1
sVid
p144
I1
sVtil
p145
I1
sVpad
p146
I1
sVtake
p147
I2
sV9
I1
sVinstead
p148
I1
sVnice
p149
I4
sVindependent
p150
I1
sVplay
p151
I1
sVused
p152
I1
sVbags
p153
I1
sVkeys
p154
I1
sVcadillac
p155
I1
sVcopeasack
p156
I1
sVspot
p157
I1
sVmashed
p158
I1
sVpimps
p159
I1
sV74
p160
I1
sVmack
p161
I1
sVtypes
p162
I1
sVgoin
p163
I1
sVdabble
p164
I1
sVbattlecat
p165
I1
sVno
p166
I1
sVm
I1
sVdrive
p167
I1
sVnothin
p168
I1
sVthought
p169
I1
sV2000
p170
I1
sVupside
p171
I1
sVgain
p172
I1
sVtime
p173
I1
sValright
p174
I1
sVtha
p175
I3
sVleft
p176
I1
s.