(dp1
Vlyrics
p2
I2
sVshow
p3
I1
sVmoney
p4
I1
sVskin
p5
I1
sVgo
p6
I1
sVtone
p7
I1
sVaint
p8
I3
sVsqueeze
p9
I6
sVchain
p10
I1
sVhavin
p11
I1
sVbike
p12
I1
sVlightskinned
p13
I1
sVrich
p14
I1
sVhurry
p15
I1
sVmight
p16
I1
sVta
p17
I2
sVhit
p18
I2
sVyo
p19
I2
sVget
p20
I2
sVbeat
p21
I1
sVstop
p22
I1
sVuhh
p23
I1
sVnext
p24
I2
sVfan
p25
I1
sVknow
p26
I1
sVminute
p27
I1
sVlike
p28
I6
sVdie
p29
I2
sVgettin
p30
I1
sVrapper
p31
I1
sVroll
p32
I1
sVtwice
p33
I1
sVheels
p34
I1
sVnight
p35
I1
sVgrab
p36
I3
sVundercover
p37
I1
sVvision
p38
I1
sVright
p39
I3
sVback
p40
I1
sVslice
p41
I1
sVearth
p42
I1
sVwonderland
p43
I2
sVgirl
p44
I2
sVmurs
p45
I1
sVwander
p46
I1
sVbest
p47
I2
sVwonder
p48
I1
sVhappens
p49
I1
sVgon
p50
I7
sVluv
p51
I2
sVrehearse
p52
I1
sVblur
p53
I1
sVgot
p54
I2
sVsquirt
p55
I1
sVbird
p56
I1
sVass
p57
I1
sVima
p58
I2
sVdrink
p59
I1
sVcars
p60
I1
sVnever
p61
I2
sVboss
p62
I1
sVmet
p63
I1
sVstep
p64
I1
sVlet
p65
I5
sVhurts
p66
I1
sVcome
p67
I1
sVwent
p68
I1
sVfaith
p69
I1
sVher
p70
I1
sVfavorite
p71
I1
sVtour
p72
I1
sVplace
p73
I1
sVbone
p74
I1
sVsmoke
p75
I1
sVneptunes
p76
I1
sVshoppin
p77
I1
sVlove
p78
I4
sVdont
p79
I1
sVpussy
p80
I1
sVnonsense
p81
I1
sVwelcome
p82
I1
sVone
p83
I1
sVnigga
p84
I1
sVbitch
p85
I1
sV1st
p86
I1
sVpulls
p87
I1
sVfight
p88
I2
sVwan
p89
I2
sVsnoop
p90
I1
sVdogg
p91
I2
sVbite
p92
I1
sVsecret
p93
I1
sVheights
p94
I1
sVsuburbs
p95
I1
sVlive
p96
I2
sVtime
p97
I1
sVbiggest
p98
I1
sVhollywood
p99
I1
sVbubble
p100
I1
sVeyes
p101
I1
sVhug
p102
I2
sVflight
p103
I1
sVpurse
p104
I1
sVtook
p105
I1
sVhmm
p106
I1
sVlimelight
p107
I1
sVbaby
p108
I1
sVhold
p109
I1
sVeat
p110
I1
sVme
p111
I6
sVheyyy
p112
I1
sVthis
p113
I2
sVtype
p114
I1
sVride
p115
I1
sVwork
p116
I2
sVloves
p117
I1
sVcrescent
p118
I1
sVfurs
p119
I1
sVohh
p120
I2
sVfigure
p121
I1
sVmind
p122
I3
sVfuck
p123
I4
sVcurves
p124
I1
sVtonight
p125
I1
sVproper
p126
I1
sVim
p127
I3
sVay
p128
I1
sVkush
p129
I2
sVpat
p130
I1
sVshirt
p131
I1
sVna
p132
I8
sVwrite
p133
I1
sVmix
p134
I1
sVtake
p135
I3
sVtits
p136
I1
sVkimbo
p137
I1
sVnice
p138
I2
sVpain
p139
I1
sVmay
p140
I2
sVfelt
p141
I1
sVhiphop
p142
I1
sVlovers
p143
I1
sVmad
p144
I1
sVland
p145
I1
sVyoure
p146
I6
sVlife
p147
I1
sVrollin
p148
I1
sVgreen
p149
I1
sVsearched
p150
I1
sVtalk
p151
I1
s.