(dp1
Vpremeditated
p2
I1
sVrepresent
p3
I1
sVremember
p4
I1
sVmasturbate
p5
I1
sVlyrics
p6
I3
sVshow
p7
I1
sVlls
p8
I1
sVskip
p9
I1
sVflowers
p10
I1
sVhands
p11
I1
sVsouls
p12
I1
sVds
p13
I1
sVfingers
p14
I1
sVseen
p15
I1
sVbring
p16
I2
sVbucking
p17
I1
sVgo
p18
I1
sVeyekyu
p19
I1
sVstill
p20
I2
sVfeat
p21
I1
sVblow
p22
I1
sVblast
p23
I1
sVgold
p24
I1
sVjay
p25
I1
sVclutching
p26
I1
sVhated
p27
I1
sVdick
p28
I1
sVfans
p29
I2
sVsend
p30
I1
sVeither
p31
I1
sVbetter
p32
I3
sVshout
p33
I1
sVdeepest
p34
I1
sVshowers
p35
I1
sVcrack
p36
I2
sVbout
p37
I4
sVforigno
p38
I1
sVwhack
p39
I2
sVta
p40
I2
sVkingdom
p41
I1
sVcase
p42
I1
sVcollaborate
p43
I1
sVhit
p44
I1
sVaround
p45
I1
sVyo
p46
I2
sVget
p47
I1
sVbeat
p48
I3
sVtemperment
p49
I1
sVsolo
p50
I1
sVstop
p51
I2
sVshitty
p52
I1
sVbang
p53
I1
sVtouching
p54
I1
sVknow
p55
I8
sVdrummound
p56
I1
sVgot
p57
I9
sVfront
p58
I1
sVnow
p59
I1
sVflee
p60
I1
sVbullshit
p61
I1
sVwont
p62
I1
sVlike
p63
I8
sVbrain
p64
I1
sVskills
p65
I6
sVyoull
p66
I2
sVdrop
p67
I1
sVrapper
p68
I1
sVcowers
p69
I1
sVrocks
p70
I1
sVtry
p71
I1
sVstuff
p72
I1
sVsaxophone
p73
I1
sVnose
p74
I1
sVrock
p75
I5
sVquick
p76
I1
sVbecome
p77
I5
sVshocks
p78
I1
sVsoft
p79
I1
sVbone
p80
I1
sVdethrone
p81
I1
sVjacking
p82
I1
sVkill
p83
I1
sVright
p84
I1
sVpeople
p85
I1
sV313
p86
I8
sVappliance
p87
I1
sVstreets
p88
I1
sVyeah
p89
I1
sVup
p90
I1
sVjump
p91
I1
sVfacts
p92
I1
sVsee
p93
I11
sVgates
p94
I1
sVroof
p95
I1
sVforgot
p96
I2
sVhoes
p97
I1
sVill
p98
I4
sVthick
p99
I1
sVpacked
p100
I1
sVgon
p101
I2
sVcapacity
p102
I1
sVrate
p103
I1
sVhate
p104
I2
sVsince
p105
I1
sVslick
p106
I1
sVeverything
p107
I1
sVacting
p108
I2
sVhill
p109
I1
sVclosed
p110
I1
sVt
I1
sVnew
p111
I1
sVever
p112
I6
sVfilled
p113
I1
sVrund
p114
I1
sVass
p115
I4
sVima
p116
I2
sVburn
p117
I1
sVrun
p118
I1
sVnever
p119
I3
sVmeeko
p120
I1
sVdome
p121
I1
sVfree
p122
I5
sVeminem
p123
I1
sVreason
p124
I1
sVjill
p125
I1
sVlet
p126
I1
sVdefiance
p127
I1
sVfuck
p128
I2
sVphilip
p129
I1
sVsuccubus
p130
I1
sVcome
p131
I8
sVthrow
p132
I1
sVblasterate
p133
I1
sVboy
p134
I1
sVabout
p135
I1
sVate
p136
I1
sVhard
p137
I1
sVwouldnt
p138
I1
sVagree
p139
I1
sVmarijuana
p140
I1
sVpimping
p141
I1
sVcould
p142
I3
sVhes
p143
I1
sVhiphop
p144
I1
sVscott
p145
I1
sVkeep
p146
I2
sVthing
p147
I3
sVcandlestick
p148
I1
sVsmoke
p149
I1
sVact
p150
I1
sVreal
p151
I2
sVdiggers
p152
I1
sVfreshest
p153
I1
sVblock
p154
I1
sVaccapella
p155
I1
sVfacilities
p156
I1
sVdont
p157
I3
sVcleaner
p158
I1
sVsimple
p159
I1
sVsweet
p160
I12
sVcouldnt
p161
I2
sVjog
p162
I1
sVbound
p163
I1
sVclout
p164
I1
sVone
p165
I5
sVput
p166
I1
sVnigga
p167
I1
sVbitch
p168
I1
sVsinging
p169
I1
sVsounds
p170
I1
sVswallowed
p171
I1
sVopen
p172
I2
sVwan
p173
I9
sVcasket
p174
I1
sVwould
p175
I1
sVaint
p176
I2
sVescalated
p177
I1
sVheights
p178
I1
sVfucking
p179
I1
sVmaster
p180
I2
sVsealed
p181
I1
sVgreatness
p182
I1
sVdynamite
p183
I2
sVjack
p184
I1
sVkilled
p185
I1
sVback
p186
I2
sVclever
p187
I1
sVthat
p188
I1
sVlacerate
p189
I1
sVsnatch
p190
I1
sVlets
p191
I1
sVho
p192
I1
sVknown
p193
I1
sVbilled
p194
I1
sVhold
p195
I1
sVmcs
p196
I3
sVwomen
p197
I1
sVme
p198
I5
sVnone
p199
I5
sVmade
p200
I1
sVmc
p201
I14
sVthis
p202
I1
sVscience
p203
I1
sVharder
p204
I2
sVbeats
p205
I2
sVrhymes
p206
I1
sVgreeted
p207
I1
sVtreated
p208
I1
sVcalled
p209
I1
sVsay
p210
I1
sVheart
p211
I1
sVrap
p212
I1
sVstated
p213
I1
sVflow
p214
I1
sVmaniacs
p215
I1
sVturned
p216
I1
sVit
p217
I2
sVfellow
p218
I1
sVheard
p219
I1
sVcant
p220
I1
sVim
p221
I7
sVsomething
p222
I1
sVpotholes
p223
I1
sVabcs
p224
I1
sVneed
p225
I1
sVlifetime
p226
I1
sVleaving
p227
I1
sValone
p228
I1
sVdyke
p229
I1
sVshit
p230
I4
sVdifferent
p231
I1
sVstrength
p232
I1
sVwant
p233
I1
sVnot
p234
I1
sVna
p235
I11
sVmic
p236
I2
sVrelax
p237
I1
sVelevated
p238
I1
sVhot
p239
I2
sVwriters
p240
I1
sVfollowers
p241
I1
sVtake
p242
I1
sVes
p243
I1
sVtest
p244
I1
sVsingers
p245
I1
sVbells
p246
I1
sVmemory
p247
I1
sVsure
p248
I1
sVcrashes
p249
I1
sVstrokes
p250
I1
sVmax
p251
I1
sVknew
p252
I1
sVspot
p253
I1
sVmicrophone
p254
I1
sVflows
p255
I1
sVbothered
p256
I1
sVrunning
p257
I1
sVcoming
p258
I2
sVdate
p259
I1
sVslang
p260
I1
sVman
p261
I2
sVcause
p262
I1
sVfaster
p263
I1
sVflocks
p264
I1
sVyoure
p265
I1
sVwell
p266
I1
sVnympho
p267
I1
sVface
p268
I1
sVlou
p269
I1
sVso
p270
I1
sVruggedness
p271
I1
sValphabet
p272
I1
sVthats
p273
I2
sVimpitant
p274
I1
sVmake
p275
I2
sVrue
p276
I1
sVstick
p277
I1
s.