(dp1
Vnext
p2
I1
sVwalking
p3
I2
sVkettle
p4
I1
sVwords
p5
I1
sVlyrics
p6
I2
sVshow
p7
I3
sVplease
p8
I2
sVstove
p9
I1
sVmove
p10
I1
sVingredient
p11
I1
sVanyway
p12
I1
sVtelling
p13
I2
sVcolors
p14
I2
sVmile
p15
I7
sVkill
p16
I1
sVsalvage
p17
I1
sVskin
p18
I1
sVgo
p19
I5
sVfollow
p20
I1
sVrough
p21
I1
sVstill
p22
I4
sVhate
p23
I1
sVyet
p24
I3
sVima
p25
I6
sVlimbs
p26
I1
sVhead
p27
I2
sVpressures
p28
I1
sVtv
p29
I1
sVmcs
p30
I1
sVhad
p31
I1
sVunsigned
p32
I1
sVbust
p33
I1
sVdull
p34
I1
sVbeat
p35
I1
sVoverloads
p36
I1
sVgoing
p37
I2
sVcertain
p38
I1
sV8
I7
sVsorry
p39
I1
sVmight
p40
I1
sVcity
p41
I2
sVhope
p42
I1
sVtake
p43
I1
sVreal
p44
I2
sVme
p45
I1
sVhit
p46
I2
sValready
p47
I1
sVyo
p48
I7
sVget
p49
I6
sVfar
p50
I1
sVbig
p51
I2
sVblur
p52
I1
sVbegging
p53
I1
sVcrunch
p54
I1
sVdark
p55
I1
sVmatters
p56
I1
sVgrew
p57
I1
sVevery
p58
I1
sVknow
p59
I5
sVkiss
p60
I1
sVhands
p61
I1
sVfront
p62
I1
sVworld
p63
I2
sVbird
p64
I1
sVlearned
p65
I1
sVoutlet
p66
I1
sVapart
p67
I1
sVwont
p68
I1
sVskeptical
p69
I1
sVclam
p70
I1
sVlike
p71
I9
sVlevel
p72
I1
sVskills
p73
I1
sVsurge
p74
I1
sVcry
p75
I1
sVmedian
p76
I1
sVbrother
p77
I1
sVdetroit
p78
I1
sVcalling
p79
I1
sVtry
p80
I1
sVbad
p81
I1
sVstupid
p82
I1
sVnose
p83
I1
sVburned
p84
I1
sVcrayon
p85
I1
sVtrailer
p86
I1
sVluck
p87
I1
sVblew
p88
I1
sVright
p89
I2
sVleaders
p90
I1
sVdeal
p91
I1
sVpeople
p92
I1
sVjob
p93
I1
sVdealing
p94
I1
sVdoubt
p95
I1
sVhard
p96
I1
sVsomehow
p97
I1
sVskillest
p98
I1
sVjump
p99
I2
sVsecond
p100
I1
sVdawg
p101
I1
sVdumb
p102
I1
sVare
p103
I1
sVescape
p104
I1
sVhome
p105
I1
sVgirl
p106
I1
sVthing
p107
I1
sVcold
p108
I1
sVbest
p109
I1
sVreally
p110
I1
sVeven
p111
I1
sVmanhoods
p112
I1
sVturn
p113
I1
sVgon
p114
I2
sVborderline
p115
I1
sVgod
p116
I1
sVrep
p117
I1
sVdefenses
p118
I1
sVpep
p119
I1
sVwork
p120
I2
sVlights
p121
I1
sVenough
p122
I3
sVenergy
p123
I1
sVrun
p124
I1
sVgoes
p125
I2
sVeverything
p126
I2
sVit
p127
I2
sVnew
p128
I7
sVneither
p129
I1
sVwham
p130
I1
sVcause
p131
I2
sVquitting
p132
I1
sVpants
p133
I1
sVregain
p134
I1
sVaint
p135
I9
sVshut
p136
I1
sVpigeon
p137
I1
sVvicked
p138
I1
sVlove
p139
I1
sVasap
p140
I1
sVgot
p141
I10
sVnever
p142
I5
sVflow
p143
I1
sVfree
p144
I2
sVeminem
p145
I1
sVmet
p146
I1
sVtracks
p147
I2
sVimmature
p148
I1
sVlet
p149
I1
sVgrow
p150
I1
sVmaking
p151
I1
sVput
p152
I1
sVcrap
p153
I1
sVincredible
p154
I1
sVwanted
p155
I1
sVby
p156
I1
sVstage
p157
I2
sVpity
p158
I1
sVlimits
p159
I1
sVsister
p160
I2
sVdaddy
p161
I1
sVok
p162
I1
sVwouldnt
p163
I1
sVbattling
p164
I1
sVfault
p165
I1
sVcould
p166
I1
sVwherever
p167
I1
sVstep
p168
I1
sVkeep
p169
I1
sVpray
p170
I1
sVplus
p171
I1
sVstand
p172
I1
sVmouth
p173
I1
sVclothes
p174
I1
sVwhole
p175
I1
sVroad
p176
I6
sVown
p177
I2
sVwhats
p178
I1
sVdont
p179
I7
sVive
p180
I1
sVfeel
p181
I5
sVsky
p182
I1
sVyoud
p183
I1
sVone
p184
I6
sVpunchlines
p185
I1
sValone
p186
I2
sVmomma
p187
I1
sVanother
p188
I1
sVblank
p189
I1
sVwhos
p190
I1
sVhang
p191
I1
sVtomorrow
p192
I1
sVwan
p193
I2
sVlittle
p194
I4
sVthree
p195
I1
sVeye
p196
I1
sVrhymes
p197
I1
sVcertificate
p198
I1
sVarmy
p199
I1
sVtop
p200
I1
sVburst
p201
I1
sVtwo
p202
I1
sVfight
p203
I1
sVinsides
p204
I1
sVstuck
p205
I1
sVlive
p206
I1
sVmuch
p207
I1
sVway
p208
I2
sVblow
p209
I2
sVwhite
p210
I1
sVtell
p211
I2
sVback
p212
I6
sVshoulders
p213
I1
sVlunchline
p214
I1
sVcrab
p215
I1
sVporch
p216
I1
sVwith
p217
I1
sVbus
p218
I1
sVmics
p219
I1
sVoccurred
p220
I1
sVfore
p221
I1
sVfuck
p222
I3
sVmoment
p223
I1
sVcredibility
p224
I1
sVtrain
p225
I1
sVunderstand
p226
I1
sVsalvation
p227
I1
sVbum
p228
I1
sVbaby
p229
I3
sVsun
p230
I1
sVtrying
p231
I5
sVcrawl
p232
I1
sVspirit
p233
I1
sVmust
p234
I5
sVcase
p235
I1
sVuturn
p236
I1
sVballs
p237
I1
sVlook
p238
I2
sVmc
p239
I1
sVwish
p240
I1
sVhomey
p241
I1
sVbucket
p242
I1
sVsay
p243
I1
sVus
p244
I1
sVmommas
p245
I1
sVsuddenly
p246
I2
sVkick
p247
I1
sVmaybe
p248
I1
sVfun
p249
I1
sVim
p250
I22
sVta
p251
I4
sVdidnt
p252
I1
sVill
p253
I1
sVburbs
p254
I1
sVgone
p255
I1
sVburies
p256
I1
sVrabbits
p257
I1
sVwant
p258
I1
sVfright
p259
I1
sVwasnt
p260
I1
sVstripped
p261
I1
sVauthenticity
p262
I1
sVlife
p263
I2
sVmode
p264
I1
sVheard
p265
I1
sVcant
p266
I1
sVslam
p267
I1
sVbrake
p268
I1
sVsomething
p269
I2
sVrap
p270
I1
sVneed
p271
I5
sVseen
p272
I1
sVpedestal
p273
I1
sVsits
p274
I1
sVcurve
p275
I1
sVshit
p276
I3
sVchase
p277
I1
sVgrown
p278
I1
sVlie
p279
I1
sVdifferent
p280
I1
sVacid
p281
I1
sVfoot
p282
I1
sVsit
p283
I2
sVnot
p284
I1
sVna
p285
I3
sVmake
p286
I7
sVbreaking
p287
I1
sVnuts
p288
I1
sVcross
p289
I1
sVballing
p290
I1
sVdad
p291
I1
sVwrite
p292
I1
sVlonger
p293
I2
sVhot
p294
I1
sVpad
p295
I1
sVsplit
p296
I1
sVsignificance
p297
I1
sVfeeling
p298
I1
sVsmelled
p299
I1
sVdaduhduhdada
p300
I1
sVplay
p301
I1
sVpoor
p302
I1
sVurge
p303
I1
sVplant
p304
I1
sVsee
p305
I3
sVexplode
p306
I1
sVserve
p307
I1
sVmother
p308
I2
sVupon
p309
I1
sVscared
p310
I1
sVhand
p311
I1
sVrunning
p312
I1
sVregular
p313
I1
sVpulled
p314
I1
sVplan
p315
I2
sVfriends
p316
I2
sVgets
p317
I2
sVman
p318
I5
sVland
p319
I1
sVtakes
p320
I1
sVthird
p321
I1
sVwhenever
p322
I1
sVfootsteps
p323
I1
sVsometimes
p324
I9
sVupset
p325
I1
sVrobot
p326
I1
sVoutfit
p327
I1
sVcourage
p328
I1
sVcomes
p329
I1
sVgoodbye
p330
I1
sVtime
p331
I8
sValright
p332
I1
sVhear
p333
I1
sVholed
p334
I1
sVstarting
p335
I1
sVdrawing
p336
I1
sVtravel
p337
I3
s.