(dp1
Vimaginative
p2
I1
sVvampires
p3
I1
sVlyrics
p4
I2
sVflesh
p5
I1
sVbeware
p6
I1
sVdancers
p7
I1
sVbrain
p8
I1
sVbuttafingaz
p9
I1
sVspiders
p10
I1
sVfear
p11
I1
sVfeat
p12
I1
sVbiters
p13
I2
sVima
p14
I2
sVwhose
p15
I1
sVdeath
p16
I1
sVhills
p17
I1
sVparanoid
p18
I1
sVmcs
p19
I1
sVdanger
p20
I1
sVtrample
p21
I1
sVbetter
p22
I1
sVsource
p23
I1
sVblack
p24
I1
sVsnap
p25
I1
sVskills
p26
I1
sVdreaded
p27
I1
sVtheivin
p28
I1
sVdj
p29
I1
sVrisk
p30
I1
sVtorture
p31
I1
sVget
p32
I2
sVya
p33
I4
sVbig
p34
I1
sVbein
p35
I1
sVmaterial
p36
I1
sVrhyme
p37
I1
sVkind
p38
I1
sVchoice
p39
I1
sV9
I1
sVballs
p40
I1
sVevery
p41
I2
sVtightenin
p42
I1
sVlighter
p43
I1
sVtrouble
p44
I1
sVlittle
p45
I1
sVfrightening
p46
I1
sVgalloping
p47
I1
sVlike
p48
I5
sVspilling
p49
I1
sVchairs
p50
I1
sVgettin
p51
I1
sVlightning
p52
I1
sVsurvivin
p53
I1
sVchamber
p54
I1
sVholdin
p55
I1
sVliars
p56
I1
sVgrab
p57
I2
sVsquooshed
p58
I1
sVreels
p59
I1
sVbuddys
p60
I1
sVem
p61
I7
sVright
p62
I2
sVforce
p63
I1
sVcuz
p64
I1
sVjaws
p65
I1
sVcampfires
p66
I1
sVback
p67
I2
sValive
p68
I1
sVsoul
p69
I1
sVhair
p70
I2
sVmeth
p71
I1
sVhoarse
p72
I1
sVenergetic
p73
I1
sVblue
p74
I1
sVsavage
p75
I1
sVmovin
p76
I1
sVdetect
p77
I1
sVdeliberate
p78
I1
sVpokin
p79
I1
sVfingers
p80
I1
sVpen
p81
I1
sVverbs
p82
I1
sVhorrible
p83
I1
sVdiggin
p84
I1
sVcause
p85
I4
sViller
p86
I1
sVone
p87
I1
sVrun
p88
I1
sVbolts
p89
I2
sVconnivin
p90
I1
sVbreathin
p91
I1
sVjolts
p92
I1
sVeminem
p93
I1
sVsingers
p94
I1
sVpliers
p95
I1
sVplagiarist
p96
I1
sVslayed
p97
I1
sVcould
p98
I1
sVtimes
p99
I1
sVsniffin
p100
I1
sVbecame
p101
I1
sVaura
p102
I1
sVswing
p103
I1
sVfingernails
p104
I1
sVproof
p105
I2
sVbackup
p106
I1
sVscare
p107
I1
sVthats
p108
I2
sVclamp
p109
I1
sVmajor
p110
I1
sVlove
p111
I1
sVcancer
p112
I1
sVambushed
p113
I1
sVclompin
p114
I1
sVlies
p115
I1
sVquicker
p116
I1
sVsing
p117
I1
sVfallin
p118
I1
sVloaded
p119
I1
sVchewin
p120
I1
sVclampin
p121
I1
sVjabber
p122
I1
sVtomorrow
p123
I1
sVeverybody
p124
I1
sVpulverize
p125
I1
sVcrammed
p126
I1
sVcrap
p127
I1
sVstompin
p128
I1
sVprepare
p129
I1
sVdevelopin
p130
I1
sVstamp
p131
I1
sVbite
p132
I2
sVtwo
p133
I1
sVstark
p134
I1
sVfight
p135
I1
sVgig
p136
I1
sVactin
p137
I1
sVzappin
p138
I1
sVhead
p139
I2
sVdoor
p140
I2
sVattacked
p141
I2
sVbit
p142
I1
sVgas
p143
I1
sVterror
p144
I1
sVbringin
p145
I1
sVravin
p146
I1
sVtrue
p147
I1
sVeat
p148
I1
sV10
p149
I1
sVstickin
p150
I1
sVperil
p151
I1
sVbiterphobia
p152
I3
sVdangerous
p153
I1
sVdissect
p154
I1
sVsmackin
p155
I1
sVrhymes
p156
I2
sVcracked
p157
I1
sVvoice
p158
I1
sVstrands
p159
I1
sVfruity
p160
I1
sVcans
p161
I1
sVive
p162
I1
sVoutta
p163
I1
sVannoyed
p164
I1
sVrammed
p165
I1
sVlife
p166
I1
sVpushed
p167
I1
sVim
p168
I13
sVperformed
p169
I1
sVultimatum
p170
I2
sVheels
p171
I1
sVhit
p172
I3
sVserial
p173
I1
sVborder
p174
I1
sVlabradors
p175
I1
sVcultivate
p176
I1
sVdoublebarrel
p177
I1
sVransom
p178
I1
sVforced
p179
I1
sVnoises
p180
I1
sVrange
p181
I1
sVtil
p182
I2
sVmushed
p183
I1
sVslammed
p184
I1
sVskull
p185
I1
sVsick
p186
I1
sVpronouns
p187
I1
sVsneakin
p188
I1
sVkiller
p189
I1
sVchokin
p190
I1
sVelectric
p191
I1
sVrappers
p192
I2
sVfelt
p193
I1
sVreach
p194
I1
sVnig
p195
I1
sVwalk
p196
I1
sVassault
p197
I2
sVsaid
p198
I1
sVintent
p199
I1
sVmad
p200
I1
sVpredicates
p201
I1
sVairbourne
p202
I1
sVpullin
p203
I1
sVman
p204
I1
sVjacked
p205
I2
sVstampin
p206
I1
sVfaster
p207
I1
sVadjectives
p208
I1
sVyoure
p209
I1
sVscream
p210
I1
sVaerosol
p211
I1
sVtime
p212
I1
sVthingamajig
p213
I1
sVdream
p214
I1
sVkickin
p215
I1
sVleft
p216
I1
s.