(dp1
Vwhoopy
p2
I1
sVdiss
p3
I2
sVgs
p4
I1
sVinspire
p5
I1
sVlyrics
p6
I2
sVshow
p7
I1
sVdance
p8
I1
sVcaused
p9
I2
sVurine
p10
I1
sVworms
p11
I1
sVpeaches
p12
I1
sVpissing
p13
I1
sVqueef
p14
I1
sVrepent
p15
I1
sVhuman
p16
I1
sVdamnit
p17
I1
sVgo
p18
I2
sVhell
p19
I1
sVcold
p20
I17
sVstill
p21
I1
sVhate
p22
I2
sVshoes
p23
I1
sVaint
p24
I1
sVtil
p25
I4
sVcut
p26
I1
sVyummy
p27
I1
sVanvil
p28
I1
sVexplain
p29
I1
sVdick
p30
I3
sVbosom
p31
I1
sVsend
p32
I1
sVwriting
p33
I1
sVbetter
p34
I1
sVlord
p35
I1
sVstruck
p36
I2
sVwomen
p37
I1
sVmight
p38
I1
sVkick
p39
I1
sVhater
p40
I1
sVthen
p41
I1
sVaround
p42
I1
sVget
p43
I2
sVbeat
p44
I1
sVsucker
p45
I2
sVsolo
p46
I1
sVstop
p47
I1
sVoranges
p48
I1
sVanyway
p49
I1
sVgame
p50
I2
sVwarn
p51
I1
sVknow
p52
I28
sVwords
p53
I2
sVfall
p54
I1
sVworld
p55
I2
sVday
p56
I3
sVbigger
p57
I1
sVlike
p58
I7
sVmariah
p59
I1
sVname
p60
I1
sVyoull
p61
I1
sVdrop
p62
I2
sVmichael
p63
I2
sVwait
p64
I1
sVtry
p65
I1
sVsissy
p66
I2
sVcircle
p67
I1
sVbombs
p68
I1
sVeveryone
p69
I1
sVwent
p70
I2
sVtold
p71
I1
sVbong
p72
I1
sVyall
p73
I2
sVmean
p74
I3
sVem
p75
I4
sVass
p76
I1
sVblew
p77
I1
sVright
p78
I2
sVdrowns
p79
I1
sVfucking
p80
I6
sVwan
p81
I1
sVfake
p82
I1
sVback
p83
I4
sVfootin
p84
I1
sVup
p85
I3
sVgoose
p86
I1
sVsee
p87
I2
sVlearn
p88
I1
sVbooth
p89
I1
sVhoes
p90
I1
sVsounds
p91
I1
sVout
p92
I1
sVhappens
p93
I1
sVelton
p94
I1
sVforgive
p95
I1
sVmummy
p96
I1
sVgod
p97
I3
sVfreeze
p98
I1
sVbelow
p99
I3
sVice
p100
I1
sVlooking
p101
I1
sVeverything
p102
I1
sVpen
p103
I1
sVcontinue
p104
I1
sVbuddha
p105
I1
sVmusta
p106
I1
sVsoul
p107
I1
sVmistook
p108
I1
sVgot
p109
I1
sVcause
p110
I5
sVpiss
p111
I1
sVmutts
p112
I1
sVstanding
p113
I1
sVkicked
p114
I1
sVdo
p115
I1
sVthong
p116
I1
sVbitches
p117
I1
sVnever
p118
I1
sVmotherfucker
p119
I2
sVslut
p120
I3
sVeminem
p121
I1
sVsins
p122
I1
sVlet
p123
I1
sVslaughter
p124
I1
sValthough
p125
I1
sVask
p126
I3
sVsing
p127
I1
sVsitting
p128
I1
sVcome
p129
I1
sVearthquake
p130
I1
sVchange
p131
I1
sVstage
p132
I1
sVbuck
p133
I1
sVlast
p134
I1
sVahead
p135
I1
sVoh
p136
I43
sVsoft
p137
I1
sVill
p138
I5
sVpunk
p139
I1
sVshush
p140
I1
sVthing
p141
I1
sVlicked
p142
I1
sVswear
p143
I1
sVstand
p144
I1
sVyou
p145
I2
sVwhole
p146
I1
sVthink
p147
I1
sVswimming
p148
I1
sVnerve
p149
I1
sValready
p150
I1
sVlove
p151
I2
sVdont
p152
I18
sVpussy
p153
I3
sVahh
p154
I2
sVna
p155
I1
sVmakes
p156
I1
sVput
p157
I3
sVspinning
p158
I1
sVset
p159
I1
sVbitch
p160
I3
sVlaugh
p161
I1
sVduck
p162
I2
sVblows
p163
I8
sVmiss
p164
I1
sValong
p165
I1
sVeverybody
p166
I2
sVquit
p167
I1
sVguess
p168
I1
sVease
p169
I1
sVstarts
p170
I1
sVtwenty
p171
I3
sVthere
p172
I1
sVlong
p173
I3
sVnext
p174
I1
sVgrapes
p175
I1
sVdamn
p176
I1
sVpissed
p177
I1
sVway
p178
I4
sVcall
p179
I4
sVjohn
p180
I1
sVtell
p181
I1
sVhappy
p182
I1
sVtorch
p183
I1
sVknows
p184
I1
sVspit
p185
I2
sVfire
p186
I1
sVthought
p187
I1
sVfoxll
p188
I1
sVlint
p189
I1
sVhaha
p190
I1
sVsnows
p191
I3
sVblobloblobloblobloblows
p192
I1
sVyeah
p193
I3
sVbloblobloblobloblows
p194
I2
sVstick
p195
I1
sVloose
p196
I1
sVbutt
p197
I1
sVprobably
p198
I1
sVducks
p199
I1
sVcleanse
p200
I1
sVeat
p201
I1
sVcunt
p202
I1
sVchill
p203
I1
sVme
p204
I4
sVlightening
p205
I1
sVmade
p206
I1
sVlook
p207
I2
sVplums
p208
I1
sVj
I1
sVlips
p209
I1
sVtrick
p210
I1
sVremain
p211
I1
sVapples
p212
I1
sVlight
p213
I1
sVgobble
p214
I1
sVfaggot
p215
I1
sVlisten
p216
I1
sVcock
p217
I1
sVsay
p218
I3
sVpushin
p219
I1
sVcompare
p220
I1
sVcmon
p221
I1
sVrap
p222
I1
sVnicer
p223
I1
sVgive
p224
I2
sVpucker
p225
I1
sVpass
p226
I1
sVbananas
p227
I1
sVfuck
p228
I13
sVballsack
p229
I1
sVhoney
p230
I1
sVcant
p231
I2
sVhomie
p232
I1
sVim
p233
I16
sVaqua
p234
I1
sVwant
p235
I1
sVseen
p236
I1
sVnookie
p237
I1
sVfame
p238
I1
sVshit
p239
I4
sVfill
p240
I1
sVagain
p241
I1
sVcushion
p242
I1
sVooooohhhhhhh
p243
I1
sVdying
p244
I2
sVthings
p245
I2
sVnah
p246
I1
sVsong
p247
I2
sVnuts
p248
I2
sVsame
p249
I1
sVwrite
p250
I1
sVautotune
p251
I1
sVpair
p252
I1
sVtake
p253
I1
sVsick
p254
I3
sVcannon
p255
I1
sVshawty
p256
I1
sVpuppy
p257
I1
sVroll
p258
I1
sVdifficult
p259
I1
sVshouldnt
p260
I1
sVfunny
p261
I1
sVbruce
p262
I1
sVrhyme
p263
I1
sVwelcome
p264
I1
sVhang
p265
I1
sVevil
p266
I1
sVstay
p267
I1
sValright
p268
I1
sVwrong
p269
I1
sVsaid
p270
I1
sVmen
p271
I1
sVgardeners
p272
I1
sVsuck
p273
I1
sVhurt
p274
I1
sVkiss
p275
I1
sVgrow
p276
I1
sVshitting
p277
I1
sVman
p278
I8
sVdummy
p279
I1
sVoff
p280
I1
sVworldll
p281
I1
sVvick
p282
I1
sVshady
p283
I2
sVyoure
p284
I1
sVwell
p285
I1
sVdog
p286
I1
sVface
p287
I1
sVlandfill
p288
I1
sVso
p289
I2
sVcame
p290
I2
sVbums
p291
I1
sVtime
p292
I3
sVpush
p293
I1
sVbanners
p294
I1
sVmic
p295
I1
sVwind
p296
I9
sVonce
p297
I1
s.