(dp1
Vbirth
p2
I1
sVlyrics
p3
I2
sVhands
p4
I1
sVfall
p5
I1
sVrest
p6
I1
sVtop
p7
I1
sVfoot
p8
I1
sValready
p9
I2
sVearth
p10
I1
sVstepping
p11
I1
sVskin
p12
I1
sVgo
p13
I1
sVexistence
p14
I1
sVyes
p15
I1
sVhate
p16
I2
sVfind
p17
I1
sVreenacted
p18
I1
sVtrying
p19
I1
sVunkickable
p20
I1
sVgiants
p21
I1
sVdefrosted
p22
I1
sVinfridge
p23
I1
sVdull
p24
I1
sVbetter
p25
I1
sVto
p26
I1
sVfinally
p27
I2
sVjam
p28
I1
sVpile
p29
I1
sVjudged
p30
I1
sVquick
p31
I1
sVscrapbook
p32
I1
sVheavier
p33
I1
sVpass
p34
I1
sVkick
p35
I2
sVstutterin
p36
I1
sVstyles
p37
I1
sVdo
p38
I1
sVgraceless
p39
I1
sVsomeone
p40
I1
sVget
p41
I1
sVread
p42
I1
sVgrammerin
p43
I1
sVleapfrog
p44
I1
sVhammerin
p45
I1
sVevery
p46
I1
sVknow
p47
I3
sVwords
p48
I2
sVnew
p49
I1
sVfront
p50
I1
sVworld
p51
I1
sVkdanny
p52
I1
sVaccepted
p53
I1
sVrealize
p54
I1
sVgrin
p55
I1
sVmeaning
p56
I1
sVenemy
p57
I1
sVgrammar
p58
I1
sVlike
p59
I3
sVlost
p60
I1
sVlies
p61
I1
sVnumerous
p62
I1
sVterritory
p63
I1
sVtry
p64
I2
sValways
p65
I2
sVshafted
p66
I1
sVfoolish
p67
I1
sVdepligatory
p68
I1
sVlast
p69
I1
sVsuperstitions
p70
I1
sVmental
p71
I1
sVtired
p72
I1
sVtrend
p73
I1
sVformidable
p74
I1
sVyeah
p75
I2
sVdead
p76
I1
sVhorn
p77
I1
sVpast
p78
I2
sVsee
p79
I3
sVproductions
p80
I1
sVmighty
p81
I1
sVhell
p82
I1
sVapologies
p83
I1
sVturning
p84
I1
sVstarchild
p85
I1
sVhammer
p86
I1
sVfear
p87
I1
sVeven
p88
I1
sVtrust
p89
I1
sVborderline
p90
I1
sVposition
p91
I1
sVslurrin
p92
I1
sVsum
p93
I1
sVprobably
p94
I1
sVplease
p95
I1
sVboundaries
p96
I1
sVarguing
p97
I1
sVversitility
p98
I1
sVgot
p99
I2
sVglacial
p100
I1
sVcause
p101
I3
sVabusin
p102
I1
sVside
p103
I3
sVcraving
p104
I1
sVnever
p105
I5
sVfaceless
p106
I1
sVpower
p107
I1
sVquit
p108
I1
sVloose
p109
I1
sVeminem
p110
I2
sVfeelings
p111
I1
sVbroken
p112
I1
sVreason
p113
I1
sVlet
p114
I1
sVdefiance
p115
I1
sVask
p116
I1
sVrefuser
p117
I1
sVresponsibilty
p118
I1
sVstereotypes
p119
I1
sVproove
p120
I1
sVpull
p121
I1
sVfaced
p122
I1
sVtalent
p123
I1
sVeat
p124
I1
sVoh
p125
I2
sVmany
p126
I1
sVcould
p127
I1
sVdespicable
p128
I1
sVtimes
p129
I1
sVplace
p130
I1
sVstand
p131
I2
sVprojectile
p132
I1
sVreply
p133
I1
sVhatred
p134
I2
sVmutterin
p135
I1
sVoctopus
p136
I1
sVthink
p137
I1
sVcomes
p138
I1
sVthats
p139
I4
sVcheese
p140
I3
sVreptile
p141
I1
sValliance
p142
I1
sVdont
p143
I2
sVcan
p144
I1
sVcolor
p145
I1
sVinvasive
p146
I1
sVmanage
p147
I1
sVinsist
p148
I1
sVone
p149
I3
sVput
p150
I4
sVanother
p151
I2
sVtooted
p152
I1
sVbland
p153
I1
sVoblivious
p154
I1
sVrarely
p155
I1
sValong
p156
I1
sVspeak
p157
I1
sVstartling
p158
I1
sVwould
p159
I1
sVhes
p160
I1
sVabscence
p161
I1
sVstammerin
p162
I1
sVspots
p163
I1
sVfight
p164
I1
sVexhausted
p165
I1
sVattack
p166
I1
sVmuch
p167
I1
sVton
p168
I1
sVtherefore
p169
I1
sVway
p170
I1
sVdwell
p171
I1
sVwhite
p172
I1
sVtryin
p173
I1
sVbluffing
p174
I1
sVjuggler
p175
I1
sVkane
p176
I1
sVdoor
p177
I1
sVform
p178
I1
sVpeices
p179
I1
sVbrand
p180
I1
sVhuh
p181
I1
sVspoken
p182
I1
sVunderstand
p183
I2
sVrepeatedly
p184
I1
sVfolklore
p185
I1
sVdate
p186
I1
sVcolorblind
p187
I1
sVhold
p188
I2
sVrivalry
p189
I1
sVnutshell
p190
I1
sVme
p191
I2
sValso
p192
I1
sVmade
p193
I1
sVlook
p194
I1
sVthis
p195
I2
sVwish
p196
I1
sVstraight
p197
I1
sVsay
p198
I1
sVus
p199
I1
sVn
I2
sVaim
p200
I1
sVunloading
p201
I1
sVlearn
p202
I1
sVcrackers
p203
I3
sVoutcome
p204
I1
sVlighter
p205
I1
sVtheres
p206
I1
sVand
p207
I1
sVsecluded
p208
I1
sVpersuasive
p209
I1
sVplay
p210
I1
sVtaste
p211
I1
sVcertain
p212
I1
sVawaking
p213
I1
sVmine
p214
I1
sVive
p215
I2
sVcant
p216
I1
sVim
p217
I7
sVsomething
p218
I1
sVwant
p219
I1
sVsimulations
p220
I1
sVwonderful
p221
I1
sVthor
p222
I1
sVoccupied
p223
I1
sVfading
p224
I2
sVend
p225
I2
sVfloor
p226
I1
sVnot
p227
I1
sVmake
p228
I1
sVtasteless
p229
I1
sVhanded
p230
I1
sVbeat
p231
I1
sVunity
p232
I1
sVtake
p233
I1
sVsacred
p234
I1
sVaggravating
p235
I1
sVinstead
p236
I1
sVdeliverence
p237
I1
sVpoor
p238
I1
sVbegin
p239
I1
sVopposite
p240
I1
sVmay
p241
I1
sVupon
p242
I1
sVoutcast
p243
I1
sVwrong
p244
I1
sVendure
p245
I1
sVnothing
p246
I2
sVfighting
p247
I1
sVpages
p248
I1
sVman
p249
I4
sVdanny
p250
I1
sVattempt
p251
I1
sVfor
p252
I2
sVclear
p253
I1
sVyoure
p254
I5
sVdog
p255
I1
sVfictional
p256
I1
sVpride
p257
I1
sVswitch
p258
I1
sVstockpile
p259
I1
sVtime
p260
I4
sVweigh
p261
I1
sVleft
p262
I1
s.