(dp1
Vmonte
p2
I1
sVbomb
p3
I1
sVwords
p4
I1
sVlyrics
p5
I2
sVscratch
p6
I1
sVmove
p7
I2
sVkong
p8
I1
sVandre
p9
I1
sVpaper
p10
I2
sVlooks
p11
I2
sVquake
p12
I1
sVseats
p13
I1
sVgo
p14
I2
sVcorner
p15
I1
sVfeat
p16
I1
sVundisputed
p17
I1
sVperfect
p18
I1
sVgiant
p19
I1
sVcut
p20
I2
sVfit
p21
I1
sVcup
p22
I1
sVlady
p23
I1
sVfix
p24
I1
sVflash
p25
I1
sVlets
p26
I2
sV4
I1
sVcrack
p27
I6
sVriding
p28
I4
sVsauce
p29
I1
sVgave
p30
I1
sVooww
p31
I1
sVbegins
p32
I1
sVhit
p33
I4
sVworse
p34
I1
sVget
p35
I4
sVcamino
p36
I1
sVfat
p37
I1
sVbreak
p38
I5
sVmention
p39
I1
sVgame
p40
I1
sVevery
p41
I3
sVknow
p42
I3
sVkiss
p43
I1
sVfront
p44
I1
sVworld
p45
I1
sVbit
p46
I1
sVson
p47
I1
sVdr
p48
I2
sVday
p49
I1
sVname
p50
I1
sVbat
p51
I1
sVtrios
p52
I1
sVlike
p53
I11
sVpounds
p54
I1
sVleather
p55
I1
sVcause
p56
I3
sVsignal
p57
I1
sVmothers
p58
I1
sV50
p59
I2
sVtheyre
p60
I2
sVgarage
p61
I1
sVnursery
p62
I1
sVthough
p63
I1
sVgrab
p64
I1
sVworks
p65
I1
sVdip
p66
I1
sVclothes
p67
I4
sVem
p68
I9
sVel
p69
I2
sVcaking
p70
I1
sVnigga
p71
I1
sVhell
p72
I1
sVelephants
p73
I1
sVback
p74
I3
sVdriving
p75
I1
sVsee
p76
I2
sVrhymes
p77
I1
sVfist
p78
I1
sVhoes
p79
I1
sVweighing
p80
I1
sVdawn
p81
I5
sVcarlo
p82
I1
sVring
p83
I1
sVreally
p84
I4
sVtrick
p85
I1
sVwhat
p86
I1
sVcurse
p87
I1
sVfor
p88
I1
sVdisgusts
p89
I1
sVmister
p90
I1
sVaway
p91
I1
sVlotto
p92
I4
sVburgundy
p93
I1
sVwaiting
p94
I1
sVgot
p95
I14
sVyoull
p96
I1
sVbody
p97
I4
sVaint
p98
I2
sVnotice
p99
I4
sVfumunda
p100
I1
sVassaults
p101
I1
sVbass
p102
I1
sVrolled
p103
I1
sVwaddle
p104
I4
sVmotherfucker
p105
I1
sVdecisions
p106
I2
sVeminem
p107
I1
sVkicking
p108
I4
sVlet
p109
I4
sVvinyl
p110
I1
sVrubbers
p111
I8
sVthrown
p112
I1
sVon
p113
I1
sVgreat
p114
I1
sVass
p115
I1
sVok
p116
I1
sVwouldnt
p117
I1
sVoh
p118
I1
sVmany
p119
I8
sVcould
p120
I1
sVla
p121
I1
sVshoes
p122
I1
sVdamned
p123
I1
sVthing
p124
I1
sVnothing
p125
I1
sVact
p126
I4
sVmean
p127
I1
sVdiabolical
p128
I1
sVsnobby
p129
I4
sVcheese
p130
I1
sVladies
p131
I6
sVjimmy
p132
I1
sVlove
p133
I6
sVdont
p134
I6
sVpick
p135
I1
sVblown
p136
I1
sVsimple
p137
I2
sVbags
p138
I1
sVstunt
p139
I1
sVone
p140
I14
sVfucked
p141
I1
sVwit
p142
I1
sVbitch
p143
I1
sVanother
p144
I3
sVelementary
p145
I1
sV175
p146
I1
sVreigned
p147
I1
sVbeats
p148
I1
sVplatinum
p149
I1
sVwaco
p150
I1
sVverse
p151
I2
sVcent
p152
I2
sVwhos
p153
I4
sVburn
p154
I1
sVlow
p155
I2
sVtahoe
p156
I4
sVblow
p157
I1
sVrapes
p158
I1
sVentered
p159
I1
sVworcestershire
p160
I1
sVtell
p161
I1
sVcalm
p162
I1
sVmusk
p163
I1
sVintroducing
p164
I1
sVbenz
p165
I1
sVway
p166
I1
sVspit
p167
I1
sVbus
p168
I1
sVbelieve
p169
I1
sVbitches
p170
I5
sVooh
p171
I8
sVcant
p172
I1
sVelse
p173
I1
sVwrapped
p174
I1
sVridiculous
p175
I1
sVdorado
p176
I1
sVbutt
p177
I1
sVlast
p178
I1
sVline
p179
I1
sVhaters
p180
I1
sVtrue
p181
I1
sVmust
p182
I1
sVme
p183
I2
sVking
p184
I1
sVroom
p185
I1
sV17
p186
I1
sVtusk
p187
I1
sVattention
p188
I1
sVsay
p189
I3
sVus
p190
I9
sVn
I1
sVtrey
p191
I1
sVrecord
p192
I1
sVsupposed
p193
I1
sVventure
p194
I1
sVmarajaun
p195
I1
sVsmashed
p196
I2
sVmurders
p197
I1
sVmy
p198
I1
sVill
p199
I1
sVtheres
p200
I8
sVcontrol
p201
I1
sVlick
p202
I1
sVmoney
p203
I1
sVnapalm
p204
I1
sVgive
p205
I1
sV400
p206
I1
sVslim
p207
I1
sVcash
p208
I1
sVfuck
p209
I2
sVlust
p210
I1
sVcollision
p211
I1
sVvillain
p212
I1
sVstyle
p213
I1
sVim
p214
I6
sVdre
p215
I3
sVwant
p216
I3
sVin
p217
I1
sVkeep
p218
I1
sVshit
p219
I3
sVaround
p220
I2
sVgrown
p221
I1
sVagain
p222
I1
sVspeakers
p223
I1
sVend
p224
I1
sValarm
p225
I1
sVends
p226
I1
sVsix
p227
I1
sVnuts
p228
I1
sVstable
p229
I1
sVgentlemen
p230
I2
sVtill
p231
I5
sVmushed
p232
I1
sVtake
p233
I1
sVsick
p234
I3
sVelephant
p235
I1
sVparty
p236
I5
sVgets
p237
I2
sVbring
p238
I1
sVrider
p239
I1
sVpicture
p240
I2
sVshaun
p241
I1
sVball
p242
I1
sVhey
p243
I1
sVitch
p244
I1
sVdusk
p245
I4
sVsymbol
p246
I1
sVyouve
p247
I1
sVeighty
p248
I1
sVprecision
p249
I1
sVcrashed
p250
I1
sVmoment
p251
I1
sVvengeance
p252
I1
sVlay
p253
I1
sVdust
p254
I5
sVclassy
p255
I1
sVwhy
p256
I1
sVwheres
p257
I4
sVman
p258
I2
sVmaaco
p259
I1
sVcenter
p260
I1
sVhopping
p261
I4
sVchoos
p262
I1
sVshotgun
p263
I4
sVshady
p264
I1
sVyoure
p265
I1
sVredeem
p266
I1
sVface
p267
I1
sVthought
p268
I1
sVheres
p269
I1
sVvietnam
p270
I1
sVbottle
p271
I8
sVtime
p272
I1
sVpleasure
p273
I1
sVmodel
p274
I4
sVleft
p275
I1
sVstarting
p276
I4
sVspend
p277
I1
sVposses
p278
I4
s.