(dp1
Vcamacho
p2
I1
sVrusted
p3
I1
sVlyrics
p4
I2
sVflesh
p5
I1
sVmoney
p6
I1
sVmove
p7
I1
sVmistaken
p8
I1
sVbrother
p9
I1
sVbedspread
p10
I1
sVlarge
p11
I1
sVpaper
p12
I1
sVanimals
p13
I1
sVlooks
p14
I1
sVhuman
p15
I1
sVusing
p16
I1
sVfeat
p17
I1
sVmayor
p18
I1
sVbefore
p19
I2
sVaint
p20
I1
sVgentlemen
p21
I1
sVstyle
p22
I1
sVdeath
p23
I1
sVjust
p24
I1
sVbroom
p25
I1
sVdick
p26
I3
sVfather
p27
I1
sVyoung
p28
I1
sVbust
p29
I1
sVjunior
p30
I1
sVlyin
p31
I1
sVhavin
p32
I1
sVtears
p33
I1
sVspread
p34
I2
sVblack
p35
I1
sVwet
p36
I1
sVmacho
p37
I1
sVjab
p38
I1
sVstab
p39
I1
sVkick
p40
I1
sVbrown
p41
I1
sVhit
p42
I3
sVaround
p43
I2
sVcombination
p44
I1
sVget
p45
I4
sVya
p46
I2
sVbig
p47
I5
sVeat
p48
I2
sVfeelin
p49
I1
sVbreak
p50
I1
sVsmack
p51
I1
sVswords
p52
I1
sVknow
p53
I2
sVnew
p54
I1
sVtrust
p55
I1
sVaffect
p56
I1
sVstabbed
p57
I1
sVvapors
p58
I1
sVworshippin
p59
I1
sVfourth
p60
I1
sVsucked
p61
I2
sVwont
p62
I1
sVbeggin
p63
I1
sVclits
p64
I1
sVlike
p65
I6
sVbobby
p66
I1
sVnotes
p67
I1
sVifs
p68
I1
sVgun
p69
I2
sVtokes
p70
I1
sVleave
p71
I1
sVbag
p72
I1
sVbad
p73
I1
sVstylistics
p74
I1
sVhittin
p75
I2
sVrock
p76
I1
sVquick
p77
I1
sVnotorious
p78
I1
sVindonesia
p79
I1
sVem
p80
I2
sVdusted
p81
I1
sVwhore
p82
I1
sVprayers
p83
I1
sVhouse
p84
I1
sVyeah
p85
I5
sVdead
p86
I7
sVskins
p87
I1
sVhair
p88
I1
sVborn
p89
I1
sVsecond
p90
I1
sVhoncho
p91
I1
sVshes
p92
I1
sVfist
p93
I1
sVunless
p94
I1
sVlittle
p95
I2
sVsemen
p96
I1
sVsaid
p97
I2
sVplays
p98
I1
sVugly
p99
I1
sVruthless
p100
I1
sVboy
p101
I1
sVplease
p102
I1
sVweapons
p103
I2
sVmaybes
p104
I1
sVlucifer
p105
I1
sVit
p106
I2
sVgot
p107
I11
sVhooker
p108
I3
sVyoull
p109
I1
sVred
p110
I3
sVbody
p111
I1
sVsmalls
p112
I2
sVfull
p113
I1
sVshit
p114
I1
sVsacrifices
p115
I1
sVnever
p116
I1
sVweak
p117
I2
sVmotherfucker
p118
I1
sVeminem
p119
I1
sVdisrespect
p120
I1
sVmet
p121
I2
sVstep
p122
I2
sVdevil
p123
I1
sVrubbers
p124
I1
sVheads
p125
I1
sVfuck
p126
I2
sVpath
p127
I1
sVstrong
p128
I2
sVswift
p129
I1
sVthrow
p130
I1
sVwall
p131
I1
sVon
p132
I2
sVhits
p133
I1
sVg
I1
sVoh
p134
I1
sVdyin
p135
I1
sVdidnt
p136
I1
sVleaves
p137
I1
sVchoke
p138
I1
sVscreamin
p139
I1
sVslayer
p140
I1
sVlevels
p141
I1
sVsmoke
p142
I3
sVact
p143
I1
sVicepick
p144
I1
sVshootin
p145
I1
sVasked
p146
I1
sVfuckin
p147
I2
sVlay
p148
I1
sVheavy
p149
I1
sVladies
p150
I1
sVlove
p151
I2
sVdont
p152
I6
sVhim
p153
I1
sVpussy
p154
I1
sVmarshall
p155
I1
sVarsenal
p156
I1
sVseizure
p157
I1
sVone
p158
I1
sVhorses
p159
I1
sVwit
p160
I1
sVbitch
p161
I1
sVmafia
p162
I1
sVcanibalism
p163
I1
sVwan
p164
I1
sVguess
p165
I1
sVwanted
p166
I1
sVeye
p167
I1
sVtummy
p168
I1
sVhes
p169
I1
sVnine
p170
I1
sVhabit
p171
I1
sVtwo
p172
I1
sVwhos
p173
I2
sVceilin
p174
I1
sVmuch
p175
I1
sVcall
p176
I1
sVamnesia
p177
I1
sVmean
p178
I1
sVman
p179
I1
sVdealin
p180
I1
sVmary
p181
I1
sVands
p182
I1
sVthrew
p183
I1
sVhookers
p184
I1
sVhead
p185
I2
sVnorth
p186
I1
sVrelax
p187
I1
sVmammals
p188
I1
sVhuh
p189
I1
sVback
p190
I3
sVwake
p191
I1
sVhail
p192
I1
sVthink
p193
I1
sVbaby
p194
I2
sVhardcore
p195
I2
sVsex
p196
I1
sVwith
p197
I1
sVgrace
p198
I1
sVme
p199
I1
sVtoothless
p200
I1
sVbiggie
p201
I1
sVraw
p202
I1
sVup
p203
I1
sVniggaz
p204
I1
sVhidin
p205
I1
sVexorcism
p206
I1
sVsuckin
p207
I1
sVgucci
p208
I1
sVkapeesha
p209
I1
sVmr
p210
I1
sVfaggot
p211
I1
sVcock
p212
I1
sVill
p213
I1
sVtheres
p214
I1
sVhumpin
p215
I1
sVlayer
p216
I1
sVcmon
p217
I1
sVrabbits
p218
I1
sVwant
p219
I1
sVbabies
p220
I1
sVpocket
p221
I2
sVdemon
p222
I1
sVmarijuana
p223
I1
sVhoney
p224
I1
sVready
p225
I2
sVsay
p226
I1
sVmachetes
p227
I1
sVim
p228
I8
sVrap
p229
I1
sVneed
p230
I1
sVdoor
p231
I1
sVgushy
p232
I1
sVrape
p233
I1
sVsis
p234
I1
sVfunny
p235
I1
sVdifferent
p236
I1
sVkibbitz
p237
I1
sVyo
p238
I1
sVfloor
p239
I3
sVna
p240
I1
sVmake
p241
I1
sVthat
p242
I1
sVwound
p243
I1
sVgreen
p244
I1
sVtil
p245
I2
sVbeat
p246
I2
sVcamels
p247
I1
sVtake
p248
I3
sVtits
p249
I1
sVtech
p250
I1
sVseveral
p251
I1
sVsmell
p252
I1
sVwar
p253
I2
sVpain
p254
I1
sVmustard
p255
I1
sVtrace
p256
I1
sVflip
p257
I1
sVmoms
p258
I2
sVrain
p259
I1
sVmeat
p260
I1
sVwrong
p261
I6
sVvisa
p262
I1
sVwrist
p263
I1
sVblood
p264
I1
sVjumpin
p265
I1
sVfucked
p266
I1
sVgoin
p267
I2
sVjacked
p268
I1
sVdummy
p269
I1
sVremix
p270
I2
sVpotency
p271
I1
sVremember
p272
I1
sVthird
p273
I1
sVroom
p274
I1
sVline
p275
I1
sVcandles
p276
I1
sVyoure
p277
I5
sVuz
p278
I1
sVanybody
p279
I1
sVslit
p280
I2
sVface
p281
I2
sVmummy
p282
I1
sV2000
p283
I2
sVso
p284
I1
sVdeadly
p285
I1
sVpush
p286
I1
sVfresh
p287
I2
sVsalt
p288
I1
s.