(dp1
Vprotocol
p2
I1
sVforget
p3
I1
sVlyrics
p4
I2
sVover
p5
I1
sVthrough
p6
I1
sVshake
p7
I1
sVgo
p8
I2
sVmadness
p9
I1
sVlay
p10
I1
sVfeat
p11
I1
sVyet
p12
I1
sVhelp
p13
I1
sVaint
p14
I3
sVhold
p15
I1
sVpointing
p16
I3
sVhow
p17
I1
sVthinking
p18
I1
sVmuch
p19
I2
sVguts
p20
I1
sVrealize
p21
I1
sVhavin
p22
I1
sVfinally
p23
I1
sVlord
p24
I3
sVfollowin
p25
I1
sVta
p26
I1
sVthem
p27
I1
sVwoman
p28
I1
sVhandle
p29
I1
sVmadly
p30
I1
sVget
p31
I2
sVwake
p32
I2
sVmemories
p33
I2
sVbowling
p34
I1
sVcrushed
p35
I1
sVuhh
p36
I1
sVmade
p37
I1
sVfive
p38
I1
sVknow
p39
I1
sVhands
p40
I3
sVdamnit
p41
I1
sVtrouble
p42
I1
sVone
p43
I3
sVday
p44
I1
sVdreams
p45
I3
sVfebruary
p46
I1
sVlike
p47
I4
sVdie
p48
I10
sVgettin
p49
I1
sVfinality
p50
I1
sVsupposed
p51
I2
sVstartin
p52
I1
sVnight
p53
I3
sVradio
p54
I1
sVsteak
p55
I1
sVrespond
p56
I1
sVold
p57
I3
sVdeal
p58
I1
sVtired
p59
I1
sVawake
p60
I1
sVdealing
p61
I1
sVfake
p62
I1
sVyeah
p63
I1
sVdead
p64
I1
sVsee
p65
I1
sVused
p66
I1
sVshes
p67
I2
sVmirror
p68
I1
sVdrawin
p69
I1
sVreally
p70
I2
sVblue
p71
I1
sVsaid
p72
I4
sVgive
p73
I3
sVhate
p74
I1
sVones
p75
I1
sVkilling
p76
I1
sVeverything
p77
I1
sVwritten
p78
I1
sVhallucinate
p79
I1
sVshambles
p80
I1
sVit
p81
I3
sVgot
p82
I1
sVred
p83
I1
sVsong
p84
I1
sVknowing
p85
I1
sVblow
p86
I1
sVlove
p87
I1
sVhang
p88
I1
sVnever
p89
I2
sVeminem
p90
I1
sVcake
p91
I1
sVcompletely
p92
I1
sVlet
p93
I1
sVothers
p94
I1
sValone
p95
I8
sVache
p96
I1
sVcaskets
p97
I1
sVchange
p98
I1
sVon
p99
I1
sVlast
p100
I3
sVgetting
p101
I2
sVill
p102
I2
sVvalentines
p103
I1
sVdays
p104
I1
sVtimes
p105
I1
sVturn
p106
I1
sVbirthday
p107
I1
sVgames
p108
I1
sVlookin
p109
I1
sVpick
p110
I1
sVeight
p111
I1
sVhead
p112
I2
sVthink
p113
I1
sVfuckin
p114
I2
sVputtin
p115
I1
sVstill
p116
I1
sVitll
p117
I2
sVdwelling
p118
I1
sVdont
p119
I6
sVive
p120
I1
sVsuddenly
p121
I1
sVmakin
p122
I1
sVjesus
p123
I3
sVchannels
p124
I1
sVdone
p125
I1
sVcomin
p126
I1
sVkobe
p127
I1
sVcouldnt
p128
I1
sVvisions
p129
I1
sVwan
p130
I1
sVguess
p131
I1
sVteddy
p132
I1
sValways
p133
I1
sVthere
p134
I1
sVtwo
p135
I3
sVanyone
p136
I1
sVstation
p137
I1
sVcall
p138
I1
sVstuffed
p139
I1
sVwhite
p140
I3
sVempty
p141
I1
sVsweetheart
p142
I3
sVcoffins
p143
I3
sVbrains
p144
I1
sVhuh
p145
I1
sVfindin
p146
I1
sVback
p147
I5
sVexcuse
p148
I1
sVeverywhere
p149
I1
sVclouded
p150
I1
sVtrying
p151
I1
sVtrue
p152
I1
sVsleep
p153
I2
sVmust
p154
I1
sVsoothe
p155
I1
sVballs
p156
I2
sVlook
p157
I2
sVloved
p158
I1
sVsucks
p159
I1
sVsay
p160
I1
sVus
p161
I2
sVmatter
p162
I1
sVanywhere
p163
I1
sVbowled
p164
I1
sVcandles
p165
I1
sVsmashed
p166
I1
sVmaking
p167
I1
sVtoward
p168
I3
sVdidnt
p169
I3
sVmistake
p170
I1
sVand
p171
I1
sVgone
p172
I1
sVcrazy
p173
I1
sVwakes
p174
I1
sVviolets
p175
I1
sVtaste
p176
I1
sVescape
p177
I1
sVfuck
p178
I2
sVdeep
p179
I1
sVsad
p180
I1
sVhoney
p181
I3
sVcant
p182
I5
sVcomfortably
p183
I1
sVim
p184
I14
sVsomething
p185
I2
sVwant
p186
I1
sVplayin
p187
I3
sVheels
p188
I1
sVseem
p189
I1
sVsaw
p190
I9
sVoccur
p191
I1
sVshit
p192
I2
sVagain
p193
I1
sVdifferent
p194
I1
sVdenial
p195
I1
sVfloor
p196
I1
sVrather
p197
I1
sVdeserve
p198
I1
sVmake
p199
I1
sVsix
p200
I1
sVreminded
p201
I1
sVreality
p202
I1
sVroses
p203
I1
sVheartbreak
p204
I1
sVuseless
p205
I1
sVsick
p206
I2
sVyou
p207
I7
sVroll
p208
I1
sVeven
p209
I2
sVblanks
p210
I1
sVpain
p211
I1
sValleviate
p212
I1
sVmay
p213
I1
sVreach
p214
I1
sVovercrowded
p215
I1
sVhangman
p216
I1
sVmoving
p217
I1
sVbear
p218
I1
sVcoming
p219
I1
sVmachete
p220
I1
sVforever
p221
I1
sVapologizing
p222
I1
sVphone
p223
I2
sVi
I2
sVlight
p224
I3
sVyoure
p225
I3
sVspent
p226
I1
sVtogether
p227
I2
sVbeds
p228
I1
sVwithout
p229
I1
sVtalk
p230
I1
sVbottle
p231
I1
sVna
p232
I1
sVevery
p233
I2
sVthats
p234
I1
sVdream
p235
I1
sVfact
p236
I1
s.