(dp1
Vlyrics
p2
I2
sVmoney
p3
I4
sVclot
p4
I1
sVgo
p5
I2
sVkanye
p6
I1
sVstill
p7
I3
sV25
p8
I1
sVhold
p9
I1
sVoffice
p10
I2
sVearned
p11
I1
sVit\u2019s
p12
I3
sV29
p13
I1
sVblack
p14
I1
sVeasy
p15
I1
sVsittin\u2019
p16
I1
sVsmart
p17
I1
sVta
p18
I1
sVpay
p19
I1
sVhit
p20
I1
sVget
p21
I3
sVi\u2019m
p22
I8
sVsmarter
p23
I1
sVgame
p24
I1
sVbastards
p25
I1
sVknow
p26
I1
sVkiss
p27
I1
sV2
I1
sVmagic
p28
I1
sVartist
p29
I1
sVever
p30
I1
sVjackin\u2019
p31
I1
sVfif\u2019
p32
I1
sVsayin\u2019
p33
I1
sVright
p34
I1
sVgoddamn
p35
I1
sVback
p36
I3
sValive
p37
I1
sVi\u2019ve
p38
I1
sVus
p39
I2
sVforgot
p40
I1
sVcocacola
p41
I1
sVbest
p42
I2
sVeven
p43
I2
sVsocks
p44
I1
sVgon
p45
I1
sVsun
p46
I1
sV3
I1
sVscore
p47
I1
sVgot
p48
I2
sVcause
p49
I2
sVthrive
p50
I1
sVwho\u2019s
p51
I1
sVass
p52
I1
sVrun
p53
I1
sVburn
p54
I1
sVeminem
p55
I1
sVnowhere
p56
I1
sVfuck
p57
I1
sVprofitless
p58
I1
sVsuper
p59
I1
sVbox
p60
I1
sVboy
p61
I1
sVoh
p62
I2
sVcoulda
p63
I1
sVspazzin\u2019
p64
I1
sVkeep
p65
I1
sVthing
p66
I1
sVglasses
p67
I1
sVdre
p68
I1
sVthink
p69
I1
sVblood
p70
I1
sVretired
p71
I1
sVmakin\u2019
p72
I1
sVfeel
p73
I1
sVpop
p74
I1
sVjayz
p75
I1
sVset
p76
I1
sVblonde
p77
I1
sVopponents
p78
I1
sVguess
p79
I1
sVwould
p80
I1
sVwest
p81
I1
sVthere
p82
I1
sVlong
p83
I1
sVstart
p84
I1
sVasses
p85
I1
sVmuch
p86
I2
sVdamn
p87
I1
sVdon\u2019t
p88
I2
sV20\u2032s
p89
I1
sVbrick
p90
I1
sVsellin\u2019
p91
I2
sVstore
p92
I1
sVtryna
p93
I1
sVlife
p94
I1
sVthat
p95
I1
sVfreestyle
p96
I2
sVcoke
p97
I1
sVyeah
p98
I3
sVkanye\u2019s
p99
I1
sVhear
p100
I1
sVhighest
p101
I1
sVgim
p102
I1
sVthey\u2019re
p103
I1
sVme
p104
I1
sVword
p105
I1
sVlook
p106
I1
sVmc
p107
I1
sVain\u2019t
p108
I2
sVdistract
p109
I1
sVexwife
p110
I1
sVlearn
p111
I1
sVknocked
p112
I1
sVhappened
p113
I1
sVlick
p114
I1
sVoutta
p115
I1
sVthen
p116
I1
sVwe\u2019ve
p117
I1
sVit
p118
I2
sVrap
p119
I3
sVarise
p120
I1
sVtan
p121
I1
sVplaques
p122
I1
sVshit
p123
I2
sVbags
p124
I1
sVbottles
p125
I1
sVna
p126
I1
sVmake
p127
I1
sV1
I1
sVsick
p128
I2
sVbeach
p129
I1
sVokay
p130
I1
sVthat\u2019s
p131
I2
sVrappers
p132
I1
sVcame
p133
I1
sVstay
p134
I1
sVmodest
p135
I1
sVlay
p136
I1
sVdied
p137
I1
sVman
p138
I2
sVtil
p139
I1
sVjohnson
p140
I1
sVmaybe
p141
I4
sVshady
p142
I1
sVcocksuckers
p143
I1
sVthought
p144
I1
sVfact
p145
I1
sVcomin\u2019
p146
I1
sVsainttropez
p147
I1
sVleft
p148
I1
s.