(dp1
Vgates
p2
I1
sVanalyze
p3
I1
sVshot
p4
I1
sVbananas
p5
I1
sVlyrics
p6
I2
sVshow
p7
I1
sVnordface
p8
I1
sVsound
p9
I1
sVcloaks
p10
I1
sVlivin
p11
I2
sVquarters
p12
I1
sVcourse
p13
I1
sVshoe
p14
I1
sVga
p15
I1
sVbattle
p16
I2
sVhell
p17
I2
sVblocks
p18
I1
sVheavens
p19
I1
sVfeat
p20
I1
sVthai
p21
I1
sVdown
p22
I1
sVground
p23
I1
sVaint
p24
I2
sVtil
p25
I3
sVbacktalk
p26
I1
sVchain
p27
I1
sVtight
p28
I1
sVpray
p29
I1
sVpen
p30
I1
sVbust
p31
I1
sVmattress
p32
I1
sVbetter
p33
I1
sVto
p34
I1
sVlets
p35
I1
sVblack
p36
I2
sVjag
p37
I1
sVbout
p38
I1
sVmatch
p39
I1
sVboulder
p40
I1
sVdrink
p41
I2
sVhit
p42
I1
sVjblack
p43
I1
sVyo
p44
I3
sVget
p45
I1
sVbeat
p46
I2
sVda
p47
I1
sVunderneath
p48
I1
sVmatters
p49
I1
sVgame
p50
I1
sVevery
p51
I2
sVknow
p52
I2
sVreply
p53
I1
sVbar
p54
I1
sVone
p55
I2
sVday
p56
I1
sVdare
p57
I1
sVwont
p58
I1
sVdim
p59
I2
sVcatches
p60
I1
sVgets
p61
I2
sVmagic
p62
I1
sVlike
p63
I6
sVlost
p64
I2
sVdie
p65
I2
sVgun
p66
I1
sVremove
p67
I1
sVleave
p68
I1
sVashes
p69
I1
sVclowns
p70
I1
sVrock
p71
I1
sVkatta
p72
I1
sVroundhouse
p73
I1
sVem
p74
I1
sVforce
p75
I1
sVsoakin
p76
I1
sVten
p77
I1
sVcolder
p78
I1
sVliquor
p79
I1
sVstill
p80
I4
sVback
p81
I6
sVsex
p82
I1
sVgo
p83
I3
sVsee
p84
I5
sVbare
p85
I1
sVearth
p86
I1
sVclose
p87
I1
sVacid
p88
I1
sVer
p89
I1
sVplanet
p90
I1
sVmaxie
p91
I1
sVgon
p92
I1
sVwa
p93
I1
sVbag
p94
I1
sVrot
p95
I1
sVcorpse
p96
I1
sVsince
p97
I1
sVusin
p98
I1
sVwrong
p99
I1
sVseriously
p100
I1
sVrun
p101
I1
sVgot
p102
I2
sVfragments
p103
I1
sVthree
p104
I1
sVyoull
p105
I1
sVred
p106
I1
sVass
p107
I1
sVblow
p108
I1
sVfull
p109
I1
sVexplosive
p110
I1
sVlee
p111
I1
sViku
p112
I1
sVolder
p113
I1
sVnever
p114
I3
sVuntie
p115
I1
sVeminem
p116
I1
sVbroken
p117
I2
sVstep
p118
I2
sVworse
p119
I1
sVkey
p120
I1
sVima
p121
I3
sVstage
p122
I1
sVfaith
p123
I1
sVomae
p124
I1
sVpearly
p125
I1
sVher
p126
I2
sVg
I1
sVoh
p127
I1
sVgod
p128
I2
sVill
p129
I4
sVchoke
p130
I1
sVtimes
p131
I1
sVchop
p132
I1
sVrange
p133
I1
sVspins
p134
I1
sVsmoke
p135
I3
sVdefeat
p136
I1
sVlager
p137
I1
sVpack
p138
I1
sVwhole
p139
I1
sVthink
p140
I1
sVfuckin
p141
I4
sVfirst
p142
I1
sVfeed
p143
I1
sVmanger
p144
I1
sVeverynight
p145
I1
sVburns
p146
I1
sVase
p147
I1
sVadidas
p148
I1
sVdanger
p149
I1
sVfeel
p150
I2
sVwhatever
p151
I1
sVpuke
p152
I1
sVfeet
p153
I2
sVchalk
p154
I1
sVdone
p155
I2
sVbitch
p156
I2
sVlaugh
p157
I1
sVchurch
p158
I1
sVwrap
p159
I1
sVfight
p160
I1
sVopen
p161
I2
sVrounds
p162
I1
sVspeak
p163
I1
sVstrapped
p164
I1
sVcasket
p165
I1
sVsaki
p166
I1
sVwould
p167
I1
sVhearse
p168
I1
sVthere
p169
I1
sVtwo
p170
I1
sVfast
p171
I1
sVplastic
p172
I1
sVmuch
p173
I1
sVdont
p174
I2
sVlot
p175
I1
sVahhh
p176
I1
sVcall
p177
I1
sVnickle
p178
I1
sVtryin
p179
I2
sVangels
p180
I1
sVtell
p181
I2
sVbreathe
p182
I1
sVtrey
p183
I1
sVfunnel
p184
I1
sVhard
p185
I1
sVway
p186
I1
sVsideswipe
p187
I1
sVcoke
p188
I1
sVgashes
p189
I1
sVhaha
p190
I1
sVyeah
p191
I1
sVdagger
p192
I1
sVglass
p193
I1
sVhh
p194
I2
sVlift
p195
I1
sVcolorado
p196
I1
sVliver
p197
I2
sVstranger
p198
I1
sVline
p199
I1
sVhold
p200
I1
sVeat
p201
I2
sVwaist
p202
I1
sVshoot
p203
I1
sVjigoku
p204
I1
sVwearin
p205
I1
sVtunnel
p206
I1
sVspill
p207
I1
sVsoul
p208
I2
sVniggaz
p209
I1
sVfinal
p210
I1
sVrope
p211
I1
sVcannibal
p212
I1
sVnine
p213
I1
sVhope
p214
I1
sVdoc
p215
I1
sVtorso
p216
I1
sVcare
p217
I1
sVhistory
p218
I1
sVup
p219
I1
sVvest
p220
I1
sVfreak
p221
I1
sVrap
p222
I1
sVgive
p223
I1
sVshowin
p224
I1
sVne
p225
I1
sVtrain
p226
I1
sVslim
p227
I1
sVfuck
p228
I1
sVdeep
p229
I1
sVpieces
p230
I1
sVhigh
p231
I1
sVfly
p232
I1
sVim
p233
I6
sVgreet
p234
I1
sVchat
p235
I1
sVin
p236
I2
sVanger
p237
I1
sVsharp
p238
I1
sVeveryday
p239
I1
sVshit
p240
I3
sVaxis
p241
I1
sVstrength
p242
I1
sVend
p243
I2
sVwant
p244
I1
sVsit
p245
I1
sVmake
p246
I1
sVsix
p247
I1
sVcross
p248
I1
sVweeded
p249
I1
sVlit
p250
I1
sVgasses
p251
I1
sVswagger
p252
I1
sVtake
p253
I2
sVtie
p254
I1
sVyou
p255
I3
sVfill
p256
I1
sVeww
p257
I1
sVroll
p258
I2
sVmasta
p259
I1
sVleavin
p260
I1
sVyall
p261
I1
sVwelcome
p262
I1
sVspot
p263
I1
sVflows
p264
I1
sVwalk
p265
I2
sVretaliate
p266
I1
sVdrag
p267
I1
sVcurse
p268
I1
sVstab
p269
I1
sVwounded
p270
I1
sVdark
p271
I1
sVgrow
p272
I1
sVwheres
p273
I1
sVchrist
p274
I1
sVnight
p275
I1
sVremix
p276
I2
sVcause
p277
I1
sVe
I1
sVoutline
p278
I1
sVwife
p279
I1
sVlight
p280
I2
sVshady
p281
I1
sVlose
p282
I1
sVcleat
p283
I1
sVsmack
p284
I1
sVhellbound
p285
I3
sVconcrete
p286
I1
sVdaggers
p287
I1
sVcorso
p288
I1
sVtime
p289
I2
sVat
p290
I1
sVworst
p291
I1
sVpulled
p292
I1
s.