(dp1
Vsaying
p2
I1
sVthink
p3
I1
sVhelp
p4
I2
sVlyrics
p5
I2
sVping
p6
I2
sVtop
p7
I1
sVrest
p8
I1
sVkong
p9
I1
sVcourse
p10
I1
sVbedroom
p11
I1
sVgo
p12
I4
sVaint
p13
I2
sVsayin
p14
I1
sVelm
p15
I1
sVdick
p16
I2
sVfather
p17
I1
sVanys
p18
I1
sVbust
p19
I1
sVmower
p20
I1
sVgoing
p21
I2
sVgangsta
p22
I1
sVkick
p23
I1
sVdad
p24
I1
sVme
p25
I1
sVhandle
p26
I1
sVget
p27
I7
sVruxpin
p28
I1
sVbelch
p29
I1
sVunderneath
p30
I1
sVchainsaw
p31
I2
sVevery
p32
I1
sVknow
p33
I6
sVgot
p34
I2
sVbit
p35
I1
sVday
p36
I1
sVsucked
p37
I2
sVwont
p38
I1
sVmelting
p39
I1
sVlike
p40
I3
sVlost
p41
I3
sVbrain
p42
I2
sVdig
p43
I1
sVnaked
p44
I1
sVnight
p45
I1
sVhung
p46
I1
sVx
I1
sVinsane
p47
I5
sVshed
p48
I1
sVset
p49
I1
sVfucking
p50
I1
sVnut
p51
I1
sVpubic
p52
I1
sVyeah
p53
I3
sVdead
p54
I1
sVhair
p55
I1
sVborn
p56
I1
sVsee
p57
I2
sVnaaw
p58
I1
sVpicked
p59
I1
sVeven
p60
I1
sVsaid
p61
I4
sVcloset
p62
I3
sVmovie
p63
I1
sVnightmare
p64
I1
sVfucks
p65
I2
sVeverything
p66
I1
sVlaid
p67
I1
sVbelching
p68
I1
sVprobably
p69
I1
sVexcept
p70
I1
sVpants
p71
I1
sVass
p72
I2
sVfelt
p73
I1
sVslingshot
p74
I1
sVlittle
p75
I1
sVeminem
p76
I1
sVcompletely
p77
I3
sVlet
p78
I2
sVburp
p79
I1
sVfuck
p80
I6
sVtraining
p81
I1
sValong
p82
I1
sVcare
p83
I1
sVon
p84
I1
sVfaucet
p85
I3
sVate
p86
I1
sVmaniac
p87
I1
sVcould
p88
I3
sVhes
p89
I7
sVfelched
p90
I1
sVstep
p91
I1
sVcalled
p92
I2
sVthing
p93
I3
sVbaseball
p94
I1
sVmotherfuckers
p95
I2
sVfuckin
p96
I5
sVthats
p97
I1
sVding
p98
I1
sVlove
p99
I1
sVdont
p100
I5
sVoohh
p101
I1
sVfeel
p102
I1
sVmarshall
p103
I1
sVscene
p104
I1
sVpop
p105
I1
sVone
p106
I1
sVnothing
p107
I1
sVaimed
p108
I1
sVdong
p109
I1
sVsing
p110
I1
sVhappening
p111
I1
sVskeletons
p112
I3
sVbra
p113
I1
sVsecond
p114
I1
sVfed
p115
I1
sVeye
p116
I1
sVwould
p117
I5
sVteddy
p118
I1
sVbite
p119
I1
sVchased
p120
I1
sVnext
p121
I1
sVstuck
p122
I1
sVsitter
p123
I1
sVdebbie
p124
I1
sVman
p125
I2
sVtell
p126
I1
sVwants
p127
I1
sVhead
p128
I3
sVboy
p129
I2
sVbrains
p130
I1
sVtook
p131
I4
sVback
p132
I2
sVstick
p133
I1
sVbutt
p134
I1
sVbaby
p135
I1
sVeat
p136
I1
sVfelch
p137
I1
sVcount
p138
I3
sVking
p139
I1
sVtank
p140
I1
sVshowed
p141
I1
sVyelping
p142
I1
sVsay
p143
I1
sVbed
p144
I4
sVfelching
p145
I1
sVstreet
p146
I1
sVfakin
p147
I1
sVdang
p148
I1
sVstepfather
p149
I1
sVchelsea
p150
I1
sVill
p151
I1
sVbet
p152
I3
sVive
p153
I3
sVcum
p154
I1
sVplayed
p155
I2
sVah
p156
I1
sVit
p157
I1
sVraw
p158
I1
sVcant
p159
I1
sVim
p160
I3
sVwant
p161
I2
sVsnuck
p162
I1
sVneed
p163
I1
sVpong
p164
I2
sVshooting
p165
I1
sVwell
p166
I3
sVrape
p167
I1
sVbastard
p168
I1
sVno
p169
I1
sVrather
p170
I1
sVmeans
p171
I1
sVnuts
p172
I4
sVtells
p173
I1
sVtil
p174
I1
sVbig
p175
I1
sVinstead
p176
I1
sVpuppy
p177
I2
sVsmell
p178
I1
sVblades
p179
I2
sVwaitin
p180
I1
sVplay
p181
I1
sVunless
p182
I1
sVtried
p183
I1
sVobject
p184
I1
sVfucker
p185
I2
sVhelping
p186
I1
sVcigarette
p187
I1
sVfucked
p188
I1
sVsuck
p189
I1
sVkid
p190
I1
sVpeeing
p191
I1
sVlawn
p192
I2
sVoff
p193
I2
sVneck
p194
I1
sVshady
p195
I3
sVyoure
p196
I1
sVupset
p197
I2
sVdog
p198
I3
sVface
p199
I2
sVjail
p200
I1
sVmother
p201
I1
sVyours
p202
I1
sVleft
p203
I1
s.