(dp1
Vfreak
p2
I1
sVsaying
p3
I1
sVlyrics
p4
I2
sVyea
p5
I1
sVsoon
p6
I1
sVmines
p7
I1
sVshoe
p8
I1
sVstepping
p9
I1
sVgo
p10
I3
sVpsycho
p11
I1
sVfeat
p12
I1
sVfind
p13
I1
sVclapped
p14
I1
sVlayers
p15
I1
sVcried
p16
I1
sVsomewhere
p17
I1
sVsky
p18
I1
sVwinning
p19
I1
sVgoing
p20
I3
sVblack
p21
I1
sVcondom
p22
I1
sVcrack
p23
I7
sVriding
p24
I1
sVchingy
p25
I1
sVpride
p26
I1
sVmight
p27
I1
sVmomentum
p28
I1
sVmariah
p29
I1
sVaround
p30
I2
sVyo
p31
I2
sVget
p32
I6
sVya
p33
I3
sValbino
p34
I1
sVknow
p35
I7
sVfront
p36
I1
sVbit
p37
I2
sVwalk
p38
I1
sVday
p39
I1
sVdare
p40
I1
sVwont
p41
I3
sVlike
p42
I32
sVlost
p43
I1
sVfiya
p44
I1
sV50
p45
I2
sVlightning
p46
I1
sVtry
p47
I1
sVtwice
p48
I1
sVbad
p49
I2
sVliars
p50
I1
sVtold
p51
I1
sVwhere
p52
I4
sVround
p53
I1
sVyall
p54
I2
sVem
p55
I6
sVknowing
p56
I1
sVright
p57
I7
sVold
p58
I1
sVfair
p59
I1
sVtired
p60
I1
sVfucking
p61
I3
sVyeah
p62
I16
sVbeg
p63
I1
sVhair
p64
I1
sVsee
p65
I17
sVfull
p66
I1
sVbare
p67
I1
sVdoodoo
p68
I1
sVclose
p69
I3
sVtheyre
p70
I3
sVyes
p71
I1
sVenemies
p72
I1
sVeven
p73
I2
sVshown
p74
I1
sVthreats
p75
I1
sVnana
p76
I1
sVwashed
p77
I1
sVfucks
p78
I1
sVlandslides
p79
I1
sVgoes
p80
I1
sVumm
p81
I1
sVgot
p82
I2
sVcause
p83
I3
sVshows
p84
I3
sVass
p85
I3
sVima
p86
I1
sVblowing
p87
I3
sVbolts
p88
I1
sVjoy
p89
I1
sVcorn
p90
I8
sVattention
p91
I2
sVhere
p92
I5
sVeminem
p93
I1
sVlet
p94
I2
sVnowhere
p95
I1
sVgunit
p96
I1
sVcome
p97
I1
sVcare
p98
I6
sVboy
p99
I2
sVhits
p100
I2
sVrare
p101
I1
sVher
p102
I1
sVoh
p103
I17
sVcareer
p104
I1
sVtaking
p105
I1
sVquiet
p106
I1
sVminds
p107
I1
sVkeep
p108
I7
sVdrama
p109
I1
sVboi
p110
I1
sVfear
p111
I1
sVwolf
p112
I1
sVthink
p113
I1
sVwear
p114
I1
sVjimmy
p115
I6
sVdont
p116
I13
sVpoliticin
p117
I1
sVdenim
p118
I1
sVrattlesnakes
p119
I1
sVcrib
p120
I1
sVone
p121
I3
sVfucked
p122
I1
sVdone
p123
I1
sVcent
p124
I1
sVstrip
p125
I1
sVcurr
p126
I1
sVwhos
p127
I1
sVhood
p128
I1
sVsize
p129
I1
sVstare
p130
I1
sVwan
p131
I2
sVlittle
p132
I3
sVrows
p133
I1
sVlifes
p134
I1
sVwould
p135
I2
sVaint
p136
I1
sVdogg
p137
I1
sVbite
p138
I1
sVthere
p139
I1
sVgirls
p140
I1
sVlong
p141
I1
sVfight
p142
I2
sVinsides
p143
I1
sVstrike
p144
I1
sVwhite
p145
I1
sVkid
p146
I1
sVtell
p147
I2
sVfriend
p148
I1
sVlisten
p149
I1
sVback
p150
I1
sVtryna
p151
I1
sVhead
p152
I1
sVthat
p153
I1
sVfire
p154
I1
sVhomies
p155
I1
sVsquash
p156
I1
sVaward
p157
I3
sVfuck
p158
I4
sVcops
p159
I1
sVplayer
p160
I1
sVjewels
p161
I1
sVcatch
p162
I1
sVvelour
p163
I1
sVwinding
p164
I1
sVkind
p165
I1
sVhorseplaying
p166
I1
sVerr
p167
I1
sVheard
p168
I1
sVinside
p169
I2
sVfast
p170
I1
sVus
p171
I7
sVsometime
p172
I1
sVmaking
p173
I2
sVmayor
p174
I1
sVclear
p175
I1
sVbeautiful
p176
I1
sVwants
p177
I1
sVoutta
p178
I2
sVvideos
p179
I3
sVgive
p180
I1
sVshare
p181
I1
sVit
p182
I3
sVdeep
p183
I1
sVblah
p184
I1
sVsay
p185
I4
sVhomie
p186
I1
sVim
p187
I14
sVwant
p188
I1
sVneed
p189
I1
sVclothing
p190
I2
sVshit
p191
I6
sVsir
p192
I1
sVtheyll
p193
I1
sVd12
p194
I2
sVwolves
p195
I1
sVna
p196
I2
sVmeans
p197
I1
sVshining
p198
I1
sVdining
p199
I1
sVhot
p200
I1
sVbrag
p201
I2
sVyou
p202
I1
sVreally
p203
I1
sVsmell
p204
I1
sVnice
p205
I1
sVstaying
p206
I1
sVcosign
p207
I1
sVshouldve
p208
I1
sVrunning
p209
I1
sVbut
p210
I1
sVcoming
p211
I1
sVjealous
p212
I1
sVprolly
p213
I1
sVky
p214
I1
sVman
p215
I5
sVlimiteds
p216
I1
sVshady
p217
I1
sVyoure
p218
I4
sVlines
p219
I2
sVdog
p220
I1
sVwithout
p221
I1
sVupside
p222
I1
sVabsurd
p223
I1
sVbottle
p224
I1
sVtime
p225
I2
sVmeanwhile
p226
I1
sVtalk
p227
I3
sVwine
p228
I1
s.