(dp1
Vdiss
p2
I2
sVliar
p3
I1
sVlyrics
p4
I2
sVzee
p5
I1
sVbyebye
p6
I1
sVhalf
p7
I2
sVyoung
p8
I1
sVbrain
p9
I2
sVpistols
p10
I1
sVice
p11
I1
sVstoned
p12
I1
sVtelling
p13
I1
sVflavor
p14
I1
sVstill
p15
I1
sVticket
p16
I1
sVaint
p17
I1
sVmachine
p18
I1
sVstyle
p19
I2
sVsnorting
p20
I2
sVron
p21
I1
sVscreaming
p22
I2
sVweed
p23
I1
sVjim
p24
I2
sVproportion
p25
I1
sVbehind
p26
I1
sVbetter
p27
I1
sVfinally
p28
I1
sVgoing
p29
I1
sVtape
p30
I1
sVmental
p31
I1
sVcrack
p32
I2
sVteam
p33
I1
sVmarshall
p34
I2
sVswim
p35
I1
sVthen
p36
I1
sVsomebody
p37
I1
sVworse
p38
I2
sVget
p39
I5
sVcurb
p40
I1
sVtreasure
p41
I1
sVdope
p42
I1
sVfreezing
p43
I1
sVcursing
p44
I1
sVbeam
p45
I1
sVsmack
p46
I1
sVknow
p47
I1
sVhands
p48
I1
sVpress
p49
I1
sVworld
p50
I2
sVbit
p51
I1
sVblast
p52
I1
sVlady
p53
I1
sVlike
p54
I9
sVwont
p55
I1
sVentire
p56
I1
sVschool
p57
I1
sVwashing
p58
I1
sVname
p59
I2
sVthinker
p60
I1
sVconvinced
p61
I1
sVcause
p62
I3
sVmedian
p63
I1
sVleave
p64
I1
sVcaged
p65
I1
sVquick
p66
I1
sVwent
p67
I2
sVdeshaun
p68
I1
sVout
p69
I1
sVrack
p70
I1
sVem
p71
I1
sVbody
p72
I1
sVold
p73
I1
sVconcert
p74
I1
sVseasoning
p75
I1
sVcolder
p76
I1
sVduck
p77
I1
sVback
p78
I3
sVdead
p79
I3
sVgo
p80
I1
sVsee
p81
I2
sVstreet
p82
I1
sVschottenheimer
p83
I1
sVcant
p84
I1
sVmagazine
p85
I1
sVair
p86
I1
sVwhip
p87
I1
sVer
p88
I1
sValbum
p89
I1
sVjewel
p90
I1
sVgon
p91
I2
sVhide
p92
I1
sVdriving
p93
I1
sVvoltron
p94
I1
sVreview
p95
I1
sVinside
p96
I1
sVmelt
p97
I1
sVcrush
p98
I1
sVeverything
p99
I1
sVrotten
p100
I1
sVgoes
p101
I1
sVbosses
p102
I1
sVeverlasting
p103
I1
sVforth
p104
I1
sVoutsiders
p105
I1
sVred
p106
I1
sVbought
p107
I1
sVass
p108
I1
sVsupporting
p109
I1
sVblowing
p110
I1
sVrun
p111
I1
sVsilicone
p112
I1
sVgot
p113
I2
sVnever
p114
I1
sVweak
p115
I1
sVmathers
p116
I1
sVmotherfucker
p117
I1
sVflushed
p118
I1
sVitll
p119
I1
sVreason
p120
I1
sVbusy
p121
I1
sVlet
p122
I2
sVkey
p123
I1
sVask
p124
I1
sVbuzzing
p125
I1
sVeminem
p126
I2
sVcome
p127
I1
sVlyrical
p128
I1
sVstage
p129
I1
sVmarty
p130
I1
sVsearch
p131
I1
sVg
I1
sVgetting
p132
I1
sVjoke
p133
I1
sVill
p134
I5
sVcompulsive
p135
I1
sVpace
p136
I1
sVplayers
p137
I1
sVadmit
p138
I1
sVpudding
p139
I1
sVopinion
p140
I1
sVblush
p141
I1
sVgrayed
p142
I1
sVpathological
p143
I1
sVblock
p144
I1
sVinitials
p145
I1
sVmotherfucking
p146
I2
sVnaughty
p147
I1
sVdont
p148
I10
sVcan
p149
I1
sVgrade
p150
I1
sVclapping
p151
I1
sVflipping
p152
I1
sVtwo
p153
I2
sVput
p154
I1
sVspinning
p155
I1
sVbitch
p156
I1
sVstrip
p157
I1
sVdrinker
p158
I1
sVraped
p159
I1
sVopen
p160
I1
sVstraight
p161
I1
sVdishes
p162
I1
sVwack
p163
I1
sVafghan
p164
I1
sVfrom
p165
I1
sVfresher
p166
I1
sVsecond
p167
I1
sVglocks
p168
I1
sVtwenty
p169
I1
sVbite
p170
I1
sValcoholic
p171
I1
sVfro
p172
I1
sVcopies
p173
I1
sVfast
p174
I1
sVeighth
p175
I1
sVstuck
p176
I1
sVdropping
p177
I1
sVcall
p178
I1
sVtell
p179
I1
sVdumping
p180
I1
sVbeez
p181
I1
sVpreview
p182
I1
sVlimousine
p183
I1
sVwhoa
p184
I1
sVrecord
p185
I1
sVeyes
p186
I1
sVmackin
p187
I1
sVheadrush
p188
I1
sVsaid
p189
I1
sVform
p190
I1
sVenough
p191
I1
sVseason
p192
I1
sVcoke
p193
I2
sVfiend
p194
I1
sVm80
p195
I1
sVit
p196
I1
sVboys
p197
I1
sVhi
p198
I1
sVmuch
p199
I2
sVsick
p200
I2
sVsmoking
p201
I2
sVhold
p202
I1
sVspin
p203
I1
sVin
p204
I1
sVrush
p205
I1
sVmade
p206
I1
sVnagging
p207
I1
sVrage
p208
I1
sVdouble
p209
I2
sVvanilla
p210
I1
sVabortion
p211
I1
sVcash
p212
I1
sVrhymer
p213
I1
sVwallet
p214
I1
sVdirty
p215
I3
sVmany
p216
I1
sVknocked
p217
I1
sVshoulder
p218
I1
sVpressure
p219
I1
sVspontaneous
p220
I1
sVproof
p221
I1
sVfreak
p222
I1
sVnicer
p223
I1
sVgive
p224
I6
sVwasnt
p225
I1
sVah
p226
I1
sVslim
p227
I2
sVdemon
p228
I1
sVfuck
p229
I12
sVfucking
p230
I1
sVtalking
p231
I1
sVslit
p232
I1
sVim
p233
I20
sVswinging
p234
I1
sVsporadic
p235
I1
sVthroat
p236
I1
sVcrystals
p237
I1
sVshooting
p238
I1
sVcheck
p239
I1
sVshit
p240
I4
sVdozen
p241
I2
sVsell
p242
I1
sVagain
p243
I1
sVacid
p244
I1
sVtupac
p245
I1
sVlil
p246
I1
sVna
p247
I1
sVmake
p248
I3
sVzaniest
p249
I1
sVmike
p250
I1
sVsnow
p251
I1
sVholton
p252
I1
sVgentlemen
p253
I1
sVneed
p254
I1
sVhey
p255
I1
sVtake
p256
I2
sVanimal
p257
I1
sVsnuffed
p258
I1
sVcomedian
p259
I1
sVtrash
p260
I1
sVsmell
p261
I1
sVgym
p262
I1
sVbitching
p263
I1
sVpete
p264
I1
sVbitches
p265
I1
sVmilkbone
p266
I1
sVbrothers
p267
I1
sVcombat
p268
I1
sVone
p269
I1
sVgoldman
p270
I1
sVproblems
p271
I1
sVsneak
p272
I1
sVimpulsive
p273
I1
sVmissiles
p274
I1
sVaddict
p275
I1
sVkim
p276
I1
sVcoming
p277
I3
sVtyson
p278
I1
sVlooniest
p279
I1
sVfriends
p280
I1
sVextortion
p281
I1
sVman
p282
I2
sVfolgers
p283
I1
sVwomens
p284
I1
sVclinically
p285
I1
sVbrady
p286
I1
sVsacred
p287
I1
sVhome
p288
I1
sVshady
p289
I2
sVholes
p290
I1
sVdisease
p291
I1
sVface
p292
I2
sVthought
p293
I1
sVwacker
p294
I1
sVrepresentin
p295
I1
sVthats
p296
I1
s.