(dp1
Vem
p2
I1
sVdont
p3
I1
sVrosenberg
p4
I2
sVfucking
p5
I2
sVskit
p6
I2
sVbring
p7
I2
sVcant
p8
I1
sVcarry
p9
I1
sVhome
p10
I3
sVpaul
p11
I3
sVshooting
p12
I2
sVsaid
p13
I1
sVlyrics
p14
I2
sVidiot
p15
I1
sVna
p16
I1
sVoutside
p17
I2
sVbehind
p18
I1
sVyou
p19
I1
sVtold
p20
I1
sVback
p21
I1
sVaround
p22
I1
sVget
p23
I1
sVeminem
p24
I1
sVgon
p25
I1
sVstudio
p26
I1
sVtrouble
p27
I1
sVlike
p28
I2
sVjoel
p29
I1
sVyoure
p30
I2
sVgun
p31
I4
sVair
p32
I1
sVleave
p33
I1
sVrange
p34
I1
sVlisten
p35
I1
sVcalled
p36
I1
sVfuckin
p37
I1
s.