(dp1
Vson
p2
I1
sVall
p3
I3
sVplayed
p4
I1
sVlyrics
p5
I2
sVshow
p6
I4
sVdance
p7
I19
sVdeveloped
p8
I1
sVmove
p9
I2
sVsentimental
p10
I1
sVsoon
p11
I1
sVtrade
p12
I1
sVcryin
p13
I4
sVkill
p14
I1
sVvictim
p15
I2
sVshake
p16
I3
sVgo
p17
I1
sVhate
p18
I1
sVcomeon
p19
I1
sVmake
p20
I2
sVaint
p21
I3
sVcrush
p22
I1
sVglimpse
p23
I1
sVtwirls
p24
I1
sVpolice
p25
I1
sVdelinquent
p26
I1
sVimma
p27
I1
sVitll
p28
I2
sVsend
p29
I1
sVtonya
p30
I1
sVgoing
p31
I1
sVcollections
p32
I1
sV4
I1
sVtusk
p33
I1
sVmail
p34
I1
sVbout
p35
I2
sVride
p36
I1
sVta
p37
I1
sVmeant
p38
I1
sVshoot
p39
I1
sVwindshields
p40
I3
sVsobbin
p41
I1
sVyo
p42
I2
sVget
p43
I10
sVya
p44
I10
sVbig
p45
I4
sVcouple
p46
I1
sVfirst
p47
I5
sVfeelin
p48
I1
sVbreak
p49
I3
sVmade
p50
I1
sVevery
p51
I1
sVlynch
p52
I1
sVgot
p53
I7
sVfront
p54
I2
sVworld
p55
I1
sVone
p56
I4
sVexact
p57
I1
sVday
p58
I1
sVbigger
p59
I1
sVwont
p60
I1
sVstunts
p61
I1
sVgets
p62
I1
sVlike
p63
I3
sVever
p64
I10
sVbutton
p65
I1
sVrapper
p66
I1
sVdunk
p67
I1
sVnickelodeon
p68
I1
sVbad
p69
I1
sVsettle
p70
I1
sVprescription
p71
I1
sVtookin
p72
I1
sValways
p73
I2
sVseroquel
p74
I1
sVsixtysix
p75
I1
sVstraight
p76
I1
sVpuke
p77
I1
sVears
p78
I1
sVem
p79
I1
sVass
p80
I3
sVforce
p81
I1
sVpeople
p82
I1
sVglobe
p83
I1
sVhard
p84
I1
sVyeah
p85
I8
sVup
p86
I1
sVlashed
p87
I1
sVsee
p88
I1
sVvalue
p89
I1
sVsnatched
p90
I1
sVpass
p91
I1
sVstar
p92
I2
sVgirl
p93
I9
sVpale
p94
I1
sVevent
p95
I1
sVcreep
p96
I1
sVreally
p97
I1
sVeven
p98
I2
sVgon
p99
I3
sVbleedin
p100
I1
sVsoup
p101
I1
sVheres
p102
I1
sVbroad
p103
I1
sVsince
p104
I1
sVhooked
p105
I1
sVslick
p106
I1
sVslapped
p107
I1
sVlooking
p108
I1
sVdiggin
p109
I1
sVpleadin
p110
I1
sVprobably
p111
I1
sVyoull
p112
I7
sVguns
p113
I1
sVtrap
p114
I1
sVbody
p115
I1
sVgate
p116
I1
sVmonster
p117
I1
sVshit
p118
I1
sVnight
p119
I1
sVsongs
p120
I1
sVeminem
p121
I1
sVfun
p122
I1
sVcut
p123
I1
sVlet
p124
I2
sVhurts
p125
I1
sVput
p126
I1
sVsing
p127
I6
sVsitting
p128
I1
sVstrong
p129
I3
sVcome
p130
I2
sVvalium
p131
I2
sVstage
p132
I1
sVyellin
p133
I1
sVkids
p134
I1
sVlast
p135
I6
sVher
p136
I1
sVextension
p137
I1
sVoutfit
p138
I2
sVill
p139
I4
sVmonths
p140
I1
sVwrong
p141
I1
sVscreamin
p142
I1
sVthing
p143
I4
sVstand
p144
I1
sVlookin
p145
I1
sVlindsay
p146
I1
sVclimb
p147
I1
sVwhole
p148
I2
sVthink
p149
I2
sVcomes
p150
I1
sVthats
p151
I1
sValready
p152
I1
sVlove
p153
I1
sVdont
p154
I1
sVbell
p155
I1
sVimpaling
p156
I1
sVscene
p157
I1
sVpop
p158
I1
sVwalk
p159
I1
sVhers
p160
I1
sVcmon
p161
I1
sVdone
p162
I1
sVwench
p163
I1
sVsexy
p164
I4
sVring
p165
I1
sVskeletons
p166
I1
sVintervention
p167
I1
sVbetter
p168
I1
sVlittle
p169
I10
sVwanted
p170
I1
sVwould
p171
I3
sVstart
p172
I1
sVconstantly
p173
I1
sVtwo
p174
I1
sVkidding
p175
I1
sVstuck
p176
I1
sVattack
p177
I1
sVdamn
p178
I1
sVway
p179
I1
sV6
I1
sVburst
p180
I1
sVslowly
p181
I1
sVbrighton
p182
I1
sVwas
p183
I1
sVknown
p184
I1
sVflat
p185
I1
sVmurder
p186
I1
sVinches
p187
I1
sVhun
p188
I2
sVsuit
p189
I1
sVgas
p190
I1
sVooh
p191
I2
sVnew
p192
I2
sVback
p193
I5
sVglass
p194
I3
sVgal
p195
I1
sVeverywhere
p196
I1
sVopposites
p197
I1
sVbaby
p198
I7
sVonstar
p199
I1
sVhold
p200
I1
sVcunt
p201
I1
sVmust
p202
I1
sVme
p203
I3
sVpull
p204
I1
sVkind
p205
I1
sVworks
p206
I1
sVlook
p207
I4
sVbritney
p208
I1
sValleyoop
p209
I1
sVcar
p210
I1
sVinside
p211
I1
sVsecond
p212
I1
sVflashed
p213
I1
sVtell
p214
I3
sVrehab
p215
I2
sVthin
p216
I1
sVdang
p217
I1
sVpictures
p218
I1
sVfeeling
p219
I1
sVdidnt
p220
I2
sVskirts
p221
I1
sVive
p222
I1
sVjuvenile
p223
I1
sVyoure
p224
I2
sVoutta
p225
I1
sVpicked
p226
I2
sVicon
p227
I1
sVgive
p228
I4
sVwasnt
p229
I1
sVmask
p230
I1
sVshare
p231
I2
sVrelieve
p232
I1
sVheard
p233
I1
sVsay
p234
I1
sVslam
p235
I1
sVim
p236
I4
sVsomething
p237
I1
sVrap
p238
I1
sVturns
p239
I1
sVschoolgirl
p240
I2
sVseen
p241
I2
sValphabet
p242
I1
sVattract
p243
I1
sVpill
p244
I2
sVrape
p245
I1
sVpink
p246
I1
sVfoot
p247
I1
sVwant
p248
I1
sVsit
p249
I1
sVna
p250
I3
sVthinkin
p251
I1
sVsong
p252
I19
sVable
p253
I1
sVtil
p254
I1
sVbuns
p255
I1
sVstilettos
p256
I1
sVtake
p257
I1
sVelephant
p258
I1
sVparty
p259
I1
sVyou
p260
I2
sVpranks
p261
I1
sVcord
p262
I1
sVintention
p263
I1
sVnonstop
p264
I1
sVarent
p265
I2
sVtension
p266
I1
sVbegin
p267
I1
sVaskin
p268
I1
sVlaundry
p269
I1
sVdusk
p270
I1
sVblue
p271
I1
sVupon
p272
I1
sVbawl
p273
I3
sVtonight
p274
I2
sVchance
p275
I6
sVsaid
p276
I3
sVmouth
p277
I1
sVmad
p278
I1
sVmansion
p279
I1
sVman
p280
I1
sVjacked
p281
I1
sVtask
p282
I1
sVlonger
p283
I1
sVfootage
p284
I1
sVcharges
p285
I1
sVflirts
p286
I1
sVstranded
p287
I1
sVwell
p288
I3
sVknow
p289
I2
sVkickin
p290
I1
sVmoonlight
p291
I1
sVmedia
p292
I1
sVbuggin
p293
I1
sVcause
p294
I1
sVtoots
p295
I1
sVirked
p296
I1
sVmovie
p297
I1
sVbasket
p298
I1
sVlaundromat
p299
I1
sVstarting
p300
I1
sVhello
p301
I3
sVfact
p302
I1
sVonce
p303
I1
s.