(dp1
Vpartial
p2
I1
sVlyrics
p3
I2
sVya
p4
I1
sVunfurl
p5
I2
sVbackhands
p6
I1
sVbring
p7
I1
sVgo
p8
I3
sVlove
p9
I13
sVrot
p10
I1
sVtattoo
p11
I1
sVrescue
p12
I2
sVaint
p13
I1
sVcut
p14
I1
sVbuddy
p15
I1
sVruin
p16
I1
sVdick
p17
I2
sVpoppin
p18
I1
sVenough
p19
I1
sVooooh
p20
I2
sVlets
p21
I2
sVwhoadie
p22
I1
sVsave
p23
I5
sVhip
p24
I1
sVmariah
p25
I1
sVgood
p26
I1
sVaround
p27
I2
sVyo
p28
I3
sVget
p29
I3
sVmuthafuckin
p30
I1
sVbig
p31
I2
sVbarstool
p32
I1
sVarsenal
p33
I1
sVme
p34
I10
sVgame
p35
I1
sVevery
p36
I1
sVknow
p37
I11
sVkiss
p38
I3
sVnew
p39
I1
sVworld
p40
I4
sVnow
p41
I1
sVday
p42
I4
sVwont
p43
I1
sVbar
p44
I1
sVname
p45
I2
sVcause
p46
I4
sVcry
p47
I51
sVleave
p48
I1
sVtwice
p49
I1
sVbad
p50
I1
sVhandprints
p51
I1
sVplain
p52
I1
sVchick
p53
I1
sVgrab
p54
I1
sVriver
p55
I22
sVrunway
p56
I3
sVnames
p57
I1
sVsomeday
p58
I3
sVblew
p59
I2
sVpartying
p60
I1
sVdeal
p61
I1
sVjade
p62
I1
sVyeah
p63
I9
sVflip
p64
I1
sVjump
p65
I1
sVtouch
p66
I1
sVlips
p67
I1
sVsee
p68
I3
sVanyways
p69
I1
sVhoes
p70
I1
sVgirl
p71
I8
sVlordy
p72
I1
sVsaturday
p73
I3
sVwhip
p74
I1
sVout
p75
I2
sVattend
p76
I1
sVsluts
p77
I1
sVsince
p78
I1
sVice
p79
I1
sVtampax
p80
I1
sVleap
p81
I1
sVlawsuit
p82
I1
sVfinger
p83
I1
sVgoes
p84
I2
sVgot
p85
I1
sVneither
p86
I1
sVever
p87
I2
sVacross
p88
I1
sVpiss
p89
I1
sVass
p90
I5
sVrun
p91
I1
sVnever
p92
I3
sVslut
p93
I1
sVeminem
p94
I1
sVwater
p95
I1
sVmet
p96
I1
sVlet
p97
I3
sVask
p98
I1
sVcome
p99
I7
sVboy
p100
I2
sVgreat
p101
I1
sVwouldnt
p102
I2
sVoh
p103
I7
sVill
p104
I9
sVchance
p105
I1
sVthing
p106
I4
sVyoull
p107
I1
sVgames
p108
I1
sVstand
p109
I1
sVmean
p110
I1
sVthink
p111
I6
sVfuckin
p112
I3
sVthats
p113
I5
sVwhats
p114
I2
sVdont
p115
I9
sVdrunk
p116
I3
sVmarshall
p117
I2
sVbound
p118
I1
sVone
p119
I6
sVput
p120
I4
sVbitch
p121
I7
sVanother
p122
I2
sVold
p123
I1
sVring
p124
I1
sVtrust
p125
I1
sVeverybody
p126
I1
sVguess
p127
I1
sVguys
p128
I1
sVsecret
p129
I1
sVsavin
p130
I1
sVmuch
p131
I2
sVcall
p132
I4
sVfar
p133
I1
sVstars
p134
I1
sVdamn
p135
I1
sVtryin
p136
I1
sVtell
p137
I1
sVlife
p138
I1
sVbuy
p139
I2
sVfemales
p140
I1
sVknows
p141
I1
sVrelationship
p142
I1
sVfire
p143
I1
sVbitches
p144
I3
sVooh
p145
I2
sVcant
p146
I17
sVhi
p147
I1
sVho
p148
I3
sVbroke
p149
I1
sVhurl
p150
I3
sVbaby
p151
I6
sVmust
p152
I1
sVfly
p153
I1
sVkind
p154
I1
sVpride
p155
I1
sVcar
p156
I1
sVstraight
p157
I1
sVcash
p158
I1
sVus
p159
I1
sVi
I1
sVuh
p160
I1
sVcould
p161
I1
sVsay
p162
I3
sVgone
p163
I1
sVcrazy
p164
I2
sVyoure
p165
I1
sVjealous
p166
I1
sVhallie
p167
I1
sVthen
p168
I1
sVtoocry
p169
I1
sVis
p170
I1
sVslim
p171
I1
sVslap
p172
I2
sVpieces
p173
I1
sVsingle
p174
I2
sVim
p175
I7
sVwant
p176
I15
sVanthrax
p177
I1
sVid
p178
I3
sVshit
p179
I2
sVchase
p180
I2
sVlie
p181
I1
sVdifferent
p182
I1
sVend
p183
I1
sVbabysit
p184
I1
sVrather
p185
I1
sVmake
p186
I4
sVtill
p187
I4
sVsunday
p188
I6
sVhos
p189
I1
sVsick
p190
I1
sVyou
p191
I2
sVsuperman
p192
I24
sVnice
p193
I1
sVplay
p194
I1
sVplans
p195
I1
sVmonday
p196
I6
sVthough
p197
I3
sVfazed
p198
I1
sVhang
p199
I1
sVshadys
p200
I5
sVwrong
p201
I1
sVtwo
p202
I2
sVfucked
p203
I2
sVfriends
p204
I1
sVgrow
p205
I6
sVdied
p206
I1
sVman
p207
I2
sVremix
p208
I2
sVpuss
p209
I1
sVwife
p210
I1
sVriverer
p211
I12
sVmaybe
p212
I6
sVsit
p213
I3
sVwell
p214
I5
sVdrive
p215
I2
sVtogether
p216
I2
sVface
p217
I2
sVammo
p218
I1
sVbottle
p219
I1
sVpush
p220
I1
sVtall
p221
I1
sVfirst
p222
I2
s.