(dp1
Vbending
p2
I1
sVlyrics
p3
I2
sVfocus
p4
I1
sVrest
p5
I1
sVfifty
p6
I1
sVkill
p7
I1
sVsoldiers
p8
I1
sVyes
p9
I1
sVfeat
p10
I1
sVaint
p11
I2
sVslow
p12
I1
sVnines
p13
I1
sVpoppin
p14
I1
sVcrew
p15
I1
sVwet
p16
I1
sVflinch
p17
I1
sVta
p18
I1
sVyo
p19
I1
sVget
p20
I1
sVya
p21
I3
sVbig
p22
I1
sVknow
p23
I1
sVshoulder
p24
I1
sVrelax
p25
I1
sVmagic
p26
I1
sVlike
p27
I1
sVspine
p28
I1
sVgun
p29
I2
sVdetroit
p30
I1
sVem
p31
I2
sVback
p32
I1
sVdexter
p33
I1
sVshowd
p34
I1
sVsuh
p35
I1
sVlooking
p36
I1
sVbogus
p37
I1
sVgot
p38
I4
sVblow
p39
I1
sVlove
p40
I1
sVslackers
p41
I1
sVpunch
p42
I1
sVeminem
p43
I1
sVpressure
p44
I1
sVspray
p45
I1
sVclique
p46
I1
sVseveneight
p47
I1
sVbackwards
p48
I1
sVill
p49
I1
sVpacking
p50
I1
sVleaving
p51
I1
sVpochers
p52
I1
sVwhole
p53
I1
sVthats
p54
I2
sVtexta
p55
I1
sVdudey
p56
I1
sVdont
p57
I1
sVfeel
p58
I1
sVcoked
p59
I1
sVstrap
p60
I1
sVbitch
p61
I1
sVloaded
p62
I1
sVwan
p63
I1
sVbeef
p64
I1
sVspending
p65
I1
sVdiein
p66
I1
sVschoolcraft
p67
I1
sVwaste
p68
I1
sVheh
p69
I1
sVwar
p70
I1
sVlife
p71
I1
sVblaow
p72
I1
sVtrapped
p73
I3
sVhold
p74
I1
sVshoot
p75
I1
sVmade
p76
I1
sVkilpatrick
p77
I1
sVbetchya
p78
I1
sVup
p79
I4
sVn
I3
sViron
p80
I1
sVmaking
p81
I1
sVfeeling
p82
I1
sVdollars
p83
I1
sVsay
p84
I1
sVproof
p85
I4
sVlines
p86
I1
sVmind
p87
I1
sVit
p88
I4
sVcant
p89
I2
sVim
p90
I3
sVrap
p91
I1
sVkeep
p92
I1
sVholla
p93
I1
sVwaisteline
p94
I1
sVd12
p95
I1
sVna
p96
I1
sVpeace
p97
I1
sVtil
p98
I1
sVtake
p99
I2
sV9
I1
sVyou
p100
I1
sVroll
p101
I1
sVhighi
p102
I1
sVnothing
p103
I1
sVnatural
p104
I1
sVproud
p105
I1
sVsnapping
p106
I1
sVgrind
p107
I1
sVtime
p108
I1
s.