(dp1
Vadjective
p2
I1
sVcougars
p3
I1
sVgo
p4
I3
sVpsycho
p5
I1
sVoldest
p6
I1
sVgi
p7
I1
sVimma
p8
I2
sVstable
p9
I1
sVsorry
p10
I1
sVme
p11
I1
sVjerk
p12
I1
sVpuffy
p13
I1
sVrhyme
p14
I2
sVsons
p15
I1
sVevery
p16
I1
sVfall
p17
I1
sVscreaming
p18
I1
sVcondition
p19
I1
sVmilf
p20
I1
sVlevel
p21
I1
sVwhooping
p22
I1
sVprizm
p23
I1
sVtry
p24
I1
sVjoes
p25
I1
sVround
p26
I1
sVdimes
p27
I1
sVwhens
p28
I1
sVmigraines
p29
I1
sVacid
p30
I1
sVblouse
p31
I1
sVgiving
p32
I1
sV18
p33
I1
sVskylar
p34
I1
sVgoes
p35
I2
sVfalling
p36
I1
sVever
p37
I2
sVtold
p38
I1
sVbody
p39
I1
sVdegree
p40
I1
sVrevels
p41
I1
sVmakeup
p42
I1
sVeminem
p43
I1
sVtracks
p44
I1
sVlet
p45
I2
sVpeed
p46
I1
sVvoice
p47
I1
sVflames
p48
I1
sVk
I1
sVleaving
p49
I1
sVbob
p50
I1
sVtheres
p51
I1
sVmakes
p52
I1
sVmotherfucking
p53
I1
sVdick
p54
I2
sVbrought
p55
I1
sVput
p56
I5
sVnames
p57
I1
sVeverybody
p58
I2
sVfed
p59
I1
sVfrom
p60
I1
sVwould
p61
I2
sVhospital
p62
I1
sVtwo
p63
I1
sVoverhead
p64
I1
sVstrike
p65
I1
sVtell
p66
I1
sVwicked
p67
I4
sVmenstrual
p68
I1
sVflat
p69
I1
sVbaby
p70
I1
sVhole
p71
I6
sVfly
p72
I1
sVballs
p73
I1
sVword
p74
I1
sVcatchphrase
p75
I1
sVcar
p76
I1
sVride
p77
I1
sVstroke
p78
I1
sVcontrol
p79
I1
sVheart
p80
I1
sVgive
p81
I1
sVfuck
p82
I2
sVhigh
p83
I1
sVheard
p84
I1
sVvillain
p85
I1
sVsomething
p86
I1
sVdyke
p87
I1
sV1199
p88
I1
sVchevrolet
p89
I1
sVmaestro
p90
I1
sVgaping
p91
I1
sVcadillac
p92
I1
sVtied
p93
I1
sVplane
p94
I1
sVlay
p95
I1
sVcoming
p96
I1
sVsuck
p97
I2
sVguys
p98
I1
sVautograph
p99
I1
sVshort
p100
I1
sVneck
p101
I2
sVharley
p102
I1
sVbaggage
p103
I1
sVso
p104
I1
sVambulance
p105
I1
sVbasket
p106
I1
sVhelp
p107
I1
sVbrain
p108
I1
sVhell
p109
I4
sVstill
p110
I3
sVstyle
p111
I1
sVthank
p112
I1
sVfit
p113
I2
sVmeantime
p114
I1
sVtyler
p115
I1
sVbout
p116
I2
sVdecades
p117
I1
sVthen
p118
I1
sVsomeone
p119
I2
sVcombination
p120
I1
sVentire
p121
I1
sVwoulda
p122
I1
sVspeculate
p123
I1
sVday
p124
I3
sValways
p125
I3
sVrock
p126
I1
sVwent
p127
I1
sVquarter
p128
I1
sVaspergers
p129
I1
sVtrailer
p130
I1
sVmean
p131
I1
sVem
p132
I2
sVheadcase
p133
I1
sVdig
p134
I3
sVthrowin
p135
I1
sVhoes
p136
I1
sVambassadors
p137
I1
sV80
p138
I1
sVleave
p139
I1
sVgon
p140
I2
sVspace
p141
I1
sVbullied
p142
I1
sVsince
p143
I1
sVcyclone
p144
I1
sVgot
p145
I6
sVcause
p146
I6
sVred
p147
I1
sVass
p148
I5
sVshut
p149
I1
sVbully
p150
I2
sVblaring
p151
I1
sVguess
p152
I1
sVcart
p153
I1
sVlike
p154
I11
sVconditioning
p155
I1
sVimagine
p156
I1
sVask
p157
I1
sVcare
p158
I1
sVaisle
p159
I1
sVbackwards
p160
I1
sVcould
p161
I2
sVdays
p162
I1
sVkeep
p163
I1
sVabuse
p164
I1
sVshittin
p165
I1
sVthink
p166
I3
sVfuckin
p167
I1
sVfirst
p168
I1
sVblind
p169
I1
sVindigestion
p170
I1
sVdont
p171
I7
sVslipped
p172
I1
sVecho
p173
I2
sVdone
p174
I3
sVbitch
p175
I1
sVanother
p176
I1
sVfrizzing
p177
I1
sVditch
p178
I1
sVsplattered
p179
I1
sVlittle
p180
I1
sVsilent
p181
I1
sVjet
p182
I1
sVcaught
p183
I1
sVsystem
p184
I1
sVpaint
p185
I1
sVthoughts
p186
I1
sVmama
p187
I1
sVlegs
p188
I1
sVeyes
p189
I1
sVmurder
p190
I1
sVstomach
p191
I1
sVnitro
p192
I1
sVdrapes
p193
I1
sVpark
p194
I1
sVtook
p195
I1
sVdouble
p196
I1
sVgrey
p197
I1
sVbed
p198
I1
sVshes
p199
I1
sVsuggestion\u2019s
p200
I1
sVoutta
p201
I1
sVfights
p202
I1
sVmind
p203
I1
sVsay
p204
I2
sVselling
p205
I1
sVrap
p206
I1
sVneed
p207
I2
sVsaw
p208
I3
sVray
p209
I1
sVmic
p210
I3
sVthat
p211
I1
sVbuild
p212
I1
sVasshole
p213
I1
sVdavidson
p214
I1
sVplay
p215
I1
sVsure
p216
I1
sVpain
p217
I1
sVarguing
p218
I1
sVbuffet
p219
I1
sVbitch\u2019s
p220
I1
sVmouth
p221
I1
sVnothing
p222
I2
sVknee
p223
I1
sVclass
p224
I1
sVwindows
p225
I1
sVproud
p226
I1
sVspectate
p227
I1
sVface
p228
I5
sVcame
p229
I1
sVshop
p230
I1
sVlyrics
p231
I2
sVshow
p232
I2
sVkaopectate
p233
I1
sVfeat
p234
I1
sVground
p235
I2
sVaint
p236
I6
sVgiant
p237
I1
sVjay
p238
I1
sVit\u2019s
p239
I1
sVenough
p240
I1
sVdull
p241
I1
sVgoing
p242
I2
sVsatan
p243
I1
sVhockey
p244
I1
sVmaggots
p245
I1
sVcircle
p246
I1
sVplate
p247
I1
sVget
p248
I10
sVbeat
p249
I2
sVfeels
p250
I1
sVbone
p251
I1
sVwords
p252
I2
sVhim
p253
I1
sVbat
p254
I1
sVashtray
p255
I1
sVcry
p256
I1
sVnaked
p257
I1
sVbad
p258
I1
sVliable
p259
I1
sVx
I1
sVinsane
p260
I1
sVblew
p261
I1
sVart
p262
I1
sVcreator
p263
I1
sVsee
p264
I7
sVare
p265
I1
sVviolet
p266
I1
sVwonder
p267
I1
sVsaid
p268
I1
sVways
p269
I4
sVaway
p270
I2
sVplease
p271
I3
sVstate
p272
I2
sVverbs
p273
I1
sVcut
p274
I1
sVgauntlet
p275
I1
sVcome
p276
I2
sVlyrical
p277
I1
sVpissed
p278
I1
sVtug
p279
I1
sVfaced
p280
I1
sVaccident
p281
I1
sVlast
p282
I1
sVsniff
p283
I1
sVcareer
p284
I1
sVtaking
p285
I1
sVcoz
p286
I1
sVminds
p287
I1
sVflipped
p288
I1
sVbecame
p289
I1
sVwhole
p290
I1
sVsimply
p291
I1
sVdevil
p292
I1
sVlifes
p293
I1
sVraise
p294
I1
sVmuch
p295
I1
sVdon\u2019t
p296
I1
sVempty
p297
I4
sVnickel
p298
I1
sVdeeper
p299
I1
sVgay
p300
I2
sVfire
p301
I1
sVgas
p302
I1
sVpersonally
p303
I1
sVwhilin
p304
I1
sVlauncher
p305
I1
sVstraight
p306
I4
sVair
p307
I1
sVtrick
p308
I1
sVultra
p309
I1
sVcock
p310
I1
sVmistake
p311
I1
sVcane
p312
I1
sVit
p313
I6
sVmiddle
p314
I1
sVcant
p315
I2
sVim
p316
I19
sVimpaled
p317
I1
sVid
p318
I1
sVaches
p319
I1
sVdamaged
p320
I1
sVsashayed
p321
I1
sVmake
p322
I1
sVspiraling
p323
I1
sVread
p324
I1
sVused
p325
I1
sVillest
p326
I1
sVhand
p327
I1
sVrunning
p328
I1
sVwalmart
p329
I1
sVpurpose
p330
I2
sVfucked
p331
I1
sVmentally
p332
I1
sVcycle
p333
I2
sVyoure
p334
I3
sVgame
p335
I2
sVmasochism
p336
I1
sVgates
p337
I1
sVrocket
p338
I1
sVviolent
p339
I1
sVshovel
p340
I1
sVpsych
p341
I1
sVtouch
p342
I1
sVblow
p343
I2
sVloading
p344
I1
sVpile
p345
I2
sVprison
p346
I1
sVsnap
p347
I1
sVapart
p348
I1
sVmatch
p349
I1
sVgave
p350
I1
sVaround
p351
I2
sVi\u2019m
p352
I5
sVbig
p353
I1
sVsuffering
p354
I1
sVspittin
p355
I1
sVknow
p356
I1
sVcape
p357
I1
sVlady
p358
I1
sVoverdosed
p359
I1
sVndamukong
p360
I1
sVmelting
p361
I1
sVairhead
p362
I1
sVmiracle
p363
I1
sVclay
p364
I1
sVeveryone
p365
I1
sVpeople
p366
I1
sVfucking
p367
I4
sVback
p368
I3
sVcompetition
p369
I1
sVhair
p370
I1
sVborn
p371
I1
sVclown
p372
I1
sVescape
p373
I1
sVplayin
p374
I1
sVempire
p375
I1
sVfinna
p376
I1
sVscale
p377
I1
sVbroad
p378
I1
sVmeds
p379
I1
sVpounding
p380
I1
sVverbally
p381
I1
sVpeg
p382
I1
sVknife
p383
I1
sVcan\u2019t
p384
I1
sVripped
p385
I2
sVsmiley
p386
I1
sVnight
p387
I1
sVslaughter
p388
I1
sVeye
p389
I1
sVpeep
p390
I1
sVmotorbike
p391
I1
sVgoods
p392
I1
sVrare
p393
I1
sVgetting
p394
I2
sVgod
p395
I1
sVdrama
p396
I1
sVstand
p397
I1
sVhatred
p398
I1
sVyoud
p399
I1
sVsquare
p400
I1
sVpurplish
p401
I1
sVwan
p402
I2
sVkmart
p403
I1
sVsock
p404
I1
sVfight
p405
I1
sVstuck
p406
I1
sVway
p407
I5
sVhead
p408
I1
sVfricken
p409
I1
sVhi
p410
I1
sVho
p411
I2
sVeat
p412
I2
sVpull
p413
I1
sVskull
p414
I1
sVi\u2019ve
p415
I1
sVwish
p416
I1
sVinside
p417
I1
sVj
I1
sVup
p418
I1
sVbuttfuck
p419
I1
sVfaggot
p420
I2
sVdarker
p421
I1
sVohh
p422
I1
sVsticks
p423
I1
sVam
p424
I1
sVpie
p425
I1
sVan
p426
I1
sVgirl
p427
I1
sVshit
p428
I6
sVno
p429
I1
sVna
p430
I4
sVstorage
p431
I1
sVtil
p432
I3
sVbook
p433
I1
sVsick
p434
I2
sVyou
p435
I1
sVpicture
p436
I1
sVfelt
p437
I1
sVinsults
p438
I1
sVfell
p439
I1
sVstab
p440
I1
sVholes
p441
I1
sVtime
p442
I2
sVserious
p443
I1
sVhello
p444
I1
s.