(dp1
Vnerve
p2
I1
sVohh
p3
I1
sVlyrics
p4
I2
sVpoint
p5
I1
sVyouda
p6
I1
sVpussy
p7
I2
sVbrotha
p8
I2
sVfuck
p9
I1
sVgo
p10
I1
sVsay
p11
I3
sVstovelike
p12
I1
sVbitch
p13
I3
sVanother
p14
I3
sVfacts
p15
I1
sVohhhh
p16
I2
sVshit
p17
I1
sVima
p18
I1
sVthought
p19
I1
sVhoe
p20
I2
sVplayaz
p21
I1
sVcome
p22
I1
sVgive
p23
I1
sVcinema
p24
I1
sVspread
p25
I1
sVmotherfuckin
p26
I2
sVnite
p27
I3
sVhouse
p28
I1
sVtryin
p29
I1
sVever
p30
I1
sVkick
p31
I2
sVrashan
p32
I1
sVass
p33
I4
sVaint
p34
I1
sVevening
p35
I1
sVsaid
p36
I1
sVdo
p37
I1
sVclub
p38
I1
sVbig
p39
I2
sVwatch
p40
I1
sVgahddamnit
p41
I1
sVfat
p42
I1
sVanyway
p43
I1
sVcracks
p44
I1
sVlet
p45
I1
sVknow
p46
I2
sVwasted
p47
I4
sVwith
p48
I1
sVshoulda
p49
I1
sVman
p50
I2
sVgets
p51
I1
sVlike
p52
I1
sVi
I1
sVcould
p53
I1
sVwork
p54
I1
sVwell
p55
I2
sVup
p56
I1
sVleave
p57
I1
sVmovies
p58
I1
sVwithout
p59
I1
sVcommon
p60
I1
sVheyyy
p61
I2
sVwitcha
p62
I1
sVwent
p63
I1
sVthats
p64
I1
s.