(dp1
Vcode
p2
I1
sVtraditions
p3
I1
sVlyrics
p4
I2
sVover
p5
I3
sVbakin
p6
I1
sVgo
p7
I2
sVstill
p8
I1
sVaint
p9
I2
sVsanford
p10
I1
sVberry
p11
I1
sVpolice
p12
I1
sVtv
p13
I1
sVchiropract
p14
I1
sVporches
p15
I1
sVblack
p16
I3
sVrick
p17
I1
sVrich
p18
I2
sVhalftime
p19
I1
sVcareers
p20
I1
sVtake
p21
I2
sVhip
p22
I1
sVme
p23
I2
sVhit
p24
I2
sVget
p25
I3
sVbein
p26
I2
sVstop
p27
I1
sVgame
p28
I1
sVsons
p29
I1
sVbboy
p30
I1
sVknow
p31
I1
sVwords
p32
I1
sVbasement
p33
I1
sVrealize
p34
I1
sVname
p35
I1
sVlike
p36
I4
sVlost
p37
I1
sVmothers
p38
I1
sVjames
p39
I1
sVcutlasses
p40
I1
sVgun
p41
I1
sVleave
p42
I1
sVholdin
p43
I1
sVcommon
p44
I1
sVbecome
p45
I1
sVyall
p46
I2
sVbitch
p47
I2
sVem
p48
I2
sVpeople
p49
I1
sVfathers
p50
I1
sVback
p51
I2
sVsex
p52
I1
sVtires
p53
I1
sVculture
p54
I1
sVstreet
p55
I1
sVdope
p56
I1
sVrun
p57
I1
sVwonder
p58
I1
sVchicagoan
p59
I1
sVchrist
p60
I1
sVspace
p61
I1
sVanthem
p62
I1
sVrims
p63
I1
sVchaos
p64
I1
sVpassion
p65
I1
sVhood
p66
I1
sVsomell
p67
I1
sVconditions
p68
I1
sVima
p69
I1
sVchristian
p70
I1
sVquit
p71
I1
sVnever
p72
I1
sVfree
p73
I1
sVreason
p74
I1
sVwitcha
p75
I1
sVjoe
p76
I1
sVask
p77
I1
sVfaith
p78
I1
sVputtin
p79
I1
sVtapes
p80
I1
sVmany
p81
I2
sVcould
p82
I1
sVscreech
p83
I1
sVtimes
p84
I1
sVmotion
p85
I1
sVturn
p86
I2
sVbecame
p87
I1
sVstand
p88
I1
sVsoda
p89
I1
sVcom
p90
I1
sVthats
p91
I1
sVhustlas
p92
I1
sVretired
p93
I1
sVdont
p94
I2
sVgarbage
p95
I1
sVwhatever
p96
I1
sVson
p97
I1
sVwit
p98
I1
sVmessiahs
p99
I1
sVfake
p100
I1
sVwan
p101
I1
sVpoli
p102
I1
sVsever
p103
I1
sVcity
p104
I11
sVwack
p105
I2
sVtantric
p106
I1
sVchi
p107
I1
sVtired
p108
I1
sVshowin
p109
I1
sVcats
p110
I1
sVpoetrys
p111
I1
sVhollywood
p112
I1
sVman
p113
I1
sVhardly
p114
I1
sVtell
p115
I3
sVtryna
p116
I2
sVgetto
p117
I1
sVspit
p118
I1
sVthat
p119
I1
sVgetcha
p120
I1
sVhalle
p121
I1
sVtook
p122
I1
sVhotta
p123
I1
sVchicity
p124
I2
sVrampant
p125
I1
sV94
p126
I1
sVlistenin
p127
I1
sVdmc
p128
I1
sVrappin
p129
I1
sVmiddle
p130
I1
sVultramagnetic
p131
I1
sVinside
p132
I1
sVcant
p133
I2
sVwar
p134
I1
sVaim
p135
I1
sVbroads
p136
I1
sVremain
p137
I1
sVstories
p138
I2
sVsurprised
p139
I1
sVinvolved
p140
I1
sVdidnt
p141
I1
sVinspired
p142
I1
sVpushin
p143
I1
sVcmon
p144
I2
sVoutta
p145
I1
sVfigure
p146
I1
sVraps
p147
I1
sVslap
p148
I1
sVraw
p149
I1
sVsay
p150
I2
sVim
p151
I6
sVrap
p152
I3
sVneed
p153
I1
sVfame
p154
I1
sVrape
p155
I1
sVsoldier
p156
I1
sVna
p157
I1
sVmake
p158
I1
sVcross
p159
I1
sVgats
p160
I1
sVmakeover
p161
I1
sVfire
p162
I1
sVhot
p163
I1
sVnaw
p164
I1
sVhop
p165
I1
sVyou
p166
I1
sVsurvival
p167
I1
sVdaughters
p168
I1
sVhigher
p169
I1
sVpicture
p170
I1
sVscary
p171
I1
sVunless
p172
I1
sVrappers
p173
I1
sVbeast
p174
I1
sVmuslims
p175
I1
sVsheets
p176
I1
sVgoin
p177
I2
sVforever
p178
I1
sVbreaks
p179
I1
sVlight
p180
I1
sVtogether
p181
I1
sVthought
p182
I1
sVswitch
p183
I1
sVrunnin
p184
I2
sVfact
p185
I1
s.