(dp1
Vthings
p2
I1
sVhampton
p3
I1
sVkick
p4
I1
sVlyrics
p5
I2
sVshow
p6
I1
sVfoods
p7
I1
sVmove
p8
I1
sVrang
p9
I1
sVyears
p10
I1
sVwindy
p11
I1
sVlyric
p12
I1
sVrooms
p13
I2
sVgo
p14
I1
sVcold
p15
I1
sVthicker
p16
I1
sVbunch
p17
I2
sVaint
p18
I5
sVfoxy
p19
I1
sVintersection
p20
I1
sVbased
p21
I1
sVtrue
p22
I1
sVbust
p23
I1
sVcrew
p24
I1
sVbetter
p25
I1
sVlets
p26
I1
sVjam
p27
I1
sVblack
p28
I2
sVniggaz
p29
I5
sVgangsta
p30
I1
sVgreasy
p31
I1
sVme
p32
I1
sVcasually
p33
I1
sVget
p34
I6
sVfood
p35
I2
sVbig
p36
I1
sVhorror
p37
I1
sVstop
p38
I1
sVjuice
p39
I1
sVfeelin
p40
I1
sVwalls
p41
I1
sVlinkin
p42
I1
sVthumpin
p43
I1
sVknow
p44
I3
sVhalf
p45
I1
sVsawed
p46
I1
sVworld
p47
I1
sVtrouble
p48
I1
sVnow
p49
I2
sVbullshit
p50
I1
sVname
p51
I1
sVlike
p52
I11
sVleather
p53
I1
sVbrowns
p54
I1
sVgettin
p55
I1
sVmake
p56
I1
sVus
p57
I1
sVcommon
p58
I1
sVrock
p59
I1
sVsmelly
p60
I1
sVsoft
p61
I1
sVround
p62
I1
sVyall
p63
I1
sVnames
p64
I1
sVwaitin
p65
I1
sVbrews
p66
I1
sVmental
p67
I1
sVhouse
p68
I1
sVliquor
p69
I1
sVhim
p70
I1
sVsex
p71
I1
sVsee
p72
I1
sVstreet
p73
I1
sVelection
p74
I1
sVyear
p75
I1
sVclose
p76
I1
sVgirl
p77
I1
sVemptiness
p78
I1
sVclick
p79
I1
sVlee
p80
I1
sVmajors
p81
I1
sVgon
p82
I2
sVchicago
p83
I1
sVsorta
p84
I1
sVsun
p85
I1
sVwines
p86
I1
sVmoon
p87
I1
sVvarious
p88
I1
sVplaya
p89
I1
sVmoons
p90
I1
sVgot
p91
I5
sVfall
p92
I2
sVground
p93
I1
sVwillie
p94
I1
sVteachers
p95
I1
sVunruly
p96
I1
sVass
p97
I1
sVfull
p98
I1
sVbass
p99
I1
sVshit
p100
I2
sVwan
p101
I5
sVaquarius
p102
I1
sVwack
p103
I1
sVfree
p104
I1
sVfred
p105
I1
sVwater
p106
I1
sVprotection
p107
I1
sVcome
p108
I7
sVinterpret
p109
I1
sVwait
p110
I1
sVreact
p111
I1
sVjackin
p112
I1
sVmidi
p113
I1
sVspilled
p114
I1
sVplace
p115
I1
sVstand
p116
I1
sVyou
p117
I1
sVastrologists
p118
I1
sVaura
p119
I1
sVmakes
p120
I1
sVblock
p121
I2
sVthats
p122
I1
sVladies
p123
I1
sVdont
p124
I2
sVpoint
p125
I1
sVfeel
p126
I3
sVcrib
p127
I3
sVone
p128
I1
sVpop
p129
I1
sVshout
p130
I4
sVsimply
p131
I1
sVlikes
p132
I1
sVwrinklin
p133
I1
sVcarry
p134
I1
sVcity
p135
I1
sVstory
p136
I1
sVsweater
p137
I1
sVtwo
p138
I1
sVlong
p139
I1
sVplayer
p140
I1
sVstart
p141
I1
sVcats
p142
I1
sVmusic
p143
I1
sVchange
p144
I1
sVway
p145
I1
sVcolder
p146
I1
sVscope
p147
I1
sVfeather
p148
I1
sVmora
p149
I1
sVtell
p150
I2
sVdoor
p151
I1
sVlot
p152
I1
sVgirlwanna
p153
I1
sVfly
p154
I1
sVlampin
p155
I1
sVmics
p156
I1
sVfuck
p157
I1
sVbrothas
p158
I1
sVgarages
p159
I1
sVlift
p160
I1
sVstick
p161
I1
sVbaby
p162
I1
sVbelieve
p163
I1
sVspin
p164
I1
sVfunk
p165
I5
sVposted
p166
I1
sVtown
p167
I1
sVmade
p168
I2
sVrotation
p169
I1
sVdusted
p170
I1
sVdikes
p171
I2
sVcar
p172
I1
sVstations
p173
I1
sVtree
p174
I1
sVsay
p175
I2
sVrhymes
p176
I1
sVwar
p177
I1
sVpace
p178
I1
sVr
I1
sVuh
p179
I1
sVmaybe
p180
I1
sVfulfill
p181
I1
sVcock
p182
I1
sVspotlight
p183
I1
sVtastes
p184
I1
sVmanlet
p185
I1
sVclaim
p186
I1
sVbathrooms
p187
I1
sVwant
p188
I1
sVspikeuh
p189
I1
sVplayed
p190
I1
sVis
p191
I1
sVmind
p192
I1
sVit
p193
I3
sVhigh
p194
I2
sVraw
p195
I1
sVcant
p196
I1
sVim
p197
I2
sVrap
p198
I3
sVneed
p199
I1
sVsounding
p200
I1
sVborder
p201
I1
sVcheck
p202
I5
sVwhore
p203
I1
sVintellect
p204
I1
sVend
p205
I1
sVyo
p206
I16
sVpatent
p207
I1
sVna
p208
I6
sVmic
p209
I2
sVreality
p210
I1
sVwrite
p211
I1
sVread
p212
I1
sVhot
p213
I1
sVtake
p214
I1
sVcorridor
p215
I1
sVunderground
p216
I1
sVgames
p217
I1
sVgrips
p218
I3
sViceman
p219
I1
sVprophesies
p220
I1
sVusers
p221
I1
sVdrives
p222
I1
sVrain
p223
I1
sVstay
p224
I1
sVwalk
p225
I1
sVstars
p226
I1
sVrudy
p227
I1
sVpager
p228
I1
sVtune
p229
I1
sVman
p230
I1
sVjones
p231
I1
sVglamour
p232
I1
sVlane
p233
I1
sVoff
p234
I2
sVlight
p235
I1
sVage
p236
I1
sVyoure
p237
I2
sVlines
p238
I1
sVhaul
p239
I1
sVface
p240
I2
sVtimb
p241
I1
sVdoused
p242
I1
sVcorey
p243
I1
sVtech
p244
I1
sVcame
p245
I3
sVallow
p246
I1
sVtime
p247
I2
sVkelly
p248
I1
sVevery
p249
I2
sVscream
p250
I1
sVtalk
p251
I1
s.