(dp1
Vscrolls
p2
I1
sVsubconciously
p3
I1
sVlyrics
p4
I2
sVshow
p5
I1
sVbrotha
p6
I1
sVinsight
p7
I1
sVzen
p8
I1
sVanyway
p9
I1
sVactions
p10
I1
sVleads
p11
I1
sVmisuse
p12
I1
sVhappybein
p13
I1
sVown
p14
I3
sVskim
p15
I1
sVadvice
p16
I1
sVfollow
p17
I1
sVfear
p18
I1
sVstill
p19
I2
sVfeat
p20
I1
sVfind
p21
I3
sVhappiness
p22
I1
sVmake
p23
I3
sVaint
p24
I5
sV25
p25
I1
sVtrying
p26
I1
sVknowledge
p27
I1
sVblowin
p28
I1
sVpray
p29
I1
sVwith
p30
I1
sVcuz
p31
I3
sVbust
p32
I1
sVto
p33
I2
sVignorance
p34
I1
sVblack
p35
I3
sVchoose
p36
I1
sVrhythm
p37
I1
sVfolks
p38
I1
sVenslave
p39
I3
sVbout
p40
I1
sVsave
p41
I3
sVsearched
p42
I1
sVsure
p43
I2
sVta
p44
I1
sVfool
p45
I1
sVdo
p46
I2
sVworse
p47
I1
sVyo
p48
I1
sVget
p49
I3
sVread
p50
I2
sVelders
p51
I1
sVbein
p52
I5
sVschool
p53
I1
sVones
p54
I2
sVknow
p55
I7
sVoverstand
p56
I1
sV24
p57
I1
sVwhyre
p58
I1
sVworld
p59
I1
sVbrothers
p60
I1
sVjesus
p61
I3
sVkilled
p62
I1
sVlike
p63
I3
sVearn
p64
I1
sVname
p65
I1
sVgift
p66
I1
sVceelo
p67
I3
sVdie
p68
I1
sVgettin
p69
I1
sVtry
p70
I2
sVcommon
p71
I1
sVtruth
p72
I1
sVdealt
p73
I1
sVfound
p74
I2
sVseeds
p75
I1
sVrich
p76
I1
sVside
p77
I1
sVsown
p78
I1
sVem
p79
I4
sVspiritual
p80
I1
sVright
p81
I5
sVdeal
p82
I1
sVdevils
p83
I2
sVallah
p84
I1
sVlonchickalonnie
p85
I1
sVdiscover
p86
I1
sVcall
p87
I1
sVself
p88
I1
sVtrumpets
p89
I1
sVsee
p90
I1
sVbooks
p91
I1
sVgave
p92
I1
sVpositivity
p93
I1
sVhome
p94
I2
sVgirl
p95
I1
sVdivine
p96
I1
sVobsession
p97
I1
sVlesson
p98
I1
sVfolk
p99
I1
sVconcern
p100
I1
sVheartache
p101
I1
sVchorus
p102
I1
sVgon
p103
I6
sVgod
p104
I8
sVcried
p105
I2
sVinnocence
p106
I1
sVreligion
p107
I2
sVvenom
p108
I1
sVhealth
p109
I1
sVforgiven
p110
I1
sVgot
p111
I4
sVlearned
p112
I2
sVseemed
p113
I1
sVcorrect
p114
I1
sVmath
p115
I1
sVtold
p116
I1
sVlessons
p117
I1
sVfelt
p118
I1
sVbelief
p119
I2
sVwan
p120
I3
sVjoy
p121
I2
sVgiven
p122
I2
sVunderstanding
p123
I1
sVlet
p124
I3
sVtaught
p125
I1
sVothers
p126
I1
sVstem
p127
I1
sVcome
p128
I1
sVthrone
p129
I1
sVboy
p130
I1
sVsearch
p131
I1
sVbible
p132
I2
sVhard
p133
I1
sVwasnt
p134
I1
sVmany
p135
I1
sVam
p136
I1
sVearned
p137
I2
sVchance
p138
I1
sVexperience
p139
I1
sVbecame
p140
I2
sVplace
p141
I2
sVforgotten
p142
I1
sVsurely
p143
I1
sVshare
p144
I1
sVtheres
p145
I2
sVthats
p146
I3
sVblind
p147
I1
sVand
p148
I1
sVhold
p149
I1
sVwhats
p150
I2
sVdont
p151
I4
sVlied
p152
I1
sVive
p153
I9
sVcolor
p154
I1
sVwithin
p155
I1
sVonly
p156
I1
sVone
p157
I4
sVna
p158
I5
sVhustlin
p159
I1
sVfollowin
p160
I1
sVdone
p161
I1
sVworldly
p162
I1
sVchurch
p163
I1
sVring
p164
I1
sVspeak
p165
I1
sVpouring
p166
I1
sVlittle
p167
I2
sVdevil
p168
I2
sVfailed
p169
I2
sVpeople
p170
I2
sVfinally
p171
I1
sVlong
p172
I1
sVfight
p173
I1
sVbreath
p174
I1
sVstart
p175
I2
sVdoubt
p176
I1
sVmaster
p177
I1
sVdidnt
p178
I1
sVway
p179
I2
sVrealization
p180
I1
sVtaken
p181
I2
sVsurvive
p182
I1
sVwhite
p183
I5
sVpurposely
p184
I1
sVhappy
p185
I1
sVpossession
p186
I1
sVlife
p187
I1
sVlived
p188
I2
sVemblem
p189
I1
sVknows
p190
I1
sVdefinition
p191
I2
sVstarted
p192
I2
sVhum
p193
I1
sVsunshine
p194
I2
sVtook
p195
I1
sVbut
p196
I1
sVwisdom
p197
I1
sVboys
p198
I1
sVstufftryin
p199
I1
sVunderstand
p200
I1
sVchild
p201
I1
sVbaby
p202
I2
sVnatural
p203
I1
sVbelieve
p204
I1
sVpain
p205
I2
sVhidden
p206
I1
sVnegativity
p207
I1
sVgranted
p208
I1
sVme
p209
I3
sVlynn
p210
I1
sVevil
p211
I3
sVniggas
p212
I1
sVcatechism
p213
I1
sVisraelites
p214
I1
sVbloodline
p215
I1
sVwhether
p216
I1
sVscience
p217
I1
sVmeans
p218
I1
sVcreated
p219
I1
sVcant
p220
I2
sVrhymes
p221
I1
sVimperfection
p222
I1
sVconvince
p223
I1
sVlearn
p224
I1
sVvoice
p225
I1
sVroot
p226
I1
sVage
p227
I1
sVhistory
p228
I2
sVtrim
p229
I1
sVgone
p230
I1
sVsupreme
p231
I1
sVplayed
p232
I1
sValmost
p233
I1
sVuniversal
p234
I1
sVmind
p235
I3
sVit
p236
I1
sVfellow
p237
I1
sVsay
p238
I3
sVim
p239
I1
sVsurround
p240
I1
sVhebrew
p241
I1
sVmoves
p242
I1
sVelder
p243
I1
sVcheck
p244
I1
sVgrown
p245
I1
sVdifferent
p246
I1
sVeducation
p247
I1
sVthings
p248
I1
sVthinkin
p249
I2
sVseeking
p250
I1
sVtakin
p251
I1
sVevidently
p252
I1
sVwrite
p253
I1
sVfar
p254
I1
sVvital
p255
I1
sVlaughed
p256
I2
sVanswer
p257
I1
sVyou
p258
I3
sVsurvival
p259
I1
sVgaining
p260
I2
sVtowards
p261
I1
sVslave
p262
I1
sVtried
p263
I3
sVdamn
p264
I1
sVdoin
p265
I1
sVuse
p266
I1
sVdisagree
p267
I1
sV144000
p268
I3
sVrain
p269
I3
sVrehearsal
p270
I1
sVwrong
p271
I1
sVjourney
p272
I1
sVstreets
p273
I1
sVplan
p274
I1
sVcuriosity
p275
I1
sVclue
p276
I1
sVwhy
p277
I1
sVmentally
p278
I3
sVman
p279
I3
sVknown
p280
I1
sVsomethin
p281
I1
sVrefuse
p282
I1
sVbranches
p283
I1
sVlight
p284
I1
sVclear
p285
I1
sVwell
p286
I2
sVspent
p287
I1
sVimpressionable
p288
I1
sVkoran
p289
I2
sVwithout
p290
I1
sVpourin
p291
I1
sVrelief
p292
I1
sVtime
p293
I4
sVbecome
p294
I1
sVtitle
p295
I1
sVfirst
p296
I1
sVtao
p297
I1
sVbegan
p298
I3
s.