(dp1
Vgates
p2
I1
sVstandin
p3
I1
sVsince
p4
I1
sVshot
p5
I1
sVhelp
p6
I4
sVlyrics
p7
I2
sVshow
p8
I1
sVmoney
p9
I1
sVlifeless
p10
I1
sVcheap
p11
I1
sVahbracadabra
p12
I1
sVahhhahhahhahahahhhhh
p13
I5
sVjimmy
p14
I1
sVsinnin
p15
I1
sVyakub
p16
I1
sVyes
p17
I5
sVstill
p18
I1
sVfeat
p19
I1
sVaint
p20
I6
sVlit
p21
I1
sVhold
p22
I1
sVgivin
p23
I3
sVinternationally
p24
I1
sVjay
p25
I1
sVchosen
p26
I1
sVsynagogues
p27
I1
sVfather
p28
I3
sVday
p29
I1
sVhurtin
p30
I1
sVsoles
p31
I1
sVverbs
p32
I1
sVsatan
p33
I2
sVchoose
p34
I1
sVlord
p35
I6
sVfollowin
p36
I1
sVsave
p37
I1
sVeaster
p38
I1
sVworth
p39
I1
sVhope
p40
I1
sVta
p41
I1
sVkingdom
p42
I9
sVplate
p43
I1
sVgood
p44
I1
sVhit
p45
I1
sVlivin
p46
I1
sVdegrassi
p47
I1
sVget
p48
I12
sVdollar
p49
I1
sVsittin
p50
I1
sVwatch
p51
I1
sVstripes
p52
I1
sVmacgyver
p53
I1
sVquest
p54
I1
sVworst
p55
I1
sVknow
p56
I3
sVwords
p57
I1
sVfam
p58
I1
sVtrust
p59
I1
sVdocumented
p60
I1
sVjesus
p61
I1
sVbarefaced
p62
I1
sVhim
p63
I2
sVchristless
p64
I1
sVstaples
p65
I1
sVheaven
p66
I2
sVinstead
p67
I1
sVlike
p68
I4
sVakbar
p69
I1
sVever
p70
I1
sVgettin
p71
I1
sVleave
p72
I1
sVcommon
p73
I2
sVpolices
p74
I1
sVlose
p75
I1
sVmarinating
p76
I1
sVpromise
p77
I1
sVround
p78
I1
sVpreach
p79
I1
sVem
p80
I1
sVnigga
p81
I3
sVengland
p82
I1
sVlaugh
p83
I1
sVpeople
p84
I4
sVseas
p85
I1
sVstreets
p86
I6
sVback
p87
I2
sValive
p88
I1
sVunderstood
p89
I1
sVsee
p90
I5
sVstreet
p91
I1
sVus
p92
I1
sVslandered
p93
I1
sVnews
p94
I2
sVgiza
p95
I1
sVedibles
p96
I1
sVbest
p97
I1
sVreally
p98
I5
sVsaid
p99
I2
sVchrist
p100
I1
sVchicago
p101
I1
sVelectronica
p102
I1
sVgod
p103
I3
sVviews
p104
I1
sVdirt
p105
I1
sVlean
p106
I1
sVrevolver
p107
I1
sVthongs
p108
I1
sVunforgettable
p109
I1
sVshipment
p110
I1
sVforgiven
p111
I1
sVgot
p112
I4
sVpistol
p113
I1
sVcause
p114
I3
sVdice
p115
I1
sVblurry
p116
I1
sVtold
p117
I1
sVrappers
p118
I1
sVbombs
p119
I1
sVoooooooooooooooooooooooooooooooooooooooh
p120
I4
sVnever
p121
I1
sVmotherfucker
p122
I1
sVfree
p123
I1
sVwater
p124
I2
sVlet
p125
I1
sVhere
p126
I2
sVkey
p127
I1
sValone
p128
I1
sVsing
p129
I1
sVstay
p130
I1
sVcome
p131
I2
sVwait
p132
I1
sVnat
p133
I1
sVlast
p134
I1
sVcreated
p135
I1
sVwhatevers
p136
I1
sVmotherfuckers
p137
I1
sVdays
p138
I1
sVbow
p139
I1
sVthing
p140
I1
sVeatin
p141
I1
sVabuse
p142
I1
sVprodigal
p143
I1
sVyouve
p144
I1
sVchiraq
p145
I1
sVpuff
p146
I1
sVisa
p147
I1
sVspices
p148
I1
sVwhole
p149
I1
sVswallowin
p150
I1
sVfirst
p151
I1
sVown
p152
I1
sVwhats
p153
I1
sVdont
p154
I2
sVkeeps
p155
I1
sVsweet
p156
I1
sVson
p157
I3
sVfeet
p158
I1
sVkeeper
p159
I1
sVmomma
p160
I2
sVdone
p161
I1
sVanother
p162
I1
sVcomin
p163
I1
sVwadin
p164
I1
sVcouldnt
p165
I3
sVcocaine
p166
I1
sVestablish
p167
I1
sVether
p168
I1
sVblunts
p169
I1
sVjews
p170
I1
sVwan
p171
I2
sVuse
p172
I1
sVthough
p173
I1
sVhearse
p174
I1
sVdevils
p175
I1
sVleast
p176
I1
sVhollows
p177
I1
sVbirth
p178
I1
sVblasphemy
p179
I1
sVway
p180
I1
sVblack
p181
I1
sVtell
p182
I2
sVnaturally
p183
I1
sVbreathe
p184
I1
sVtryna
p185
I3
sVlife
p186
I4
sVallah
p187
I1
sVname
p188
I1
sVstarted
p189
I2
sVvince
p190
I1
sVtook
p191
I1
sVyeah
p192
I2
sVphone
p193
I1
sVbaby
p194
I1
sVbelieve
p195
I1
sVeat
p196
I2
sVgoes
p197
I1
sVme
p198
I2
sVking
p199
I2
sVgrew
p200
I1
sVibetha
p201
I1
sVstraight
p202
I2
sVwork
p203
I1
sVcash
p204
I1
sVniggaz
p205
I5
sVprayin
p206
I1
sVdroppin
p207
I1
sVplanes
p208
I1
sV7s
p209
I1
sVgave
p210
I2
sVill
p211
I1
sVwakin
p212
I1
sVcontrol
p213
I1
sVive
p214
I1
sVohh
p215
I5
sVconfused
p216
I1
sVgunned
p217
I1
sVsay
p218
I9
sVseed
p219
I1
sVim
p220
I3
sVwant
p221
I2
sVin
p222
I2
sVneed
p223
I1
sVhandle
p224
I1
sVpedestal
p225
I1
sVmade
p226
I1
sVblues
p227
I2
sVworry
p228
I1
sVcondemn
p229
I1
sVafraid
p230
I1
sVtheyll
p231
I1
sVdisrespectful
p232
I1
sVincredible
p233
I1
sVthings
p234
I2
sVmake
p235
I1
sVsix
p236
I1
sVsniffin
p237
I1
sVtil
p238
I1
sVnas
p239
I1
sVtake
p240
I1
sVhop
p241
I1
sVgate
p242
I1
sVtoddler
p243
I1
sVroll
p244
I2
sVabused
p245
I1
sVplay
p246
I2
sVused
p247
I4
sVbrothers
p248
I1
sVshall
p249
I1
sVkeys
p250
I7
sVbroad
p251
I1
sVpyramids
p252
I1
sVtime
p253
I1
sVpeace
p254
I1
sVserenading
p255
I1
sVpoppin
p256
I1
sVwalk
p257
I1
sVwasn\u2019t
p258
I1
sVgon
p259
I1
sVbullets
p260
I1
sVkinda
p261
I1
sVpriceless
p262
I1
sVdust
p263
I1
sVkeep
p264
I1
sVremix
p265
I2
sVthy
p266
I1
sVclear
p267
I1
sVbottom
p268
I1
sVlines
p269
I1
sVthink
p270
I1
sVways
p271
I1
sVu
I1
sVna
p272
I2
sVpush
p273
I1
sVevery
p274
I1
sVthats
p275
I2
sVoriginal
p276
I1
sVtalk
p277
I1
s.