(dp1
Vmandible
p2
I1
sVcatch
p3
I3
sVgang
p4
I1
sVbattle
p5
I2
sVchillin
p6
I1
sVsupposedly
p7
I1
sVsend
p8
I1
sVrhythm
p9
I2
sVfar
p10
I1
sVrhyme
p11
I1
sVworst
p12
I6
sVfall
p13
I1
sVfag
p14
I1
sVtear
p15
I1
sVf
I1
sVt2
p16
I1
sVtry
p17
I1
sVstartin
p18
I1
sVteam
p19
I1
sVspeculation
p20
I1
sVmount
p21
I1
sVyall
p22
I6
sVgo
p23
I1
sVcharted
p24
I1
sVcactus
p25
I1
sVclick
p26
I2
sVwhat
p27
I1
sVsun
p28
I1
sVpoisonous
p29
I1
sVdegree
p30
I1
sVblunted
p31
I1
sVlet
p32
I1
sVcab
p33
I1
sVverbalist
p34
I1
sVauction
p35
I1
sVdru
p36
I1
sVdefeat
p37
I1
sVmakes
p38
I1
sVmassage
p39
I1
sVthats
p40
I4
sVmelodyto
p41
I1
sVlatifah
p42
I1
sVcounty
p43
I1
sVwit
p44
I1
sVduck
p45
I3
sVglance
p46
I1
sVtroops
p47
I1
sVworking
p48
I1
sVchi
p49
I1
sVcall
p50
I1
sVtaken
p51
I1
sVblack
p52
I1
sVtryin
p53
I1
sVtype
p54
I1
sVtell
p55
I1
sVhumbleness
p56
I1
sVaware
p57
I3
sVlanded
p58
I1
sVknown
p59
I1
sVhold
p60
I2
sVme
p61
I3
sVbiten
p62
I1
sVmc
p63
I3
sVniggas
p64
I1
sVthis
p65
I1
sVniggaz
p66
I13
sVmaking
p67
I2
sVsucka
p68
I3
sVhip
p69
I1
sVgive
p70
I1
sVfuck
p71
I4
sVhigh
p72
I1
sVheard
p73
I1
sVwant
p74
I1
sVsense
p75
I4
sVxorcisim
p76
I1
sVsharp
p77
I1
sVshorties
p78
I1
sVtravel
p79
I1
sVdamage
p80
I1
sVwrite
p81
I2
sVanimal
p82
I1
sVlab
p83
I1
sVmad
p84
I2
sVnumb
p85
I1
sVmarrow
p86
I1
sVman
p87
I1
sVdrop
p88
I1
sVliquid
p89
I1
sVlines
p90
I1
sVultimate
p91
I1
sVgranted
p92
I1
sVchicks
p93
I1
sVsweatin
p94
I1
sVradiations
p95
I1
sVseeing
p96
I1
sVmove
p97
I1
sVfeature
p98
I1
sVsigns
p99
I1
sVcold
p100
I1
sVstill
p101
I2
sVrallyin
p102
I1
sVdont
p103
I2
sVima
p104
I1
sVstyle
p105
I1
sVcreatin
p106
I1
sVbout
p107
I1
sVmain
p108
I1
sVcrowds
p109
I1
sVhop
p110
I1
sVyo
p111
I3
sVweakness
p112
I1
sVdowns
p113
I1
sVwickeder
p114
I1
sVshadows
p115
I1
sVname
p116
I14
sVartist
p117
I1
sVfairs
p118
I1
sVashes
p119
I1
sVpools
p120
I1
sVbone
p121
I1
sVem
p122
I4
sVanother
p123
I3
sVhouse
p124
I1
sVallah
p125
I1
sVyeah
p126
I2
sVliving
p127
I1
sVbag
p128
I1
sVsince
p129
I2
sVsquared
p130
I6
sVvenom
p131
I1
sVinternet
p132
I1
sVgot
p133
I3
sVass
p134
I5
sVmechanisms
p135
I1
sVput
p136
I1
sVcoldblooded
p137
I1
sVcould
p138
I1
sVtransition
p139
I1
sVmotion
p140
I1
sVturn
p141
I1
sVchicken
p142
I1
sVthreat
p143
I1
sVknots
p144
I1
sVthere
p145
I3
sVturan
p146
I1
sVone
p147
I2
sVbitch
p148
I2
sVsacs
p149
I1
sVcomin
p150
I2
sVsuck
p151
I1
sVgiven
p152
I1
sVwrath
p153
I1
sVaccent
p154
I1
sV2
I1
sVstatement
p155
I1
sVmerciless
p156
I1
sVhug
p157
I1
sVwisdom
p158
I1
sVcameoed
p159
I1
sVcops
p160
I1
sVpart
p161
I1
sVbodyguard
p162
I1
sVdouble
p163
I3
sVsee
p164
I2
sVseminars
p165
I1
sVsteppin
p166
I2
sVprospect
p167
I1
sVmurder
p168
I1
sVrap
p169
I2
sVneed
p170
I1
sVsaw
p171
I1
sVcatholic
p172
I1
sVbastard
p173
I1
sVexposin
p174
I1
sVmic
p175
I1
sVuncalled
p176
I1
sVchest
p177
I1
sVtake
p178
I1
sVsingles
p179
I2
sVintentions
p180
I1
sVsheets
p181
I1
sVservices
p182
I1
sVface
p183
I1
sVmechanical
p184
I1
sVdot
p185
I2
sVlyrics
p186
I4
sVhamlet
p187
I1
sVbring
p188
I1
sVearth
p189
I1
sVfear
p190
I6
sVfeat
p191
I1
sVfind
p192
I1
sVmake
p193
I6
sVaint
p194
I4
sVsayin
p195
I2
sVspite
p196
I1
sVgoing
p197
I2
sVsatan
p198
I1
sVunravel
p199
I1
sVtestin
p200
I1
sVcanibus
p201
I7
sVhit
p202
I2
sVget
p203
I9
sVstop
p204
I1
sVbear
p205
I1
sVwords
p206
I1
sVhim
p207
I2
sValuminum
p208
I1
sVrhymin
p209
I1
sVrapper
p210
I1
sVnaked
p211
I1
sVtwice
p212
I1
sVbad
p213
I1
sVdiggin
p214
I1
sVcommon
p215
I3
sVliable
p216
I1
sVgrab
p217
I1
sVperipheral
p218
I1
sVreefer
p219
I1
sVinsuperior
p220
I1
sVare
p221
I1
sVcorrupt
p222
I1
sVkinetic
p223
I1
sVstance
p224
I1
sVpictures
p225
I1
sVnightmare
p226
I6
sVenough
p227
I1
sVsupernatural
p228
I1
sVpterodactyls
p229
I1
sVcaves
p230
I1
sV360
p231
I1
sVperfect
p232
I1
sVlyrical
p233
I2
sVcircumference
p234
I1
sVlast
p235
I1
sVcareer
p236
I1
sVill
p237
I4
sVplayers
p238
I1
sVcom
p239
I5
sVmalcolm
p240
I1
sVwalk
p241
I1
sVlaugh
p242
I1
sVchurch
p243
I1
sVthree
p244
I1
sVwhos
p245
I1
sVlife
p246
I1
sVsenses
p247
I1
sVgay
p248
I1
sVfours
p249
I1
sVgas
p250
I1
sVcdrom
p251
I1
sVmcs
p252
I2
sVsound
p253
I1
sVdissect
p254
I1
sVrhymes
p255
I1
sVair
p256
I1
sVstalin
p257
I1
sVteachers
p258
I1
sVcracked
p259
I1
sVplayed
p260
I1
sVcant
p261
I1
sVim
p262
I13
sVhearted
p263
I1
sVave
p264
I1
sVthinkin
p265
I1
sVbelong
p266
I1
sVtakin
p267
I1
sVpoetrys
p268
I1
sVcontaminate
p269
I1
sVputtin
p270
I1
sVneutron
p271
I1
sVmoose
p272
I1
sVbeast
p273
I1
sVrakim
p274
I1
sVtraps
p275
I1
sVphat
p276
I1
sVnothin
p277
I1
sVbboy
p278
I1
sVmingle
p279
I1
sVsentence
p280
I1
sVverses
p281
I2
sVkill
p282
I1
sVtouch
p283
I2
sVflavor
p284
I1
sVblow
p285
I1
sVcuz
p286
I1
sVmathematically
p287
I3
sVsource
p288
I2
sVbelongs
p289
I1
sVsnap
p290
I1
sVeast
p291
I1
sVgave
p292
I1
sVstyles
p293
I1
sVwont
p294
I1
sVbig
p295
I1
sVbid
p296
I1
sVcrushed
p297
I1
sVspittin
p298
I1
sVknow
p299
I3
sVadvanced
p300
I1
sVfossils
p301
I1
sVlike
p302
I18
sVsignal
p303
I1
sVpage
p304
I1
sVwww
p305
I1
sVnigga
p306
I1
sVverbal
p307
I1
sVpeople
p308
I1
sVscared
p309
I7
sVhair
p310
I1
sVpersue
p311
I1
sVhome
p312
I1
sVourselves
p313
I1
sVfor
p314
I1
sVrun
p315
I1
sVdunkin
p316
I1
sVbroken
p317
I1
sVthrow
p318
I1
sVtheirs
p319
I1
sVbumbleless
p320
I1
sVswear
p321
I1
sVstand
p322
I1
sVbarrels
p323
I1
sVformerly
p324
I1
sVjingles
p325
I1
sVstrip
p326
I1
sVcouldnt
p327
I3
sVwan
p328
I2
sVwack
p329
I1
sVherbalist
p330
I1
sVapartments
p331
I1
sVlong
p332
I1
sVfight
p333
I1
sVjoseph
p334
I1
sVworshippers
p335
I1
sVway
p336
I1
sVmusic
p337
I2
sVhard
p338
I2
sVrelaxed
p339
I1
sVmics
p340
I2
sVamongst
p341
I1
sVshroud
p342
I1
sVunderstandable
p343
I1
sVwith
p344
I2
sVmade
p345
I4
sVtactics
p346
I1
sVwhether
p347
I1
sVcnote
p348
I1
sVrecord
p349
I1
sVcertain
p350
I1
sVshoulders
p351
I1
sVbeats
p352
I1
sVshit
p353
I4
sVna
p354
I2
sV40
p355
I1
sVpreachers
p356
I1
sVyou
p357
I2
sVtrash
p358
I2
sVtalkin
p359
I2
sVnice
p360
I1
sVhammerhead
p361
I1
sVstar
p362
I1
sVstay
p363
I1
sVdrag
p364
I1
sVweaponry
p365
I1
sVbullets
p366
I1
sVslang
p367
I1
sVremix
p368
I1
sVfaster
p369
I1
sValgorithm
p370
I1
sVvisual
p371
I1
sVtogether
p372
I1
sVcompete
p373
I1
sVcame
p374
I1
sVtime
p375
I2
s.