(dp1
Vlyrics
p2
I2
sVless
p3
I1
sVinstincts
p4
I1
sVsouls
p5
I1
sVpops
p6
I2
sVbring
p7
I1
sVexistence
p8
I1
sVrow
p9
I1
sVsaviour
p10
I1
sVthank
p11
I1
sVtimetraveling
p12
I1
sVprophets
p13
I1
sVblack
p14
I1
sVmust
p15
I1
sVhumanity
p16
I1
sVgood
p17
I1
sVaround
p18
I1
sVsitting
p19
I1
sVya
p20
I2
sVstop
p21
I1
sVmention
p22
I1
sVevery
p23
I1
sVfront
p24
I1
sVbit
p25
I1
sVdr
p26
I1
sVstepped
p27
I1
sVdreams
p28
I7
sVmarcus
p29
I1
sVearn
p30
I1
sVcommon
p31
I1
sVtruth
p32
I2
sVtribes
p33
I1
sVpeople
p34
I1
sVfathers
p35
I1
sVcreation
p36
I1
sVyeah
p37
I3
sVborn
p38
I1
sVsee
p39
I1
sVus
p40
I1
sVlynchn
p41
I1
sVgod
p42
I3
sVgarvey
p43
I1
sVice
p44
I1
sVcrispus
p45
I1
sVcaves
p46
I1
sVwillie
p47
I1
sVacross
p48
I1
sVbelief
p49
I4
sVpower
p50
I1
sVmr
p51
I1
sVnightmares
p52
I1
sVkicking
p53
I1
sVseparation
p54
I1
sVbecome
p55
I1
sVbeginning
p56
I2
sVon
p57
I1
sVsearch
p58
I1
sVkids
p59
I1
sVuniverse
p60
I1
sVdedicate
p61
I1
sVturn
p62
I1
sVamerican
p63
I2
sVblessings
p64
I1
sVfirst
p65
I1
sVown
p66
I1
sVsweet
p67
I1
sVone
p68
I2
sVthroughout
p69
I1
sVlittle
p70
I1
sVwould
p71
I2
sVsake
p72
I1
sVcome
p73
I2
sVtwo
p74
I1
sVlong
p75
I1
sVnext
p76
I1
sVlive
p77
I3
sVmuch
p78
I1
sVwellwishes
p79
I1
sVlife
p80
I3
sVbecomes
p81
I2
sVblessing
p82
I1
sVhuh
p83
I1
sVbelieve
p84
I10
sVtrue
p85
I1
sVspirit
p86
I1
sVpresent
p87
I1
sVcircumstances
p88
I1
sVeden
p89
I1
sVbeliever
p90
I2
sVrecord
p91
I1
sVuh
p92
I1
sVof
p93
I1
sVsteer
p94
I1
sVoutstanding
p95
I1
sVuniversal
p96
I1
sVmine
p97
I1
sVtonight
p98
I1
sVunwritten
p99
I1
sVsomething
p100
I1
sVwant
p101
I1
sVlifetime
p102
I1
sVgarden
p103
I1
sVancestors
p104
I2
sVmic
p105
I1
sVgentlemen
p106
I1
sVother
p107
I1
sVmysteries
p108
I1
sVtruthful
p109
I2
sVeverybodys
p110
I1
sVoffsprings
p111
I1
sVmarches
p112
I1
sVearthly
p113
I1
sVtranscending
p114
I1
sVdesert
p115
I1
sVdream
p116
I3
sVinherit
p117
I1
sVthought
p118
I1
sVallow
p119
I1
sVattucks
p120
I1
sVgranted
p121
I1
sVlaws
p122
I1
s.