(dp1
Vbomb
p2
I1
sVlegendary
p3
I1
sVlyrics
p4
I2
sVdeck
p5
I1
sVfox
p6
I1
sVrest
p7
I1
sVquotes
p8
I3
sVviolent
p9
I1
sVpaper
p10
I1
sVkill
p11
I1
sVmob
p12
I1
sVgo
p13
I2
sVcold
p14
I1
sVstill
p15
I1
sVhate
p16
I1
sVima
p17
I1
sVstyle
p18
I3
sVclaim
p19
I1
sVbooty
p20
I1
sVchain
p21
I1
sVzone
p22
I1
sVerykah
p23
I1
sVbobs
p24
I1
sVblown
p25
I1
sVproportion
p26
I1
sVcrew
p27
I1
sVbush
p28
I1
sVwhole
p29
I1
sVimmature
p30
I1
sVcrowds
p31
I1
sVtake
p32
I2
sVreal
p33
I9
sVbrown
p34
I1
sVhit
p35
I2
sVnam
p36
I1
sVyo
p37
I3
sVget
p38
I6
sVbig
p39
I1
sVreservoir
p40
I1
sVdesignated
p41
I1
sVmention
p42
I1
sVgame
p43
I1
sVgrew
p44
I1
sVevery
p45
I1
sVknow
p46
I1
sVexpectin
p47
I1
sVfront
p48
I1
sVartery
p49
I1
sVunique
p50
I1
sVday
p51
I1
sVetcetera
p52
I1
sVthinkin
p53
I1
sVgets
p54
I1
sVlike
p55
I13
sVhook
p56
I1
sVwearin
p57
I1
sVnotes
p58
I1
sVheart
p59
I1
sVbad
p60
I1
sVfloors
p61
I1
sVsteps
p62
I1
sVcommon
p63
I1
sVquarter
p64
I2
sVcollective
p65
I1
sVwrote
p66
I1
sVnigga
p67
I5
sVold
p68
I1
sVpeople
p69
I1
sVmahogany
p70
I1
sVhard
p71
I1
sVyeah
p72
I1
sVsee
p73
I1
sVstreet
p74
I1
sVchickachickamchickacchickam
p75
I1
sVrhymes
p76
I1
sVhome
p77
I2
sVmakers
p78
I1
sValbum
p79
I1
sVtry
p80
I1
sVmovin
p81
I1
sVgon
p82
I1
sVtote
p83
I1
sVgiving
p84
I1
sVrings
p85
I1
sVstaple
p86
I1
sVringin
p87
I1
sVcom
p88
I3
sVgot
p89
I5
sVinsecure
p90
I1
sVtold
p91
I1
sVbody
p92
I1
sVbe
p93
I1
sVpower
p94
I1
sVmarvin
p95
I1
sVsold
p96
I1
sVmuthafucka
p97
I1
sVfree
p98
I1
sVwater
p99
I1
sVjob
p100
I1
sVsingers
p101
I2
sVcough
p102
I1
sVcome
p103
I2
sVformin
p104
I1
sVstuds
p105
I1
sVstokes
p106
I1
sVrealyou
p107
I1
sVlanguage
p108
I1
sVill
p109
I1
sVcommonly
p110
I1
sVdrama
p111
I1
sVplus
p112
I1
sVyall
p113
I1
sVscratchingon
p114
I1
sVpullin
p115
I1
sVsoundin
p116
I1
sVcurry
p117
I1
sVhonor
p118
I1
sVroad
p119
I1
sVprospective
p120
I1
sVlove
p121
I1
sVdont
p122
I2
sVive
p123
I1
sVsweet
p124
I1
sVone
p125
I3
sVdown
p126
I1
sVpublishin
p127
I1
sVset
p128
I1
sVbitch
p129
I2
sVstrip
p130
I1
sVtouchdown
p131
I1
sVrats
p132
I1
sVsounds
p133
I2
sVrarely
p134
I1
sVgeorge
p135
I1
sVlittle
p136
I1
sVspoke
p137
I2
sVaint
p138
I2
sVballads
p139
I1
sVaskin
p140
I1
sVtwo
p141
I3
sVsports
p142
I1
sVdug
p143
I1
sVstation
p144
I1
sVcall
p145
I1
sVcalm
p146
I1
sVstorm
p147
I1
sVshow
p148
I1
sVtryin
p149
I1
sVwar
p150
I1
sVhat
p151
I1
sVhead
p152
I1
sVcomplete
p153
I1
sVspit
p154
I1
sVsores
p155
I1
sVcoke
p156
I1
sVapparent
p157
I1
sVhits
p158
I1
sVbut
p159
I1
sVhear
p160
I1
sVbroke
p161
I2
sVbaby
p162
I1
sVhardcore
p163
I1
sVhold
p164
I1
sVmcs
p165
I1
sVme
p166
I3
sVcia
p167
I1
sVb
I1
sVprovokes
p168
I1
sVskull
p169
I1
sVcar
p170
I1
sVflu
p171
I1
sVbeats
p172
I1
sVniggaz
p173
I4
sVtell
p174
I1
sVrope
p175
I1
sVbroads
p176
I2
sVr
I1
sVproperty
p177
I1
sVmy
p178
I1
sVgone
p179
I1
sVfreak
p180
I1
sVrap
p181
I1
sVraps
p182
I1
sVcraig
p183
I1
sVraw
p184
I1
sVcant
p185
I2
sVtag
p186
I1
sVim
p187
I3
sVwant
p188
I1
sVplayin
p189
I1
sVbones
p190
I1
sVsharp
p191
I1
sVstole
p192
I1
sVcheck
p193
I1
sVshit
p194
I6
sVthugs
p195
I1
sVhoe
p196
I1
sVend
p197
I2
sVsyndrome
p198
I1
sVburrough
p199
I1
sVsit
p200
I1
sVtrip
p201
I1
sVna
p202
I1
sVmake
p203
I3
sVrippin
p204
I1
sVillinois
p205
I1
sVwrite
p206
I1
sVsilent
p207
I1
sVbuild
p208
I1
sVdestroy
p209
I1
sVcolonies
p210
I1
sVcomedy
p211
I1
sVgoat
p212
I2
sVstand
p213
I1
sVdraw
p214
I1
sVtowards
p215
I1
sVfolklore
p216
I1
sVgaye
p217
I1
sVhoroscope
p218
I1
sVrappers
p219
I1
sVforeverand
p220
I1
sVharmony
p221
I1
sVtown
p222
I1
sVbukein
p223
I1
sVyours
p224
I1
sVunless
p225
I1
sVfunnies
p226
I1
sVjones
p227
I1
sVshort
p228
I1
sVoff
p229
I3
sVfor
p230
I1
sVwholecore
p231
I1
sValarm
p232
I1
sVflow
p233
I1
sVdog
p234
I1
sVtogether
p235
I1
sVor
p236
I1
sVsorta
p237
I1
sVtalk
p238
I1
sVsongs
p239
I1
sVorder
p240
I1
sVwind
p241
I1
sVjack
p242
I1
s.