(dp1
Vstones
p2
I2
sVnow
p3
I1
sVshoes
p4
I1
sVlyrics
p5
I2
sVshow
p6
I7
sVverses
p7
I1
sVpaper
p8
I1
sVgo
p9
I4
sVkanye
p10
I1
sVcold
p11
I3
sVfeat
p12
I1
sVstyle
p13
I1
sVslow
p14
I1
sVbennigans
p15
I1
sVsayin
p16
I1
sVbendin
p17
I1
sVwhoever
p18
I1
sVhot
p19
I1
sVmimickin
p20
I1
sVbetter
p21
I1
sVlets
p22
I2
sVhomies
p23
I1
sVfolks
p24
I2
sVpassion
p25
I1
sVlocal
p26
I1
sVthem
p27
I2
sVyo
p28
I1
sVget
p29
I4
sVsurvival
p30
I1
sVstop
p31
I1
sVuhh
p32
I2
sVay
p33
I1
sVbboy
p34
I1
sVknow
p35
I1
sVhalf
p36
I2
sVali
p37
I1
sVrappin
p38
I1
sVhollow
p39
I1
sVhim
p40
I1
sVminute
p41
I1
sVmasters
p42
I1
sVlike
p43
I3
sVnotes
p44
I1
sVp
I1
sVpriest
p45
I1
sVcommon
p46
I1
sVtruth
p47
I1
sVsoft
p48
I1
sVmo
p49
I1
sVyall
p50
I6
sVglasses
p51
I1
sVtwelve
p52
I1
sVold
p53
I1
sVglobe
p54
I2
sVhard
p55
I1
sVback
p56
I2
sVpolice
p57
I1
sVtouch
p58
I1
sVsee
p59
I1
sVnoise
p60
I1
sVclem
p61
I1
sVblocks
p62
I1
sVjojo
p63
I1
sVchicago
p64
I2
sVsince
p65
I2
sVbrief
p66
I1
sVstaccato
p67
I1
sVren
p68
I1
sVrational
p69
I1
sVbe
p70
I1
sVopenin
p71
I1
sVchose
p72
I1
sVguess
p73
I1
sVtimberlands
p74
I1
sVstep
p75
I1
sVlet
p76
I2
sVput
p77
I1
sVsing
p78
I1
sValong
p79
I1
sVcome
p80
I2
sVfarragamo
p81
I1
sVcashin
p82
I1
sVstage
p83
I1
sVknowin
p84
I1
sVmany
p85
I1
sVgivin
p86
I1
sVdru
p87
I1
sVchoppin
p88
I1
sVkeep
p89
I1
sVinfinitin
p90
I1
sVact
p91
I1
sVahget
p92
I2
sVsoundin
p93
I1
sVthink
p94
I1
sVpelican
p95
I1
sVladies
p96
I1
sVdont
p97
I1
sVlimitin
p98
I1
sVfeel
p99
I1
sVpop
p100
I1
sVyoung
p101
I1
sVdown
p102
I1
sVwit
p103
I1
sVfake
p104
I1
sVgimmick
p105
I1
sVwhos
p106
I1
sVmotto
p107
I1
sVwack
p108
I1
sVfestival
p109
I1
sVwest
p110
I1
sVtop
p111
I1
sVfast
p112
I1
sVnext
p113
I1
sVstart
p114
I3
sVlive
p115
I5
sVmaster
p116
I1
sVtell
p117
I1
sVdoor
p118
I1
sVthat
p119
I2
sVdudes
p120
I1
sVchicity
p121
I1
sVstick
p122
I1
sVkept
p123
I1
sVhardcore
p124
I1
sVtrue
p125
I1
sVthrottle
p126
I1
sVmc
p127
I1
sVride
p128
I1
sVniggaz
p129
I4
sVyouth
p130
I1
sVshoulda
p131
I1
sVlouder
p132
I3
sVvocals
p133
I1
sVperformances
p134
I1
sVmonkeys
p135
I1
sVplayed
p136
I1
sVstackin
p137
I1
sVhoes
p138
I2
sVfuck
p139
I2
sVyellin
p140
I1
sVsay
p141
I2
sVdrug
p142
I1
sVin
p143
I1
sVneed
p144
I1
sVemblem
p145
I1
sVfame
p146
I1
sVcatholic
p147
I1
sVinside
p148
I1
sVbottles
p149
I1
sVwinter
p150
I1
sVmake
p151
I1
sVdealer
p152
I1
sVgentlemen
p153
I1
sVshakin
p154
I1
sVnonstop
p155
I1
sVnoble
p156
I1
sVshiverin
p157
I1
sVknew
p158
I1
sVpimps
p159
I1
sVhiphop
p160
I1
sVsheets
p161
I1
sVguys
p162
I1
sVfo
p163
I1
sVsynonym
p164
I1
sVremember
p165
I1
sVrashid
p166
I1
sVlelelelelelets
p167
I1
sVdrive
p168
I1
sVcodoublemon
p169
I1
sVq
I1
sVgorilla
p170
I1
sVtime
p171
I1
sVfresh
p172
I1
sVmodel
p173
I1
sVtha
p174
I1
s.