(dp1
Vhaven\u2019t
p2
I1
sVwalking
p3
I2
sVwords
p4
I1
sVlyrics
p5
I2
sVhunger
p6
I1
sVmoney
p7
I1
sVable
p8
I1
sVunseen
p9
I1
sVsouls
p10
I1
sVrest
p11
I1
sVviolent
p12
I1
sVtalks
p13
I1
sVtough
p14
I1
sVextremities
p15
I1
sVfeat
p16
I1
sVfind
p17
I1
sVhustles
p18
I1
sVaint
p19
I2
sVweapons
p20
I1
sVfeeding
p21
I1
sVnoah
p22
I1
sVconquerors
p23
I1
sVwon\u2019t
p24
I3
sVit\u2019s
p25
I2
sVseems
p26
I1
sVyoung
p27
I3
sVsurvivors
p28
I1
sVrangers
p29
I1
sVgoing
p30
I1
sVlord
p31
I1
sVmoses
p32
I1
sVtroubled
p33
I1
sVsent
p34
I1
sVreal
p35
I1
sVpay
p36
I1
sVthem
p37
I1
sVstreet
p38
I1
sVaround
p39
I1
sVmeans
p40
I2
sVraps
p41
I1
sVstop
p42
I1
sVstripes
p43
I1
sVnation
p44
I1
sVdark
p45
I1
sVsons
p46
I1
sVknow
p47
I11
sVbirth
p48
I1
sVfront
p49
I1
sVworld
p50
I1
sVone
p51
I2
sVlesson\u2019s
p52
I1
sVdreams
p53
I3
sVcommon
p54
I1
sVchrist
p55
I1
sVnecessary
p56
I1
sVlike
p57
I6
sVlost
p58
I1
sVmothers
p59
I1
sVeven
p60
I1
sVdie
p61
I4
sVguns
p62
I1
sVcontrollers
p63
I1
sVgangsters
p64
I1
sVwho\u2019s
p65
I1
sVnight
p66
I1
sVbecome
p67
I2
sVbeacons
p68
I1
sVtold
p69
I1
sVwrote
p70
I1
sVsirens
p71
I1
sVtalked
p72
I3
sVoften
p73
I1
sVglobe
p74
I1
sVhard
p75
I2
sVthief
p76
I1
sValive
p77
I3
sVachiever
p78
I1
sVsee
p79
I4
sVtaught
p80
I1
sVus
p81
I21
sVgo
p82
I1
sVcorner
p83
I2
sVgirl
p84
I1
sVbeyond
p85
I1
sVreally
p86
I1
sVconscience
p87
I1
sVforgives
p88
I1
sVernie
p89
I1
sVchamber
p90
I1
sVculture
p91
I1
sVgod
p92
I1
sVear
p93
I1
sVsince
p94
I1
sVchildren
p95
I2
sVstrangers
p96
I1
sVkillin\u2019
p97
I1
sVdetermined
p98
I1
sVprogress
p99
I1
sVreturning
p100
I1
sVever
p101
I1
sVleader
p102
I1
sVhustle
p103
I1
sVbody
p104
I1
sVwalkman
p105
I1
sVnever
p106
I3
sVpuddles
p107
I1
sVpressure
p108
I1
sVdeath
p109
I1
sVsoldiers
p110
I1
sVstruggle
p111
I1
sVstutters
p112
I1
sVbleed
p113
I1
sVblame
p114
I1
sVstone
p115
I1
sVkids
p116
I1
sVlanguage
p117
I1
sVoh
p118
I3
sVcould
p119
I1
sVkeep
p120
I1
sVhustlers
p121
I1
sVturn
p122
I3
sVblessings
p123
I1
sVlearning
p124
I1
sVchanges
p125
I1
sVthats
p126
I1
sVamong
p127
I1
sVlove
p128
I2
sVburning
p129
I1
sVkeeps
p130
I1
sVholsters
p131
I1
sVdudes
p132
I1
sVson
p133
I1
sVdust
p134
I3
sVvalleys
p135
I1
sValleys
p136
I1
sVanother
p137
I1
sVcultivated
p138
I1
sVkings
p139
I3
sVlangston
p140
I1
sVearning
p141
I1
sVbarack
p142
I1
sVwould
p143
I1
sVprophets
p144
I1
sVchi
p145
I1
sVlegend
p146
I1
sVpaint
p147
I1
sVmuch
p148
I1
sVway
p149
I2
sVjohn
p150
I1
sVtoday
p151
I1
sVlife
p152
I3
sVdestiny\u2019s
p153
I1
sVfire
p154
I3
sVtook
p155
I1
sVlives
p156
I1
sVsolar
p157
I1
sVbaby
p158
I1
sVbelieve
p159
I8
sVspin
p160
I1
sVsteel
p161
I1
sVhughes
p162
I1
sVlook
p163
I3
sVtalking
p164
I2
sVdangerous
p165
I1
sVsoul
p166
I1
sVbeliever
p167
I3
sVlesser
p168
I1
sVcost
p169
I1
sVparched
p170
I1
sVovercome
p171
I1
sVfeeling
p172
I1
sVcoffin
p173
I1
sVcontrol
p174
I1
sVprocess
p175
I1
sVit
p176
I1
sVwatches
p177
I1
sVanger
p178
I2
sVking\u2019s
p179
I1
sVneed
p180
I1
sVshines
p181
I3
sVend
p182
I1
sVcontest
p183
I1
sVbarnes
p184
I1
sVget
p185
I1
sVshoulders
p186
I1
sVwalk
p187
I1
sVchest
p188
I1
sVrallies
p189
I1
sVgets
p190
I2
sVshawty\u2019s
p191
I1
sVdresser
p192
I1
sVpicture
p193
I1
sVbuildings
p194
I1
sVpain
p195
I1
sVadvice
p196
I1
sVtime
p197
I1
sVstay
p198
I3
sVblood
p199
I1
sVnothing
p200
I1
sVthoughts
p201
I1
sVeyes
p202
I1
sVburns
p203
I3
sVaggressors
p204
I1
sVolder
p205
I1
sVlight
p206
I4
sVoprah
p207
I1
sVspent
p208
I1
sVface
p209
I1
sVwrite
p210
I1
sVcame
p211
I1
sV\u2018em
p212
I3
sVspark
p213
I1
sVoverseas
p214
I1
sVdream
p215
I1
sVoppressors
p216
I1
sVtalk
p217
I9
s.