(dp1
Vbending
p2
I1
sVassembling
p3
I1
sVlyrics
p4
I2
sVshow
p5
I1
sVmoney
p6
I2
sVfall
p7
I1
sVyears
p8
I1
sVfour
p9
I1
sVbring
p10
I1
sVbright
p11
I1
sVskin
p12
I2
sVgo
p13
I2
sVkanye
p14
I3
sVfeat
p15
I1
sVmake
p16
I1
sVgems
p17
I1
sVslow
p18
I2
sVpointing
p19
I2
sVattires
p20
I1
sVsituations
p21
I1
sVseems
p22
I1
sVyoung
p23
I1
sVhim
p24
I2
sVbetter
p25
I1
sVbrighter
p26
I1
sVlate
p27
I1
sVghetto
p28
I1
sVcity
p29
I2
sVta
p30
I2
sVfists
p31
I1
sVthen
p32
I1
sVthem
p33
I2
sVgood
p34
I1
sVvictims
p35
I1
sVlivin
p36
I1
sVget
p37
I5
sVfood
p38
I3
sVcollide
p39
I1
sVdark
p40
I1
sVgame
p41
I1
sVknow
p42
I5
sVsouthside
p43
I1
sVfront
p44
I2
sVone
p45
I1
sVpimp
p46
I1
sVinstructions
p47
I1
sVcuzo
p48
I1
sVlike
p49
I7
sVtrucks
p50
I1
sVdid
p51
I1
sVshorties
p52
I1
sVarrows
p53
I1
sVcommon
p54
I5
sVnight
p55
I1
sVterot
p56
I1
sVstraight
p57
I1
sVyall
p58
I1
sVem
p59
I2
sVright
p60
I4
sVforce
p61
I1
sVfair
p62
I1
sVcolder
p63
I1
sVstreets
p64
I1
sVyeah
p65
I1
sVjump
p66
I1
sVsee
p67
I1
sVrun
p68
I2
sVblue
p69
I1
sVliving
p70
I1
sVclench
p71
I1
sVblacks
p72
I1
sVprisons
p73
I1
sVtimbs
p74
I1
sVnooh
p75
I3
sVvenom
p76
I1
sVfifties
p77
I1
sVgot
p78
I4
sVsorts
p79
I1
sVcause
p80
I1
sVguns
p81
I1
sVhustle
p82
I1
sVjobs
p83
I1
sVrims
p84
I2
sVthrowbacks
p85
I1
sVnever
p86
I1
sVsprewells
p87
I1
sV1s
p88
I1
sVeminem
p89
I1
sVlet
p90
I2
sVput
p91
I2
sVshine
p92
I1
sVtitties
p93
I1
sVkids
p94
I1
sVoh
p95
I3
sVfreedom
p96
I1
sVcould
p97
I2
sVdays
p98
I1
sVminds
p99
I1
sVmotion
p100
I1
sVchappelle
p101
I1
sVswallow
p102
I1
sVtonights
p103
I1
sVthats
p104
I1
sVfinest
p105
I1
sVlove
p106
I1
sVfeel
p107
I1
sVdenim
p108
I1
sVwaves
p109
I1
sVcrib
p110
I1
sVsystem
p111
I1
sVwit
p112
I3
sVfast
p113
I1
sVaway
p114
I4
sVduhough
p115
I3
sVhood
p116
I1
sVeverybody
p117
I1
sVwan
p118
I1
sVstory
p119
I1
sVweight
p120
I1
sVguest
p121
I1
sVwest
p122
I3
sVtwo
p123
I2
sVleast
p124
I1
sVfight
p125
I2
sVcats
p126
I1
sVcall
p127
I1
sVwondering
p128
I1
sVmama
p129
I1
sVgin
p130
I1
sVwhite
p131
I2
sVpo
p132
I7
sVtoe
p133
I2
sVeyes
p134
I1
sVselling
p135
I1
sVfemales
p136
I1
sVgear
p137
I1
sVamongst
p138
I1
sVback
p139
I1
sVdave
p140
I1
sVhear
p141
I1
sVcourts
p142
I1
sVbaby
p143
I2
sVtrying
p144
I2
sVeat
p145
I1
sVme
p146
I2
sVpride
p147
I1
sVpivoting
p148
I1
sVraw
p149
I1
sVwhether
p150
I1
sVride
p151
I2
sVgetting
p152
I1
sVup
p153
I2
sVus
p154
I1
sVair
p155
I1
sVuh
p156
I3
sVlearn
p157
I1
sVcards
p158
I1
sVdetailed
p159
I1
sVcmon
p160
I1
sVgive
p161
I1
sVraps
p162
I1
sVmind
p163
I1
sVheartless
p164
I1
sVtonight
p165
I1
sVjuice
p166
I1
sVcant
p167
I5
sVim
p168
I2
sVhides
p169
I1
sVsense
p170
I3
sVchicagos
p171
I1
sVagain
p172
I1
sVart
p173
I1
sVna
p174
I1
sVself
p175
I1
sVtight
p176
I1
sVhot
p177
I1
sVholding
p178
I1
sVgrind
p179
I1
sVdimming
p180
I1
sVball
p181
I1
sVemcees
p182
I1
sVbrothers
p183
I1
sVthough
p184
I2
sVfelt
p185
I1
sVstay
p186
I1
sVtries
p187
I1
sVkin
p188
I1
sVkim
p189
I1
sVcoming
p190
I1
sVgrow
p191
I1
sVtighter
p192
I1
sVman
p193
I3
sVlane
p194
I1
sVshort
p195
I1
sVfor
p196
I1
sVlight
p197
I1
sVwalked
p198
I1
sVdoe
p199
I2
sVheight
p200
I1
sVblock
p201
I3
sVblend
p202
I1
sVmusical
p203
I1
sVwind
p204
I1
s.