(dp1
Vbehavin
p2
I1
sVshot
p3
I3
sVlyrics
p4
I2
sVmoney
p5
I1
sVbrotha
p6
I1
sVmove
p7
I1
sVscattered
p8
I1
sVspanking
p9
I1
sVyears
p10
I1
sVdeep
p11
I1
sVgo
p12
I2
sVcold
p13
I1
sVstill
p14
I3
sVspeed
p15
I1
sVdont
p16
I2
sVaint
p17
I1
sVslow
p18
I1
sVgrabbed
p19
I2
sVty
p20
I1
sVjustice
p21
I1
sVescaped
p22
I1
sVease
p23
I1
sVexpectations
p24
I1
sVhim
p25
I1
sVn
I1
sVrick
p26
I1
sVfiend
p27
I2
sVfolks
p28
I1
sVbout
p29
I1
sVrob
p30
I1
sVought
p31
I1
sVta
p32
I1
sVtrigga
p33
I1
sVcase
p34
I1
sVover
p35
I1
sVgood
p36
I3
sVhit
p37
I1
sVaround
p38
I2
sVyo
p39
I1
sVoutside
p40
I1
sVya
p41
I3
sVdope
p42
I3
sVstop
p43
I1
sVstolen
p44
I1
sVknow
p45
I2
sVdt
p46
I1
sVlady
p47
I3
sVkilled
p48
I1
sVdare
p49
I1
sVabandoned
p50
I1
sVanotha
p51
I1
sVlike
p52
I2
sVpregnant
p53
I1
sVuniversity
p54
I1
sVgun
p55
I3
sVrobbin
p56
I1
sVmisled
p57
I1
sVsubway
p58
I1
sVnight
p59
I1
sVwent
p60
I2
sVautomatic
p61
I1
sVerratic
p62
I1
sVseventeen
p63
I1
sVset
p64
I1
sVold
p65
I2
sVlaugh
p66
I1
sVpeople
p67
I2
sVscared
p68
I1
sVback
p69
I3
sValive
p70
I1
sVsoul
p71
I1
sVdecided
p72
I1
sVstatic
p73
I2
sV83
p74
I1
sVguess
p75
I1
sVpajamas
p76
I1
sVarm
p77
I1
sVsaid
p78
I5
sVstood
p79
I1
sVmissed
p80
I1
sVlead
p81
I1
sVheres
p82
I1
sVsum
p83
I1
sVsurrounded
p84
I1
sVslick
p85
I1
sVopened
p86
I1
sVacting
p87
I1
sVsista
p88
I2
sVgot
p89
I2
sVseemed
p90
I1
sVtold
p91
I1
sVsirens
p92
I1
sVfull
p93
I1
sVrun
p94
I2
sVlittle
p95
I1
sVwater
p96
I1
sVjob
p97
I1
sVlet
p98
I1
sVdipped
p99
I1
sVcop
p100
I4
sVstations
p101
I1
sVstarts
p102
I2
sVill
p103
I1
sVwrong
p104
I2
sVo
I1
sVkeep
p105
I1
sVhoney
p106
I1
sVshootin
p107
I1
sVblock
p108
I2
sVchildrens
p109
I2
sVmakin
p110
I1
sVone
p111
I1
sVbrought
p112
I1
sVtill
p113
I1
sVnova
p114
I1
sVanother
p115
I4
sVstern
p116
I1
sVcouldnt
p117
I1
sVdream
p118
I1
sVstrapped
p119
I1
sVstory
p120
I3
sVher
p121
I1
sVtop
p122
I2
sVlong
p123
I2
sVhed
p124
I1
sVway
p125
I1
sVkid
p126
I3
sVmadmans
p127
I1
sVbuilding
p128
I1
sVlife
p129
I1
sVlived
p130
I2
sVdoor
p131
I1
sVboy
p132
I5
sVrobbed
p133
I1
sVcops
p134
I5
sVdave
p135
I1
sVhear
p136
I1
sVdead
p137
I1
sVhurry
p138
I1
sVstairs
p139
I1
sVmust
p140
I1
sVrunnin
p141
I1
sVpull
p142
I1
sVmade
p143
I2
sVwore
p144
I1
sVglory
p145
I1
sVastounded
p146
I1
sVcar
p147
I2
sVstraight
p148
I2
sVtree
p149
I2
sVcash
p150
I1
sVbreath
p151
I1
sVcast
p152
I1
sVnear
p153
I1
sVknocked
p154
I1
sVgave
p155
I1
sVdropped
p156
I1
sVheart
p157
I1
sVpointed
p158
I1
sVoutta
p159
I1
sVfigure
p160
I1
sVran
p161
I4
sVhead
p162
I3
sVslap
p163
I1
sVdash
p164
I1
sVdashed
p165
I1
sVpunched
p166
I1
sVbattered
p167
I1
sVneed
p168
I2
sVraced
p169
I1
sVpath
p170
I1
sVsaw
p171
I2
sVkidney
p172
I1
sVfunny
p173
I1
sVend
p174
I1
sVfloor
p175
I1
sVlil
p176
I4
sVna
p177
I1
sVmake
p178
I1
sVundercover
p179
I1
sVstarted
p180
I1
sVbelly
p181
I1
sVradioes
p182
I1
sVswore
p183
I1
sVgets
p184
I1
sVsoap
p185
I1
sVtried
p186
I1
sVthough
p187
I1
sVknew
p188
I1
sVupon
p189
I1
sVcrashed
p190
I1
sVmeaning
p191
I1
sVgon
p192
I1
sVbullets
p193
I2
sVcoming
p194
I1
sVon
p195
I1
sVratatattatted
p196
I1
sVman
p197
I2
sVago
p198
I1
sVnarrow
p199
I1
sVshotgun
p200
I1
sVdisease
p201
I1
sVscream
p202
I1
sVlooked
p203
I1
sVtha
p204
I1
sVtime
p205
I1
sVbarrel
p206
I1
sVleft
p207
I1
sVpulled
p208
I1
sVsounded
p209
I1
sVcame
p210
I1
sVlaws
p211
I1
s.