(dp1
Vall
p2
I1
sVlooked
p3
I1
sVlyrics
p4
I2
sVstrike
p5
I2
sVrest
p6
I1
sVmistakes
p7
I8
sVkill
p8
I1
sVgo
p9
I2
sVhell
p10
I1
sVstill
p11
I2
sVhelp
p12
I1
sVaint
p13
I1
sVslow
p14
I1
sVbrook
p15
I1
sVcuz
p16
I2
sVthursday
p17
I1
sVlate
p18
I2
sVoclock
p19
I1
sVfinally
p20
I1
sVrick
p21
I2
sVstruck
p22
I1
sVgave
p23
I2
sVwearing
p24
I1
sVwoman
p25
I7
sVexaggeration
p26
I1
sVget
p27
I3
sVya
p28
I1
sVdesired
p29
I1
sVknow
p30
I1
sVlady
p31
I1
sVlike
p32
I3
sVlist
p33
I1
sVbrother
p34
I1
sVheart
p35
I1
sVbrokehearted
p36
I1
sVtoke
p37
I1
sVforget
p38
I1
sVbrave
p39
I1
sVhonesty
p40
I1
sVdeal
p41
I1
sVtired
p42
I1
sVbump
p43
I1
sVdiscover
p44
I1
sVmirror
p45
I1
sVcant
p46
I1
sVtameka
p47
I2
sVgirl
p48
I3
sVpacked
p49
I1
sVwonder
p50
I1
sVeven
p51
I1
sVtry
p52
I1
sVsaid
p53
I1
sVjewelry
p54
I1
sVpet
p55
I1
sVconfess
p56
I1
sVslick
p57
I1
sV3
I1
sVmen
p58
I10
sVweak
p59
I1
sVforgive
p60
I1
sVmet
p61
I1
sVcut
p62
I1
sVlet
p63
I2
sVhectic
p64
I1
sValone
p65
I1
sVwanted
p66
I2
sVcome
p67
I3
sVpull
p68
I1
sVlive
p69
I2
sVoh
p70
I1
sVjoke
p71
I1
sVcould
p72
I1
sVmonths
p73
I1
sVgohold
p74
I2
sVforgave
p75
I1
sVsoda
p76
I1
sVconfronted
p77
I1
sVblock
p78
I1
sVnamed
p79
I1
sVlove
p80
I8
sVdont
p81
I1
sVfreaker
p82
I1
sVsuddenly
p83
I1
sVmanage
p84
I1
sVnumber
p85
I1
sVone
p86
I1
sVput
p87
I1
sVwit
p88
I4
sVanother
p89
I2
sVtable
p90
I1
sVcouldnt
p91
I1
sVopen
p92
I1
sVstrong
p93
I1
sVher
p94
I2
sVtreated
p95
I1
sVslept
p96
I2
sVtwo
p97
I1
sVfast
p98
I1
sVbeer
p99
I1
sVcall
p100
I2
sVlow
p101
I4
sVpassed
p102
I1
sVexpected
p103
I1
sVrollin
p104
I1
sVman
p105
I1
sVtell
p106
I1
sVfriend
p107
I1
sVflat
p108
I1
sVlived
p109
I1
sVenough
p110
I1
sVstarted
p111
I1
sVrejected
p112
I1
sVyeah
p113
I1
sVphone
p114
I1
sVhi
p115
I1
sVfishy
p116
I1
sVbull
p117
I1
sVbelieve
p118
I1
sVtrue
p119
I1
sVsorry
p120
I1
sV10
p121
I1
sVmade
p122
I1
sVlook
p123
I2
sVpretend
p124
I6
sVsmooth
p125
I1
sVsoul
p126
I1
sVsilly
p127
I1
sVstore
p128
I1
sVbehavior
p129
I1
sVcards
p130
I1
sVdidnt
p131
I1
sVcalled
p132
I1
sVminded
p133
I1
sVadmired
p134
I1
sVmind
p135
I1
sVfuck
p136
I1
sVhoney
p137
I2
sVimagination
p138
I1
sVsay
p139
I1
sVcallin
p140
I1
sVim
p141
I2
sVat
p142
I1
sVchat
p143
I1
sVneed
p144
I1
sVsat
p145
I1
sVagain
p146
I1
sVdeserve
p147
I1
sV41
p148
I1
sVmix
p149
I1
sVstrange
p150
I1
sVspeaker
p151
I1
sVyou
p152
I2
sVout
p153
I2
sVsmell
p154
I1
sVcreature
p155
I1
sVweek
p156
I1
sVplay
p157
I1
sVtried
p158
I1
sVbeauty
p159
I1
sVthough
p160
I1
sVfelt
p161
I1
sVbirthday
p162
I1
sVsmiled
p163
I1
sValcohol
p164
I1
sVmove
p165
I1
sVloud
p166
I1
sVwell
p167
I1
sVtogether
p168
I1
sVastonishing
p169
I1
sVtruck
p170
I1
sVoffend
p171
I6
sVsmoked
p172
I1
sVdream
p173
I1
sVleft
p174
I2
s.