(dp1
Vthings
p2
I1
sVforget
p3
I1
sVlyrics
p4
I2
sVskip
p5
I1
sVattitude
p6
I1
sVthrough
p7
I1
sVmotions
p8
I1
sVgo
p9
I4
sVloveem
p10
I1
sVstill
p11
I1
sVyet
p12
I1
sVsayin
p13
I1
sVseeem
p14
I1
sVitll
p15
I1
sVseems
p16
I2
sVbehind
p17
I1
sVbust
p18
I1
sVcrew
p19
I1
sVbetter
p20
I1
sVto
p21
I2
sVstrange
p22
I1
sVrick
p23
I1
sVhidden
p24
I1
sVmight
p25
I1
sVwoman
p26
I1
sVhop
p27
I1
sVyo
p28
I2
sVget
p29
I2
sVya
p30
I8
sVhopin
p31
I1
sVbein
p32
I1
sVbreak
p33
I1
sVmention
p34
I1
sVevery
p35
I1
sVdarn
p36
I1
sVwords
p37
I2
sVbit
p38
I1
sVday
p39
I1
sVwont
p40
I1
sVreveal
p41
I1
sVschool
p42
I1
sVhearts
p43
I2
sVlike
p44
I3
sVgettin
p45
I1
sVtheyre
p46
I6
sVdeals
p47
I1
sVstuff
p48
I1
sVholdin
p49
I1
sVquick
p50
I1
sVyall
p51
I1
sVbond
p52
I1
sVright
p53
I1
sVold
p54
I1
sVseemem
p55
I1
sVdeal
p56
I1
sVpeople
p57
I1
sVhard
p58
I1
sVyeah
p59
I2
sVdead
p60
I1
sVsee
p61
I1
sVshouldnt
p62
I1
sVmighty
p63
I1
sVfollow
p64
I1
sVgirl
p65
I1
sVsport
p66
I1
sVbest
p67
I1
sVreally
p68
I1
sVheres
p69
I2
sVdeeply
p70
I1
sVslick
p71
I2
sVeverything
p72
I1
sVenough
p73
I1
sVscore
p74
I1
sVblur
p75
I1
sVever
p76
I1
sVattention
p77
I2
sVwere
p78
I1
sVquite
p79
I1
sVlet
p80
I2
sVprecious
p81
I1
sVcome
p82
I1
sVchange
p83
I1
sVgreat
p84
I1
sVbuyinem
p85
I1
sVreceive
p86
I2
sVtimes
p87
I1
sVturn
p88
I2
sVelse
p89
I1
sVhawkin
p90
I1
sVdue
p91
I1
sVthink
p92
I1
sVcomes
p93
I1
sVthats
p94
I3
sVteenage
p95
I4
sVlove
p96
I7
sVdont
p97
I9
sVgone
p98
I1
sVone
p99
I1
sVfeet
p100
I1
sVhappenin
p101
I1
sVanother
p102
I1
sVtits
p103
I1
sVsays
p104
I1
sVspread
p105
I1
sVdestroyed
p106
I1
sVcombines
p107
I1
sVfeelins
p108
I3
sVseein
p109
I1
sVher
p110
I1
sVhes
p111
I1
sVaye
p112
I1
sVcaught
p113
I1
sVgirls
p114
I1
sVtwo
p115
I1
sVstart
p116
I2
sVmuch
p117
I1
sVinner
p118
I1
sVway
p119
I1
sVgoin
p120
I1
sVtell
p121
I1
sVfriend
p122
I1
sVsweetheart
p123
I1
sVrelationship
p124
I1
sVbrings
p125
I1
sVback
p126
I3
sVboys
p127
I1
sVpart
p128
I2
sVhear
p129
I1
sVtrue
p130
I2
sVbout
p131
I1
sVtown
p132
I1
sVstolen
p133
I1
sVword
p134
I1
sVplain
p135
I1
sVwarmth
p136
I1
sVclaim
p137
I1
sVfuture
p138
I2
sVloves
p139
I2
sVlover
p140
I1
sVsituation
p141
I1
sVtheres
p142
I1
sVheart
p143
I2
sVproud
p144
I1
sVshowin
p145
I1
sVcertain
p146
I1
sVit
p147
I3
sVsay
p148
I1
sVneed
p149
I1
sVseem
p150
I1
sVsaw
p151
I1
sVdyke
p152
I1
sVaround
p153
I3
sVagain
p154
I3
sVend
p155
I1
sVanymore
p156
I1
sVconversation
p157
I1
sVrather
p158
I1
sVpay
p159
I1
sVmake
p160
I2
sVsong
p161
I1
sVoccur
p162
I1
sValso
p163
I2
sVother
p164
I2
sVtake
p165
I2
sVsick
p166
I2
sVswore
p167
I1
sVgoing
p168
I1
sVyou
p169
I3
sVhangin
p170
I1
sVtalkin
p171
I1
sVball
p172
I1
sVplans
p173
I1
sVtime
p174
I1
sVproblems
p175
I1
sVhand
p176
I1
sVserious
p177
I1
sVnothing
p178
I1
sVhurt
p179
I3
sVthoughts
p180
I1
sVman
p181
I1
sVshort
p182
I1
sVfaster
p183
I1
sVmaybe
p184
I1
sVlater
p185
I1
sVlife
p186
I1
sVrollin
p187
I1
sVannoyed
p188
I1
sVthought
p189
I2
sVperson
p190
I2
sVmother
p191
I1
sVclaims
p192
I1
sVnotion
p193
I1
sVknow
p194
I2
s.