(dp1
Vthings
p2
I1
sVhelp
p3
I1
sVlyrics
p4
I2
sVmove
p5
I1
sVuneasiness
p6
I2
sVstill
p7
I3
sVflakin
p8
I1
sVgiant
p9
I1
sVslow
p10
I2
sVsomewhere
p11
I1
sVwomanhood
p12
I1
sVfix
p13
I2
sVcuz
p14
I2
sVto
p15
I1
sVjam
p16
I1
sVrick
p17
I1
sVworth
p18
I1
sVreal
p19
I1
sVshove
p20
I1
sVhit
p21
I1
sVaround
p22
I1
sVking
p23
I1
sVmemories
p24
I1
sVmaterial
p25
I1
sVknow
p26
I1
sVkiss
p27
I1
sVbasement
p28
I1
sVpoundin
p29
I1
sVworld
p30
I1
sVday
p31
I1
sVbigger
p32
I1
sVschool
p33
I1
sVerection
p34
I1
sVname
p35
I1
sVdishonest
p36
I1
sVsolution
p37
I1
sVstandards
p38
I1
sVcontinue
p39
I1
sVhype
p40
I1
sVwent
p41
I1
sVslowin
p42
I1
sVreplacement
p43
I1
sVdecease
p44
I1
sVnigga
p45
I1
sVold
p46
I1
sVpeople
p47
I1
sVintelligence
p48
I1
sVback
p49
I2
sVsex
p50
I1
sVmotive
p51
I1
sVsee
p52
I2
sVgirl
p53
I2
sVout
p54
I1
sVeven
p55
I1
sVsaid
p56
I2
sVfor
p57
I1
sVgod
p58
I2
sVjump
p59
I1
sVslick
p60
I1
sVrace
p61
I1
sVconfusion
p62
I1
sVlearned
p63
I1
sVtried
p64
I2
sVbroom
p65
I1
sVproblems
p66
I1
sVstyle
p67
I1
sVfree
p68
I1
sVmule
p69
I1
sVstep
p70
I1
sVhere
p71
I1
sValthough
p72
I1
sValong
p73
I1
sVvaccine
p74
I1
sVthrown
p75
I1
sVgreat
p76
I1
sVknowin
p77
I1
sVoh
p78
I1
sVill
p79
I1
sVbreakin
p80
I1
sVscreamin
p81
I1
sVthing
p82
I1
sVhoney
p83
I1
sVsweat
p84
I1
sVlookin
p85
I2
sVact
p86
I1
sVtongue
p87
I1
sVloud
p88
I1
sVhonor
p89
I1
sVspeeds
p90
I1
sVthats
p91
I1
sVregardless
p92
I1
sVdont
p93
I2
sVfeel
p94
I1
sVcommitment
p95
I1
sVcommandments
p96
I1
sVreplace
p97
I1
sVbrought
p98
I1
sVpatience
p99
I1
sVwit
p100
I5
sVanother
p101
I1
sVcussin
p102
I1
sVconquers
p103
I1
sVwan
p104
I1
sVworthless
p105
I1
sVjerkin
p106
I1
sVwould
p107
I1
sVhey
p108
I8
sVnext
p109
I1
sVwasnt
p110
I1
sVprogram
p111
I1
sVmusic
p112
I1
sVtoo
p113
I1
sVerupted
p114
I1
sVtype
p115
I3
sVgrowned
p116
I1
sVfriend
p117
I1
sVlow
p118
I1
sVgon
p119
I2
sVlived
p120
I2
sVknows
p121
I2
sVbig
p122
I1
sVsequel
p123
I1
sVtaimin
p124
I1
sVsearch
p125
I2
sVspeedin
p126
I1
sVbelieve
p127
I1
sVsound
p128
I1
sVloved
p129
I1
sVmade
p130
I3
sVlook
p131
I1
sVbother
p132
I1
sVaim
p133
I1
sVminor
p134
I1
sVwild
p135
I1
sVdidnt
p136
I2
sVbroad
p137
I1
sVtheres
p138
I1
sVstubborn
p139
I1
sVchasin
p140
I1
sVworthwhile
p141
I1
sVran
p142
I1
sVlife
p143
I1
sVbushy
p144
I1
sVweighed
p145
I1
sVcant
p146
I1
sVim
p147
I1
sVrig
p148
I1
sVstring
p149
I1
sVgrown
p150
I1
sVrelationship
p151
I1
sVyonkers
p152
I1
sVna
p153
I2
sVmake
p154
I1
sVbacks
p155
I1
sVelegance
p156
I1
sVswore
p157
I1
sVinterior
p158
I1
sVfools
p159
I1
sVclicks
p160
I1
sVplay
p161
I1
sVsuffer
p162
I1
sVsettlin
p163
I1
sVcruddy
p164
I1
sVstudyin
p165
I1
sVthough
p166
I3
sVabsorb
p167
I1
sVdisagree
p168
I1
sVtook
p169
I1
sVscale
p170
I1
sVmouth
p171
I1
sVlay
p172
I4
sVchump
p173
I1
sVwhy
p174
I1
sVman
p175
I1
sVforever
p176
I2
sVkept
p177
I1
sVlight
p178
I1
sVthought
p179
I2
sVbarner
p180
I1
sVgreen
p181
I1
sVtime
p182
I2
sVfurriers
p183
I1
sVcame
p184
I2
s.