(dp1
Vcompare
p2
I1
sVsurrounded
p3
I1
sVoctaves
p4
I1
sVdont
p5
I4
sVlyrics
p6
I2
sVgive
p7
I1
sVit
p8
I1
sVdeep
p9
I2
sVone
p10
I1
sVcant
p11
I1
sVim
p12
I3
sVclimbers
p13
I1
sVrap
p14
I1
sVfind
p15
I1
sVshit
p16
I2
sVaint
p17
I3
sVfunny
p18
I1
sVroseanneah
p19
I1
sVcall
p20
I1
sVlyte
p21
I2
sVthough
p22
I1
sVadmit
p23
I1
sVwrite
p24
I1
sVgetcha
p25
I3
sVthat
p26
I1
sVother
p27
I1
sVsurely
p28
I1
sVmembrane
p29
I1
sVgot
p30
I3
sVanna
p31
I2
sVfirst
p32
I1
sVass
p33
I2
sVrun
p34
I1
sVdeeper
p35
I1
sVget
p36
I3
sVya
p37
I3
sVgotcha
p38
I3
sVhuh
p39
I1
sVchart
p40
I1
sVfat
p41
I1
sVfuck
p42
I2
sVmomll
p43
I1
sVdap
p44
I1
sVknow
p45
I3
sVput
p46
I2
sVsing
p47
I1
sVchoice
p48
I1
sVcome
p49
I1
sVvein
p50
I1
sVlike
p51
I2
sVme
p52
I2
sVbreak
p53
I2
sVz
I1
sVe
I1
sVsquish
p54
I1
sVmc
p55
I2
sVidentifying
p56
I1
sVpunk
p57
I1
sVl
I1
sVtogether
p58
I1
sVtry
p59
I2
sVperhaps
p60
I1
sVnear
p61
I1
sVso
p62
I1
sVy
I1
sVsleep
p63
I1
sVvoice
p64
I1
sVtwos
p65
I1
sVcrowbar
p66
I1
s.