(dp1
Vsector
p2
I1
sVthings
p3
I1
sVforget
p4
I1
sVlyrics
p5
I2
sVchicks
p6
I1
sVnector
p7
I1
sVcheddar
p8
I1
sVladies
p9
I1
sVfoul
p10
I1
sVbring
p11
I2
sVbright
p12
I1
sVfreakin
p13
I1
sVgo
p14
I1
sVrest
p15
I1
sVbutuh
p16
I1
sVfeat
p17
I1
sVshoes
p18
I1
sVaint
p19
I2
sVwrite
p20
I2
sVvile
p21
I1
sVhynie
p22
I1
sVsky
p23
I1
sVcatalogue
p24
I1
sVjeepin
p25
I1
sVtape
p26
I1
sVbank
p27
I1
sVeasy
p28
I1
sVcrack
p29
I1
sVta
p30
I1
sVhip
p31
I1
sVnon
p32
I1
sVyo
p33
I4
sVget
p34
I4
sVbeat
p35
I1
sVoutlast
p36
I1
sVburn
p37
I1
sVknow
p38
I4
sVknapsack
p39
I1
sVwiser
p40
I1
sVnasty
p41
I1
sVchanel
p42
I1
sVhatchback
p43
I1
sVwont
p44
I1
sVbeggin
p45
I1
sVlike
p46
I6
sVgift
p47
I1
sVtwice
p48
I1
sVskills
p49
I1
sV16
p50
I1
sVpeeps
p51
I1
sVmake
p52
I1
sVtry
p53
I1
sVpeepin
p54
I1
sVbad
p55
I2
sVnight
p56
I1
sVlines
p57
I2
sVyall
p58
I1
sVcreepin
p59
I1
sVbars
p60
I1
sVnigga
p61
I1
sVilluminate
p62
I1
sVverbal
p63
I1
sVbe
p64
I1
sVdeegan
p65
I1
sVconcieted
p66
I1
sVpotent
p67
I1
sVexistance
p68
I1
sVblue
p69
I1
sVframes
p70
I1
sVsee
p71
I3
sVcost
p72
I1
sVus
p73
I1
sVpass
p74
I1
sVclose
p75
I1
sVcloser
p76
I7
sVbeated
p77
I1
sVmovin
p78
I1
sVhide
p79
I1
sVspace
p80
I2
sVpictures
p81
I1
sVassistance
p82
I1
sVday
p83
I1
sVenough
p84
I1
sVit
p85
I1
sVgot
p86
I5
sVtold
p87
I2
sVass
p88
I1
sVtoast
p89
I2
sVnotice
p90
I1
sVsabbotage
p91
I1
sVleg
p92
I1
sVoriginated
p93
I1
sVbm
p94
I1
sVnever
p95
I1
sVput
p96
I1
sVpeep
p97
I1
sVcome
p98
I3
sVdrama
p99
I1
sVblow
p100
I1
sVshine
p101
I1
sVol
p102
I1
sVlive
p103
I1
sVahead
p104
I1
sVoh
p105
I1
sVcoz
p106
I3
sVallows
p107
I1
sVdynie
p108
I1
sVkeep
p109
I1
sVforsee
p110
I1
sVspending
p111
I1
sVlytes
p112
I1
sVpercieve
p113
I1
sVthreat
p114
I1
sVact
p115
I1
sVsection
p116
I2
sVpullin
p117
I1
sVthink
p118
I1
sVputtin
p119
I1
sVdippin
p120
I1
sVwritin
p121
I1
sVhoppin
p122
I1
sVdont
p123
I2
sVpresence
p124
I1
sVsweet
p125
I1
sVmakin
p126
I1
sVspank
p127
I1
sVtwo
p128
I1
sVask
p129
I1
sVcmon
p130
I1
sVpromise
p131
I1
sValphernumeric
p132
I1
sVcomin
p133
I3
sVacchieve
p134
I1
sVcrew
p135
I1
sVopen
p136
I1
sVplatinum
p137
I1
sVwan
p138
I1
sVlyte
p139
I2
sVtop
p140
I1
sVplayed
p141
I1
sVquestion
p142
I1
sVthree
p143
I1
sVlong
p144
I1
sVwhos
p145
I1
sVattack
p146
I1
sVmuch
p147
I1
sVslowly
p148
I1
sVstars
p149
I1
sVditches
p150
I1
sVman
p151
I1
sVlisten
p152
I1
sVdirection
p153
I1
sVfraction
p154
I1
sVdones
p155
I1
sVthat
p156
I2
sVclub
p157
I1
sVbrand
p158
I1
sVbitches
p159
I1
sVback
p160
I2
sVdraped
p161
I1
sVstick
p162
I1
sVsimulate
p163
I1
sVbaby
p164
I1
sVsigning
p165
I1
sVme
p166
I6
sVsixes
p167
I1
sVtryin
p168
I3
sVmc
p169
I2
sVniggas
p170
I1
sVthis
p171
I1
sVweavin
p172
I1
sVruffneck
p173
I1
sVrhymes
p174
I2
sVgucci
p175
I1
sVnine
p176
I2
sVsupposed
p177
I1
sVsay
p178
I2
sVcheapin
p179
I1
sVand
p180
I1
sVcaught
p181
I1
sVlater
p182
I1
sVup
p183
I2
sVdefined
p184
I1
sVsteady
p185
I2
sVbitin
p186
I1
sVdefeated
p187
I1
sVsale
p188
I1
sVcant
p189
I7
sVtag
p190
I1
sVim
p191
I5
sVneed
p192
I1
sVdestination
p193
I1
sVshines
p194
I1
sVphatly
p195
I1
sVcheck
p196
I1
sVpipe
p197
I1
sVtaped
p198
I1
sVbenjis
p199
I1
sVmic
p200
I1
sVsong
p201
I1
sVclaiming
p202
I1
sVtakin
p203
I1
sVid
p204
I1
sVgentlemen
p205
I1
sVafford
p206
I1
sVshakin
p207
I1
sVtest
p208
I1
sVyou
p209
I3
sVtalkin
p210
I1
sVbobbin
p211
I2
sVeternity
p212
I1
sVindependent
p213
I1
sVpuppets
p214
I1
sVleavin
p215
I1
sVcheques
p216
I1
sVbelievers
p217
I1
sVtime
p218
I2
sVdkny
p219
I1
sVbumpin
p220
I1
sVkeepin
p221
I2
sVaction
p222
I1
sVjumpin
p223
I1
sVnothing
p224
I1
sVhesitation
p225
I1
sVflamin
p226
I1
sVsomethin
p227
I1
sVneck
p228
I1
sVread
p229
I1
sVaverage
p230
I1
sVyoure
p231
I2
sVflow
p232
I1
sVbustin
p233
I1
sVthought
p234
I3
sVna
p235
I1
sVsleepin
p236
I1
sVjack
p237
I1
s.