(dp1
Vfreakshow
p2
I1
sVbomb
p3
I1
sVlyrics
p4
I2
sVless
p5
I1
sVyea
p6
I4
sVpigeons
p7
I1
sVmisdemeanor
p8
I1
sVyears
p9
I1
sVattitude
p10
I2
sVdupa
p11
I2
sVstill
p12
I1
sVfeat
p13
I1
sVfind
p14
I2
sVtaggin\u2019
p15
I1
sVbusy
p16
I1
sVsky
p17
I1
sVcuz
p18
I3
sVbetter
p19
I7
sV4
I1
sVcrack
p20
I1
sVfishnet
p21
I1
sVpay
p22
I1
sVmatch
p23
I1
sVdo
p24
I2
sVhit
p25
I2
sVyo
p26
I2
sVget
p27
I5
sVi\u2019m
p28
I7
sVdope
p29
I1
sVwatch
p30
I1
sVmatters
p31
I1
sVsmack
p32
I1
sV\u2018bout
p33
I2
sVworst
p34
I1
sVknow
p35
I6
sVgot
p36
I5
sVday
p37
I3
sVnevermind
p38
I1
sVlike
p39
I2
sVdrop
p40
I1
sVbad
p41
I2
sVstuff
p42
I1
sVquick
p43
I2
sVstraight
p44
I1
sVyall
p45
I6
sVsayin\u2019
p46
I1
sVpiranhas
p47
I1
sVnigga
p48
I1
sVnikki\u2019s
p49
I1
sValive
p50
I1
sVjump
p51
I1
sVsee
p52
I1
sVfly
p53
I3
sVforgot
p54
I1
sVgettin\u2019
p55
I2
sV80
p56
I4
sVbest
p57
I1
sVreally
p58
I1
sVeven
p59
I4
sVsaid
p60
I1
sVlotta
p61
I1
sVrehearse
p62
I1
sVhooked
p63
I1
sVstupid
p64
I1
sV7
I2
sVit
p65
I1
sVtom\u2019s
p66
I1
sVacross
p67
I1
sVass
p68
I3
sVyou\u2019ll
p69
I1
sVbusiness
p70
I5
sVnever
p71
I2
sVforgive
p72
I2
sVmet
p73
I1
sVhost
p74
I1
sVcut
p75
I1
sVlet
p76
I1
sVbesides
p77
I1
sVcome
p78
I1
sVcare
p79
I1
sVoh
p80
I1
sVmany
p81
I1
sVcould
p82
I1
sVbou
p83
I1
sVshiznit
p84
I1
sVkeep
p85
I1
sVfell
p86
I1
sVwack
p87
I2
sVthink
p88
I2
sVfirst
p89
I1
sV\u2018round
p90
I1
sVinfo
p91
I1
sVswimmin\u2019
p92
I1
sVbound
p93
I1
sVtwo
p94
I1
sVdown
p95
I1
sVoughta
p96
I1
sVmarket
p97
I1
sVeverybody
p98
I1
sVwan
p99
I1
sVguess
p100
I1
sVtryin\u2019
p101
I1
sVlyte
p102
I6
sVswift
p103
I1
sVcaught
p104
I1
sVwit\u2019
p105
I2
sVmissy
p106
I1
sVdon\u2019t
p107
I4
sVi\u2019ll
p108
I1
sVmemory
p109
I1
sVgim
p110
I1
sVpeepin\u2019
p111
I1
sVback
p112
I3
sVintroducing
p113
I1
sVknows
p114
I1
sV\u2018cross
p115
I1
sVthat
p116
I1
sVstarted
p117
I1
sVface
p118
I1
sVyou
p119
I2
sVfolks
p120
I1
sVnosey
p121
I1
sVcatch
p122
I1
sVtrue
p123
I1
sVbrick
p124
I1
sVmust
p125
I1
sVme
p126
I4
sVnone
p127
I2
sV12
p128
I1
sV14
p129
I1
sVmc
p130
I4
sVniggas
p131
I1
sVthis
p132
I2
sVwish
p133
I1
sVain\u2019t
p134
I7
sVattached
p135
I1
sVflip
p136
I1
sVuh
p137
I12
sVhahaha
p138
I1
sVsupa
p139
I2
sVlatch
p140
I1
sVpie
p141
I1
sVfuck
p142
I3
sVdeep
p143
I1
sVheard
p144
I1
sVsay
p145
I4
sVsomething
p146
I3
sVneed
p147
I2
sVsnoopin\u2019
p148
I1
sVcheck
p149
I3
sVshit
p150
I2
sVchase
p151
I1
sVfickyficky
p152
I1
sVna
p153
I1
sVmake
p154
I1
sVrunnin\u2019
p155
I2
sVaside
p156
I1
sV1
I1
sVsound
p157
I2
sV5
I1
sVransack
p158
I1
sVelliott
p159
I1
sVout
p160
I1
sVcan\u2019t
p161
I3
sVi\u2019ma
p162
I1
sVtried
p163
I1
sVwaters
p164
I1
sVficky
p165
I2
sVpaid
p166
I1
sVbrooklyn
p167
I1
sVregular
p168
I1
sVmouth
p169
I1
sVago
p170
I1
sVrecords
p171
I1
sVi
I1
sVlight
p172
I1
sVsomethin\u2019
p173
I1
sVjoint
p174
I1
sVtalkin\u2019
p175
I3
sVwithout
p176
I1
sVtime
p177
I1
sValright
p178
I1
sVguessin\u2019
p179
I1
sVtalk
p180
I1
sVjack
p181
I2
s.