(dp1
Vlyrics
p2
I2
sVpassin
p3
I1
sVattitude
p4
I2
sVclow
p5
I1
sVsleep
p6
I2
sVgo
p7
I2
sVhell
p8
I2
sVchair
p9
I1
sVavenue
p10
I1
sVspells
p11
I1
sVdrinkin
p12
I1
sVstyle
p13
I1
sVslow
p14
I1
sVgold
p15
I1
sVdick
p16
I1
sVenough
p17
I1
sVhavin
p18
I1
sVcharge
p19
I1
sVgoing
p20
I2
sVactin
p21
I1
sVbout
p22
I1
sVta
p23
I5
sVme
p24
I1
sVgood
p25
I1
sVstreet
p26
I1
sVaround
p27
I1
sVyo
p28
I1
sVget
p29
I3
sVfood
p30
I1
sVpumpin
p31
I1
sVshowing
p32
I1
sVsittin
p33
I1
sVruff
p34
I3
sVsmack
p35
I1
sVfrontin
p36
I1
sVhands
p37
I1
sVfront
p38
I1
sVbit
p39
I1
sVgrin
p40
I1
sVlike
p41
I3
sVstiff
p42
I1
sVcause
p43
I2
sVbastard
p44
I1
sVbrother
p45
I1
sVlarge
p46
I2
sVbag
p47
I1
sVstartin
p48
I1
sVnight
p49
I1
sVquick
p50
I3
sVside
p51
I1
sVshed
p52
I1
sVright
p53
I2
sVkani
p54
I1
sVstreets
p55
I1
sVback
p56
I1
sVboots
p57
I1
sVskins
p58
I1
sVnoise
p59
I1
sVhome
p60
I1
sV80
p61
I1
sVeven
p62
I1
sVstitch
p63
I1
sVrep
p64
I1
sVtimbos
p65
I1
sVfingers
p66
I1
sVbaldie
p67
I1
sVeverything
p68
I1
sVraggamuf
p69
I1
sVhitem
p70
I1
sVgot
p71
I6
sVjock
p72
I1
sV911
p73
I1
sVfuneral
p74
I1
sVpants
p75
I1
sVaint
p76
I6
sVends
p77
I1
sVfull
p78
I1
sVhairs
p79
I1
sVnever
p80
I2
sVsaggin
p81
I1
sVhere
p82
I1
sVwild
p83
I1
sVput
p84
I1
sVswift
p85
I1
sVcare
p86
I1
sVplug
p87
I1
sVbuck
p88
I2
sVlast
p89
I1
sValways
p90
I1
sVo
I1
sVtour
p91
I1
sVswallow
p92
I1
sVdraggin
p93
I1
sVthats
p94
I5
sVlove
p95
I1
sVdont
p96
I3
sVspliff
p97
I1
sVgirls
p98
I1
sVmakin
p99
I1
sVwhatever
p100
I1
sVdown
p101
I1
sVwit
p102
I1
sVbitch
p103
I1
sVanother
p104
I1
sVrespect
p105
I1
sVhood
p106
I1
sVlittle
p107
I1
sVtakes
p108
I1
sVbeef
p109
I1
sVhes
p110
I5
sVlyte
p111
I3
sVcome
p112
I1
sVthere
p113
I2
sVdude
p114
I1
sVtears
p115
I1
sVbeep
p116
I1
sVbeer
p117
I1
sVmuch
p118
I1
sVlow
p119
I1
sVgottem
p120
I1
sVrudeboy
p121
I1
sVgim
p122
I1
sVthru
p123
I1
sVhard
p124
I1
sVknows
p125
I2
sVshorts
p126
I1
sVgrabbin
p127
I1
sVexactly
p128
I1
sVboys
p129
I2
sVeat
p130
I2
sVtown
p131
I1
sVpull
p132
I1
sVtactics
p133
I1
sVmc
p134
I1
sVride
p135
I1
sVbeg
p136
I1
sVmeetin
p137
I1
sVfiddlin
p138
I1
sVknocked
p139
I1
sVmeet
p140
I1
sVlick
p141
I1
sVtriple
p142
I1
sVboppin
p143
I1
sVwell
p144
I1
sVfuck
p145
I1
sVready
p146
I1
sVruffneck
p147
I15
sVwant
p148
I1
sVneed
p149
I6
sVkarl
p150
I1
sVpissin
p151
I1
sVneeds
p152
I1
sVend
p153
I1
sVcorners
p154
I1
sVmake
p155
I2
sVmourners
p156
I1
sVfitting
p157
I1
sVshit
p158
I2
sVyou
p159
I1
sVthough
p160
I1
sVdoin
p161
I1
sVbraggin
p162
I2
sVevil
p163
I1
sVquestioning
p164
I1
sVwrong
p165
I1
sVmouth
p166
I1
sVnothing
p167
I1
sVman
p168
I2
sVtec
p169
I1
sVcops
p170
I1
sVranks
p171
I1
sVflow
p172
I1
sVswitch
p173
I1
sVboxer
p174
I1
sVrelief
p175
I1
sVteeth
p176
I1
sValright
p177
I1
sVlying
p178
I1
s.