(dp1
Vinning
p2
I1
sVtoaster
p3
I1
sVmingle
p4
I1
sVforget
p5
I1
sVlyrics
p6
I2
sVshow
p7
I1
sVgerman
p8
I1
sVmoney
p9
I1
sVmove
p10
I1
sVdope
p11
I2
sVchillin
p12
I1
sVever
p13
I1
sVmilkmilk
p14
I1
sVslapped
p15
I2
sVrocked
p16
I1
sVclock
p17
I1
sVgo
p18
I7
sVlove
p19
I2
sVyes
p20
I7
sVfeat
p21
I1
sVmilk
p22
I8
sVleg
p23
I2
sVbunch
p24
I1
sVima
p25
I2
sVlg
p26
I1
sVstyle
p27
I2
sVcut
p28
I1
sVfellas
p29
I1
sVtitle
p30
I2
sVsnicker
p31
I1
sVswinger
p32
I1
sVkrock
p33
I1
sVjeannie
p34
I1
sVbetter
p35
I1
sVlets
p36
I2
sVgivin
p37
I1
sVchoose
p38
I1
sVpretty
p39
I1
sVcrack
p40
I2
sVaretha
p41
I1
sVmain
p42
I1
sVhat
p43
I1
sVhope
p44
I1
sVta
p45
I1
sVclinger
p46
I1
sVqueen
p47
I1
sVhit
p48
I4
sVcheckmate
p49
I1
sVyo
p50
I26
sVget
p51
I4
sVbeat
p52
I4
sVthee
p53
I2
sVspell
p54
I2
sVreps
p55
I1
sVdeeper
p56
I1
sVfat
p57
I2
sVpocket
p58
I1
sVrecords
p59
I1
sVcandid
p60
I1
sVevery
p61
I1
sVknow
p62
I4
sVsunny
p63
I1
sVcompound
p64
I1
sV2
I1
sVdapper
p65
I1
sVone
p66
I2
sVreap
p67
I2
sVday
p68
I1
sVlike
p69
I22
sVwont
p70
I3
sVbeepbeep
p71
I1
sVthink
p72
I1
sVmotorola
p73
I1
sVbeginning
p74
I1
sVname
p75
I6
sVpimp
p76
I1
sVfemale
p77
I2
sValways
p78
I1
sVdrop
p79
I2
sVrapper
p80
I1
sVl
I2
sVcloudy
p81
I1
sVrocks
p82
I12
sVyellow
p83
I1
sVrock
p84
I3
sVtranslated
p85
I1
sVgrab
p86
I1
sVriver
p87
I1
sVside
p88
I1
sVyall
p89
I58
sVdopefiend
p90
I1
sVem
p91
I1
sVgiz
p92
I3
sVmanwich
p93
I1
sVhabit
p94
I1
sVgoddamn
p95
I1
sVturnin
p96
I1
sVmighta
p97
I1
sVundress
p98
I1
sVd
I1
sVhair
p99
I2
sVsee
p100
I1
sVdumb
p101
I1
sVshes
p102
I4
sVhoes
p103
I2
sVill
p104
I1
sVgirl
p105
I3
sVhammer
p106
I2
sVmill
p107
I1
sVyet
p108
I1
sVability
p109
I1
sVexclamation
p110
I1
sVgon
p111
I3
sVblues
p112
I1
sVbottom
p113
I1
sVheres
p114
I3
sVafro
p115
I1
sVtrooper
p116
I1
sVsince
p117
I1
sVabide
p118
I1
sVdoper
p119
I1
sVbeatbeat
p120
I2
sVlights
p121
I1
sVpapers
p122
I1
sVslash
p123
I1
sVgot
p124
I4
sVcause
p125
I7
sVaint
p126
I1
sVrollercoaster
p127
I1
sVwan
p128
I2
sVcrackheads
p129
I1
sVnever
p130
I2
sVequals
p131
I1
sVhere
p132
I1
sVstep
p133
I1
sVbase
p134
I2
sVlet
p135
I4
sVkicker
p136
I1
sVask
p137
I3
sVnews
p138
I1
sVcomb
p139
I1
sVcome
p140
I3
sVteacher
p141
I1
sVcare
p142
I1
sVon
p143
I4
sVlast
p144
I1
sVwouldnt
p145
I1
sVdues
p146
I1
sVfreely
p147
I1
sVk
I6
sVbreakin
p148
I1
sVdays
p149
I1
sVrocky
p150
I2
sVbandit
p151
I1
sVheadline
p152
I1
sVadmit
p153
I1
sVyoull
p154
I1
sVplus
p155
I1
sVbragger
p156
I1
sVsmoke
p157
I1
sVpick
p158
I1
sVmean
p159
I1
sVstrictly
p160
I1
sVthats
p161
I6
sVcapper
p162
I1
sVwhats
p163
I2
sVdont
p164
I10
sVsimple
p165
I1
sVspeaker
p166
I1
sVpos
p167
I3
sVwhatever
p168
I1
sVhey
p169
I1
sVstop
p170
I2
sVtill
p171
I1
sVdoesnt
p172
I1
sVswingin
p173
I1
sV357
p174
I1
sVsow
p175
I2
sVsing
p176
I1
sVsoso
p177
I1
sVloaded
p178
I1
sVthick
p179
I1
sVquit
p180
I2
sVstory
p181
I2
sVfrom
p182
I1
sVpawn
p183
I1
sVwould
p184
I1
sVlyte
p185
I12
sVpositive
p186
I9
sVbite
p187
I1
sVgirls
p188
I1
sVtwo
p189
I1
sVstart
p190
I12
sVdoubt
p191
I4
sVcall
p192
I3
sVway
p193
I1
sVtime
p194
I2
sVmaster
p195
I1
sVkick
p196
I2
sVtell
p197
I4
sVunderestimated
p198
I1
sVknows
p199
I1
sVthat
p200
I1
sVfunds
p201
I1
sVbelieve
p202
I1
sVfuck
p203
I1
sVcant
p204
I2
sVback
p205
I2
sVpringle
p206
I1
sVrhythm
p207
I1
sVunderstand
p208
I1
sVdeep
p209
I1
sVrussian
p210
I1
sVhold
p211
I2
sVmcs
p212
I1
sVversatility
p213
I1
sVquotation
p214
I1
sVme
p215
I1
sVking
p216
I1
sVsave
p217
I1
sVmc
p218
I5
sVcrest
p219
I2
sVplain
p220
I1
sVride
p221
I1
sVstastastart
p222
I2
sVsingle
p223
I1
sVcast
p224
I1
sVbikini
p225
I1
sVneat
p226
I2
sVthree
p227
I3
sV9th
p228
I1
sVknocked
p229
I1
sVclingin
p230
I2
sVdee
p231
I5
sVand
p232
I12
sVgone
p233
I1
sValpine
p234
I1
sVoutta
p235
I1
sVhave
p236
I1
sVstream
p237
I1
sVah
p238
I2
sVit
p239
I12
sVrip
p240
I1
sVequal
p241
I1
sVtopic
p242
I1
sVfunny
p243
I1
sVsay
p244
I5
sVslam
p245
I1
sVim
p246
I21
sVrap
p247
I1
sVave
p248
I1
sVdj
p249
I1
sV1
I1
sVkeep
p250
I1
sVagility
p251
I1
sVwell
p252
I6
sVgizmo
p253
I2
sVfunkfunky
p254
I1
sVthought
p255
I1
sVtheyll
p256
I1
sVna
p257
I6
sVmic
p258
I2
sVpeace
p259
I3
sVoprah
p260
I1
sVtito
p261
I1
sVnote
p262
I1
sVya
p263
I4
sVanother
p264
I1
sVboomboom
p265
I1
sVtake
p266
I2
sVgrand
p267
I1
sVpeps
p268
I1
sVgets
p269
I2
sVtasket
p270
I1
sVbein
p271
I1
sVstand
p272
I1
sVeven
p273
I1
sVplay
p274
I1
sVslave
p275
I1
sVdime
p276
I1
sVsuaheli
p277
I1
sVrhyme
p278
I6
sVrappers
p279
I1
sVuse
p280
I1
sVm
I2
sVpaid
p281
I1
sVstay
p282
I1
sVtalk
p283
I2
sVstocky
p284
I1
sVbrooklyn
p285
I2
sVsaid
p286
I2
sVkinda
p287
I1
sVscores
p288
I1
sVjealous
p289
I1
sVpositives
p290
I1
sVlivin
p291
I2
sVbeeper
p292
I1
sVtisket
p293
I1
sVman
p294
I3
sVbreak
p295
I4
sVsinger
p296
I1
sVshort
p297
I1
sVoff
p298
I2
sVchill
p299
I1
sVboaster
p300
I1
sVmaybe
p301
I2
sVnola
p302
I1
sVyoure
p303
I1
sVflow
p304
I2
sVgreet
p305
I2
sVface
p306
I1
sVks
p307
I1
sVaftershock
p308
I1
sVones
p309
I1
sVsomeones
p310
I1
sVpay
p311
I1
sVbasket
p312
I1
sVkeepin
p313
I1
sVoooh
p314
I1
sVdream
p315
I1
sVmake
p316
I2
sVcame
p317
I1
s.