(dp1
Vtape
p2
I1
sVshot
p3
I1
sVlyrics
p4
I3
sVshow
p5
I1
sVrapture
p6
I2
sVmoney
p7
I3
sVlay
p8
I1
sVfifty
p9
I1
sVverses
p10
I1
sVgang
p11
I1
sVstill
p12
I2
sVfeat
p13
I1
sVfind
p14
I1
sVclapped
p15
I1
sVcocked
p16
I1
sVblow
p17
I2
sVshattered
p18
I1
sVfoxxx
p19
I1
sVone
p20
I2
sVjevron
p21
I1
sVtill
p22
I2
sVroyal
p23
I1
sVenough
p24
I1
sVcontrols
p25
I1
sVwindow
p26
I1
sVblack
p27
I1
sVpayin
p28
I1
sVmanman
p29
I1
sVsuite
p30
I1
sVmight
p31
I1
sVtake
p32
I1
sVreal
p33
I1
sVkillt
p34
I1
sVhit
p35
I1
sVsick
p36
I1
sVyo
p37
I1
sVget
p38
I4
sVya
p39
I5
sVbig
p40
I1
sVgrand
p41
I1
sVbought
p42
I2
sVgeek
p43
I1
sVgoons
p44
I1
sVevery
p45
I2
sVknow
p46
I5
sVunseen
p47
I2
sVhalf
p48
I1
sVfront
p49
I1
sVblast
p50
I1
sVparked
p51
I1
sVitchy
p52
I1
sVbank
p53
I3
sVlike
p54
I1
sVname
p55
I2
sValways
p56
I1
sVdrop
p57
I1
sVgun
p58
I2
sVleave
p59
I1
sVbad
p60
I1
sVmath
p61
I1
sVbombs
p62
I1
sVserved
p63
I1
sVvenus
p64
I1
sVtold
p65
I1
sVyall
p66
I5
sVglasses
p67
I1
sVnigga
p68
I5
sVoften
p69
I1
sVdump
p70
I1
sVwarrior
p71
I1
sVhouse
p72
I1
sVframe
p73
I1
sVsecret
p74
I1
sVback
p75
I3
sVbrother
p76
I4
sVwelcome
p77
I1
sVdemeanor
p78
I1
sVsee
p79
I3
sVstreet
p80
I1
sVniggaz
p81
I4
sVemcees
p82
I1
sVcreep
p83
I1
sVreally
p84
I1
sVcurse
p85
I1
sVsleepin
p86
I1
sVgod
p87
I1
sVtimbs
p88
I1
sVsince
p89
I1
sVfingers
p90
I1
sVslapped
p91
I1
sV3
I2
sVinternet
p92
I1
sVripped
p93
I1
sVgot
p94
I5
sVcontraband
p95
I1
sVcause
p96
I4
sVwhipped
p97
I1
sVwatchin
p98
I1
sVbody
p99
I1
sVtattoos
p100
I1
sVvete
p101
I1
sVburn
p102
I2
sVtags
p103
I1
sVmags
p104
I1
sVfelony
p105
I1
sVmen
p106
I1
sVdisallow
p107
I1
sVshug
p108
I1
sVpick
p109
I1
sVdeath
p110
I1
sVconcealed
p111
I1
sVput
p112
I3
sVnews
p113
I1
sVcome
p114
I1
sVcare
p115
I1
sVdigits
p116
I1
sVkeepin
p117
I3
sVbible
p118
I1
sVlast
p119
I1
sVwould
p120
I1
sVboast
p121
I1
sVbroken
p122
I1
sVjeep
p123
I1
sVoath
p124
I1
sVill
p125
I4
sVscreamin
p126
I1
sVkeep
p127
I2
sVpuffin
p128
I1
sVbrag
p129
I1
sVwrote
p130
I1
sVlookin
p131
I1
sVact
p132
I1
sVwheels
p133
I1
sVwhole
p134
I1
sVsayin
p135
I1
sVfuckin
p136
I1
sVfirst
p137
I1
sVfeed
p138
I1
sVdont
p139
I2
sVchamps
p140
I1
sVduct
p141
I1
sVpoppin
p142
I1
sVmidgets
p143
I1
sVrank
p144
I3
sVstrap
p145
I1
sVbumpy
p146
I2
sVright
p147
I1
sVbust
p148
I2
sVsnub
p149
I1
sVsoul
p150
I1
sVstage
p151
I1
sVeverybody
p152
I1
sVwan
p153
I1
sVheads
p154
I1
sVpt
p155
I2
sVarmy
p156
I1
sVcaught
p157
I1
sVmalitia
p158
I2
sVarms
p159
I1
sVcyrus
p160
I1
sVbreath
p161
I1
sVasses
p162
I1
sVcats
p163
I2
sVserenas
p164
I1
sVtoo
p165
I1
sVlot
p166
I2
sVstarr
p167
I1
sVcram
p168
I1
sVman
p169
I1
sVtell
p170
I1
sVtoe
p171
I1
sVarena
p172
I1
sVvans
p173
I1
sVstreets
p174
I1
sVknows
p175
I4
sVspit
p176
I1
sVbuck
p177
I1
sVfire
p178
I1
sVinfect
p179
I1
sVhotel
p180
I1
sVmics
p181
I1
sVheat
p182
I2
sVpart
p183
I1
sVunderstand
p184
I1
sVfidget
p185
I1
sVcatch
p186
I1
sVhardcore
p187
I1
sVhold
p188
I3
sVmust
p189
I1
sVplay
p190
I1
sVland
p191
I1
sVraw
p192
I1
sVequation
p193
I1
sVcash
p194
I1
sVus
p195
I5
sVyouve
p196
I2
sVrags
p197
I1
sVthree
p198
I1
sVlisten
p199
I4
sVcock
p200
I1
sVcould
p201
I2
sVtheres
p202
I1
sVheart
p203
I2
sVcrazy
p204
I1
sVyoure
p205
I2
sVthatll
p206
I1
sVgive
p207
I5
sVran
p208
I1
sVis
p209
I1
sVin
p210
I2
sVfuck
p211
I2
sVlust
p212
I1
sVneed
p213
I2
sVcant
p214
I1
sVim
p215
I9
sVrap
p216
I3
sVchecked
p217
I1
sVthug
p218
I2
sVbags
p219
I1
sVbumpys
p220
I2
sVrealits
p221
I1
sVrawness
p222
I1
sVna
p223
I3
sVmake
p224
I1
sVaint
p225
I2
sVclub
p226
I1
sVchest
p227
I2
sVbook
p228
I1
sVlow
p229
I1
sVbabies
p230
I1
sVswore
p231
I1
sVunderground
p232
I1
sVmilitia
p233
I4
sVadvise
p234
I1
sV200
p235
I1
sVgravy
p236
I1
sVpain
p237
I5
sVrabies
p238
I1
sVcapture
p239
I7
sVafter
p240
I1
sVhand
p241
I1
sVfreddie
p242
I1
sVvirus
p243
I1
sVgon
p244
I2
sVplan
p245
I1
sVnever
p246
I1
sVnothing
p247
I1
sVlaw
p248
I1
sVbuilt
p249
I1
sVtorture
p250
I1
sVdoo
p251
I1
sVstilts
p252
I1
sVwins
p253
I1
sVcamp
p254
I1
sVbustin
p255
I1
sVface
p256
I1
sVconceal
p257
I1
sVtruck
p258
I1
sVemcee
p259
I1
sVpush
p260
I1
sVleft
p261
I1
s.