(dp1
Vchicks
p2
I1
sVshot
p3
I1
sVlyrics
p4
I2
sVindeed
p5
I1
sVover
p6
I1
sVpussy
p7
I1
sVsoon
p8
I1
sVrest
p9
I1
sVbrain
p10
I2
sVgang
p11
I2
sVworld
p12
I1
sVgo
p13
I1
sVhardheaded
p14
I1
sVyes
p15
I1
sVstill
p16
I1
sVtakin
p17
I1
sVhole
p18
I1
sVaint
p19
I5
sVwhose
p20
I1
sVbelieve
p21
I1
sVgroup
p22
I1
sVchain
p23
I1
sVcall
p24
I1
sVtv
p25
I1
sVdatazz
p26
I5
sVmysticle
p27
I1
sVcrew
p28
I2
sVbetter
p29
I1
sVtape
p30
I1
sVequipped
p31
I1
sVheinies
p32
I1
sVlurkin
p33
I1
sVmight
p34
I1
sVkick
p35
I1
sVgave
p36
I1
sVdo
p37
I1
sVgood
p38
I1
sVhit
p39
I1
sVaround
p40
I1
sVyo
p41
I1
sVget
p42
I2
sVya
p43
I1
sVsucker
p44
I1
sVrhyme
p45
I1
sVtrees
p46
I1
sVwayback
p47
I1
sVbreak
p48
I1
sVgame
p49
I1
sVfrontin
p50
I1
sVknow
p51
I3
sVwords
p52
I1
sVgot
p53
I1
sVpayback
p54
I1
sVroxbury
p55
I1
sVseas
p56
I1
sVson
p57
I2
sVday
p58
I1
sVminute
p59
I1
sValpine
p60
I1
sVrebirth
p61
I1
sVlike
p62
I8
sVcause
p63
I5
sVdrop
p64
I1
sVpeeps
p65
I1
sVacross
p66
I1
sVtry
p67
I1
sVstopped
p68
I1
sVhittin
p69
I1
sVreveals
p70
I1
sVwatchin
p71
I1
sVround
p72
I1
sVyall
p73
I1
sVpain
p74
I1
sVem
p75
I1
sVavailable
p76
I1
sVbotched
p77
I1
sVkiddycomecome
p78
I4
sVoften
p79
I1
sVpuny
p80
I1
sVtouch
p81
I1
sVback
p82
I2
sVdead
p83
I2
sVprowl
p84
I1
sVfacts
p85
I1
sVtooken
p86
I1
sVpersona
p87
I1
sVvideo
p88
I1
sVrhymes
p89
I1
sVfail
p90
I1
sVbluffin
p91
I1
sVjimsome
p92
I1
sVeven
p93
I1
sVknees
p94
I1
sVmeditatin
p95
I1
sVgon
p96
I1
sVlead
p97
I1
sVrep
p98
I1
sVsince
p99
I1
sVinside
p100
I1
sVresearch
p101
I1
sVpen
p102
I1
sVbehave
p103
I1
sVsustain
p104
I1
sVwhats
p105
I1
sVnew
p106
I1
sVyoull
p107
I1
sVdoin
p108
I1
sVshows
p109
I1
sVass
p110
I2
sVnoise
p111
I1
sVmad
p112
I1
sVimpressed
p113
I1
sVherb
p114
I1
sVnever
p115
I5
sVweak
p116
I1
sVridin
p117
I1
sVpunks
p118
I1
sVjob
p119
I1
sVhoodie
p120
I1
sVput
p121
I1
sVsing
p122
I1
sVcome
p123
I9
sVmcfadden
p124
I1
sVknowledge
p125
I1
sVshine
p126
I1
sVblizz
p127
I1
sVfigured
p128
I1
sVlast
p129
I1
sVcould
p130
I2
sVpunk
p131
I1
sVlector
p132
I1
sVspankin
p133
I1
sVpuffin
p134
I1
sVpuns
p135
I1
sVclap
p136
I1
sVswing
p137
I1
sVshortcake
p138
I1
sVwhole
p139
I1
sVthink
p140
I1
sVfuckin
p141
I1
sVthats
p142
I4
sVsee
p143
I3
sVpoint
p144
I2
sVfeel
p145
I1
sVsheds
p146
I1
sVsnake
p147
I1
sVhollow
p148
I1
sVchumpstyle
p149
I1
sVnigga
p150
I1
sVbitch
p151
I1
sVcomin
p152
I6
sVcouldnt
p153
I2
sVnext
p154
I1
sVwan
p155
I4
sVstrapped
p156
I1
sVbucklin
p157
I1
sVlight
p158
I1
sVchecked
p159
I1
sVassed
p160
I1
sVprepare
p161
I1
sVhes
p162
I1
sVbeginning
p163
I1
sVnova
p164
I1
sVname
p165
I1
sVpaint
p166
I1
sVgrass
p167
I1
sVmaster
p168
I1
sVway
p169
I1
sVstarr
p170
I1
sVtaken
p171
I1
sVblack
p172
I1
sVtell
p173
I1
sVfriend
p174
I1
sVstymied
p175
I1
sVhead
p176
I1
sVjacks
p177
I1
sVsomethin
p178
I1
sVbrand
p179
I1
sVshallow
p180
I1
sVelse
p181
I1
sVilluminates
p182
I1
sVfess
p183
I1
sVbringin
p184
I1
sVmellow
p185
I1
sVducks
p186
I1
sVtrue
p187
I2
sVchill
p188
I1
sVme
p189
I1
sVwisdom
p190
I1
sVword
p191
I1
sVlook
p192
I2
sVpursue
p193
I1
sVdissect
p194
I1
sVflip
p195
I1
sVniggaz
p196
I3
sVwar
p197
I1
sVstrawberry
p198
I1
sVjamaican
p199
I1
sVfakin
p200
I1
sVpumped
p201
I1
sVstopping
p202
I1
sVta
p203
I1
sVstar
p204
I1
sVsucka
p205
I1
sVsometimes
p206
I1
sVoutta
p207
I1
sVrequest
p208
I1
sVblood
p209
I1
sVit
p210
I1
sVfakes
p211
I1
sVheard
p212
I1
sVim
p213
I7
sVrap
p214
I1
sVlogo
p215
I1
sVwhitehead
p216
I1
sVhuge
p217
I1
sVhoe
p218
I2
sVend
p219
I1
sVpaperbacks
p220
I1
sVsoldier
p221
I1
sVtarnish
p222
I1
sVdeadly
p223
I1
sVdooms
p224
I1
sVable
p225
I1
sVdeserts
p226
I1
sVfar
p227
I1
sVchest
p228
I1
sVmaintain
p229
I1
sVgangstarr
p230
I1
sVdescend
p231
I1
sVyou
p232
I1
sVtrash
p233
I1
sVnice
p234
I1
sVhymn
p235
I1
sVplay
p236
I2
sVused
p237
I1
sVemcees
p238
I1
sVrude
p239
I1
sVwatch
p240
I1
sVshouldve
p241
I1
sVyouve
p242
I2
sVlong
p243
I1
sVstay
p244
I1
sVbrooklyn
p245
I1
sVmouth
p246
I1
sVlay
p247
I1
sVtimbs
p248
I1
sVjealous
p249
I1
sVhurt
p250
I1
sVfriends
p251
I1
sVkid
p252
I1
sVdark
p253
I1
sVremember
p254
I1
sVcrankin
p255
I1
sVbwoy
p256
I1
sVaverage
p257
I1
sVyoure
p258
I5
sVwell
p259
I1
sVnothin
p260
I1
sVface
p261
I1
sVthought
p262
I1
sVpoints
p263
I1
sVcrept
p264
I1
sVna
p265
I5
sVthe
p266
I1
sVfirst
p267
I1
sVaway
p268
I1
sVtypical
p269
I1
s.