(dp1
Vopinions
p2
I1
sVsprayed
p3
I1
sVshot
p4
I3
sVlyrics
p5
I2
sVali
p6
I1
sVmoney
p7
I1
sVfiendish
p8
I1
sVlack
p9
I1
sVfoot
p10
I1
sVbright
p11
I1
sVgang
p12
I1
sVpremiers
p13
I1
sVshake
p14
I1
sVhell
p15
I1
sVbait
p16
I1
sVduece
p17
I1
sVfeat
p18
I1
sVknowledge
p19
I1
sVcup
p20
I1
sVsuave
p21
I1
sVleavin
p22
I1
sVemployer
p23
I1
sVlate
p24
I1
sVhay
p25
I1
sVemployee
p26
I1
sVlord
p27
I1
sVsway
p28
I1
sVbrotha
p29
I1
sVkick
p30
I2
sVta
p31
I1
sVme
p32
I3
sVlame
p33
I1
sVyo
p34
I1
sVget
p35
I5
sVya
p36
I4
sVdope
p37
I1
sVdominions
p38
I1
sVda
p39
I6
sVdat
p40
I1
sVgame
p41
I1
sVroyalty
p42
I1
sVnew
p43
I1
sVhandly
p44
I2
sVbullshit
p45
I1
sVmoe
p46
I1
sVname
p47
I1
sVstunts
p48
I1
sVspeed
p49
I1
sVlike
p50
I4
sVpimp
p51
I1
sVbring
p52
I1
sVyoull
p53
I1
sVdrop
p54
I1
sVtre
p55
I1
sVgun
p56
I1
sVtry
p57
I1
sVooohh
p58
I1
sVtruth
p59
I1
sVrock
p60
I1
sVpopular
p61
I1
sVtold
p62
I1
sVdip
p63
I1
sVmean
p64
I1
sVoui
p65
I4
sVwork
p66
I1
sVneighborhood
p67
I1
sVmental
p68
I1
sVcrowd
p69
I1
sVcruise
p70
I1
sVtea
p71
I1
sVpass
p72
I1
sVhard
p73
I1
sVyeah
p74
I1
sVlight
p75
I1
sVbrother
p76
I1
sVstreet
p77
I1
sVneva
p78
I2
sVyear
p79
I1
sVhome
p80
I1
sV5
I1
sVesophagus
p81
I1
sVchumps
p82
I1
sVstill
p83
I2
sVlead
p84
I1
sVwreck
p85
I1
sVheres
p86
I2
sVfavor
p87
I1
sVwillis
p88
I1
sVduplicate
p89
I1
sVplease
p90
I1
sVgenius
p91
I1
sVstate
p92
I1
sVgreg
p93
I3
sVbuddha
p94
I1
sVgoes
p95
I1
sVprops
p96
I1
sVgot
p97
I4
sVwick
p98
I1
sVever
p99
I2
sVguns
p100
I1
sVred
p101
I1
sVuh
p102
I2
sVass
p103
I1
sVbe
p104
I1
sVrun
p105
I1
sVden
p106
I3
sVquit
p107
I1
sVblunted
p108
I1
sVclay
p109
I1
sVinfallable
p110
I1
sVfree
p111
I1
sVboss
p112
I1
sVparaphenalia
p113
I1
sVput
p114
I1
sVbodega
p115
I1
sVspark
p116
I1
sVcome
p117
I2
sVchange
p118
I1
sVpull
p119
I1
sVfaith
p120
I1
sVhits
p121
I1
sVahead
p122
I1
sVbarns
p123
I1
sVbasso
p124
I1
sVill
p125
I1
sVla
p126
I2
sVcassius
p127
I1
sVkeep
p128
I2
sVplus
p129
I1
sVsketch
p130
I1
sVaction
p131
I1
sVslightly
p132
I1
sVthink
p133
I1
sVdwyck
p134
I2
sVdont
p135
I2
sVfeel
p136
I1
sVtonite
p137
I1
sVmakin
p138
I1
sVsack
p139
I1
sVone
p140
I2
sVsatisfaction
p141
I1
sVask
p142
I1
sVmuhammad
p143
I1
sVwit
p144
I2
sVparkay
p145
I1
sVanother
p146
I2
sVcomin
p147
I1
sVlangston
p148
I1
sVhoes
p149
I1
sVbeats
p150
I1
sVwan
p151
I4
sVwack
p152
I1
sVfee
p153
I1
sVfrom
p154
I1
sVjerkin
p155
I1
sVlose
p156
I1
sVsubtract
p157
I1
sVbite
p158
I1
sVhey
p159
I5
sVmark
p160
I1
sVcapri
p161
I1
sVway
p162
I4
sVstarr
p163
I1
sVpoet
p164
I1
sVfeaturing
p165
I1
sVexpressway
p166
I1
sVheh
p167
I3
sVabstract
p168
I1
sVback
p169
I2
sVdialogue
p170
I1
sVeenie
p171
I1
sVknows
p172
I1
sVprosperous
p173
I1
sVboy
p174
I1
sVtook
p175
I1
sVwish
p176
I1
sVfailure
p177
I1
sVhear
p178
I1
sV8
I1
sVcatch
p179
I1
sV92
p180
I1
sVknack
p181
I1
sVcharity
p182
I1
sVtown
p183
I1
sVfader
p184
I1
sVhughes
p185
I1
sVb
I1
sVthis
p186
I2
sVganstarr
p187
I1
sVoriginate
p188
I1
sVsmooth
p189
I5
sVcant
p190
I1
sVtell
p191
I1
sVclips
p192
I1
sVdroppin
p193
I1
sVlemonade
p194
I1
sVdem
p195
I1
sVpraise
p196
I1
sVchant
p197
I1
sVpiece
p198
I1
sVphillie
p199
I1
sVcould
p200
I3
sVdelete
p201
I1
sVheart
p202
I1
sVcrazy
p203
I1
sVphat
p204
I1
sVah
p205
I3
sVis
p206
I1
sVpremier
p207
I2
sVbitin
p208
I1
sVjewels
p209
I1
sVsay
p210
I7
sVim
p211
I8
sVshit
p212
I1
sVafraid
p213
I1
sVflava
p214
I1
sVprovide
p215
I1
sVna
p216
I4
sVmake
p217
I5
sVpeace
p218
I2
sVrhinocerus
p219
I1
sVminie
p220
I1
sVwrite
p221
I1
sVbeat
p222
I1
sVgangstarr
p223
I1
sVtake
p224
I3
sVpure
p225
I1
sVmeenie
p226
I1
sVnice
p227
I6
sVsure
p228
I3
sVmay
p229
I1
sVbruce
p230
I1
sVdrink
p231
I2
sValert
p232
I1
sVpimps
p233
I1
sVmeaning
p234
I1
sVtrack
p235
I1
sVmad
p236
I1
sVkinda
p237
I1
sVfeelin
p238
I1
sVinserted
p239
I1
sVkid
p240
I1
sVbutter
p241
I1
sVcause
p242
I2
sVmaybe
p243
I1
sVlater
p244
I1
sVlost
p245
I1
sVsorta
p246
I1
sVorderly
p247
I1
sVreaction
p248
I1
sVtime
p249
I1
sValright
p250
I2
sVthats
p251
I1
sVexpands
p252
I1
sVmic
p253
I1
sVleft
p254
I1
s.