(dp1
Vstake
p2
I1
sVlyrics
p3
I2
sVshow
p4
I1
sVyea
p5
I1
sVmoney
p6
I2
sVmove
p7
I1
sVsights
p8
I1
sVtrife
p9
I1
sVdough
p10
I2
sVgang
p11
I1
sVkilo
p12
I1
sVgo
p13
I4
sVhell
p14
I1
sVyes
p15
I1
sVstill
p16
I1
sVfine
p17
I1
sVline
p18
I1
sVaint
p19
I4
sVstyle
p20
I1
sVslow
p21
I1
sVgold
p22
I1
sVpoint
p23
I1
sVjam
p24
I1
sVsmile
p25
I1
sVmight
p26
I1
sVregrets
p27
I1
sVta
p28
I5
sVreal
p29
I1
sVdo
p30
I1
sVpay
p31
I1
sVyo
p32
I1
sVmeans
p33
I1
sVya
p34
I1
sVbig
p35
I2
sVbid
p36
I1
sVrock
p37
I1
sVstop
p38
I1
sVfat
p39
I1
sVme
p40
I1
sVgame
p41
I1
sVknow
p42
I5
sVfeelings
p43
I1
sVhandy
p44
I1
sVlike
p45
I3
sVwont
p46
I1
sVloss
p47
I1
sVnecessary
p48
I1
sVname
p49
I1
sVfrustrated
p50
I1
sVacross
p51
I1
sVtry
p52
I1
sVbag
p53
I1
sVbad
p54
I1
sVman
p55
I2
sVnight
p56
I1
sVgrab
p57
I1
sVbone
p58
I1
sVnigga
p59
I1
sVcould
p60
I1
sVdeal
p61
I1
sVpeople
p62
I1
sVhard
p63
I1
sVback
p64
I1
sVconnections
p65
I1
sVstreet
p66
I1
sVduckets
p67
I1
sVmurderer
p68
I1
sVcrab
p69
I1
sVreally
p70
I1
sVknocked
p71
I1
sVchumps
p72
I1
sVclock
p73
I1
sVlooking
p74
I1
sVgoes
p75
I1
sVit
p76
I1
sVgot
p77
I10
sVcause
p78
I7
sVcorrect
p79
I1
sVass
p80
I1
sVshut
p81
I1
sVmillion
p82
I1
sVrun
p83
I1
sVbold
p84
I1
sVrapping
p85
I1
sVcity
p86
I1
sVnever
p87
I5
sVhere
p88
I1
sVboss
p89
I1
sVfaking
p90
I3
sVpacking
p91
I1
sVlet
p92
I1
sVtickets
p93
I1
sVkissing
p94
I1
sVput
p95
I1
sValong
p96
I1
sVcome
p97
I3
sVstone
p98
I1
sVtapes
p99
I1
sValways
p100
I2
sVtaking
p101
I10
sVsinister
p102
I1
sVjob
p103
I1
sVturn
p104
I1
sVwolf
p105
I1
sVstrapping
p106
I1
sVmaker
p107
I1
sVriffing
p108
I1
sVthats
p109
I2
sVgolden
p110
I1
sVwhats
p111
I1
sVdont
p112
I2
sVheaded
p113
I1
sVfeel
p114
I1
sVflipping
p115
I1
sVclout
p116
I1
sVwalk
p117
I1
sVbro
p118
I1
sVna
p119
I2
sVwit
p120
I6
sVrespect
p121
I1
sVwhos
p122
I1
sVopen
p123
I1
sVripping
p124
I1
sVwan
p125
I2
sVjoking
p126
I1
sVswift
p127
I1
sVcaught
p128
I1
sVdue
p129
I1
sVnext
p130
I1
sVbeep
p131
I1
sVtoo
p132
I2
sVway
p133
I1
sVstarr
p134
I1
sVstalk
p135
I1
sVscheme
p136
I2
sVbitter
p137
I1
sVselling
p138
I1
sVlot
p139
I1
sVfuck
p140
I2
sVunderstand
p141
I2
sVbroke
p142
I1
sVchild
p143
I1
sVknown
p144
I1
sVmeetcha
p145
I1
sVhold
p146
I1
sVfly
p147
I1
sVthis
p148
I2
sVdangerous
p149
I1
sVsmooth
p150
I1
sVcash
p151
I1
sVnine
p152
I1
sVwild
p153
I1
sVmaking
p154
I2
sVloot
p155
I8
sVill
p156
I2
sVjuvenile
p157
I1
sVhistory
p158
I1
sVcontrol
p159
I1
sVive
p160
I4
sVcrazy
p161
I1
sVyoure
p162
I3
sVoutta
p163
I1
sVmine
p164
I1
sVtonight
p165
I1
sVneed
p166
I2
sVcant
p167
I3
sVim
p168
I15
sVburied
p169
I1
sVready
p170
I1
sVseen
p171
I1
sVseem
p172
I1
sVmoves
p173
I3
sVshit
p174
I3
sVlamb
p175
I1
sVend
p176
I1
sVthings
p177
I2
sVmake
p178
I4
sVget
p179
I11
sVnah
p180
I1
sVtake
p181
I1
sVsucker
p182
I1
sVso
p183
I1
sVyou
p184
I1
sVout
p185
I1
sVroll
p186
I1
sVcommand
p187
I1
sVblocks
p188
I1
sVmay
p189
I1
sVadvice
p190
I1
sVhand
p191
I1
sVmad
p192
I3
sVrolling
p193
I1
sVmystery
p194
I1
sVelse
p195
I1
sVkid
p196
I1
sVshort
p197
I1
sVoff
p198
I1
sVclear
p199
I1
sVsometimes
p200
I1
sVflow
p201
I1
sVstash
p202
I1
sVface
p203
I1
sVtech
p204
I1
sVtime
p205
I2
sVveteran
p206
I1
sVcame
p207
I2
s.