(dp1
Vlyrics
p2
I2
sVdance
p3
I1
sVmoney
p4
I2
sVstepped
p5
I1
sVgang
p6
I1
sVhell
p7
I1
sVrecovers
p8
I1
sVaint
p9
I1
sVgold
p10
I1
sVthinking
p11
I1
sVnervous
p12
I1
sVbust
p13
I1
sVcrew
p14
I1
sVlp
p15
I2
sVcircle
p16
I1
sVmight
p17
I3
sVkick
p18
I1
sVinchin
p19
I1
sVwearing
p20
I1
sVaround
p21
I1
sVyo
p22
I2
sVget
p23
I5
sVbig
p24
I1
sVreps
p25
I1
sVgame
p26
I1
sVknow
p27
I2
sVinstead
p28
I1
sVlittle
p29
I2
sVday
p30
I1
sVtrigger
p31
I1
sVwont
p32
I1
sVname
p33
I1
sVyoull
p34
I1
sVbrother
p35
I1
sVnight
p36
I1
sVlooks
p37
I1
sVclaimin
p38
I1
sVscared
p39
I1
sVback
p40
I1
sVgun
p41
I2
sVsociety
p42
I1
sVsee
p43
I2
sVsight
p44
I1
sVoperation
p45
I1
sVthinks
p46
I1
sVbest
p47
I1
sVcloser
p48
I2
sVsaid
p49
I3
sVkids
p50
I1
sVrep
p51
I4
sVrings
p52
I2
sVeverything
p53
I1
sVversion
p54
I2
sVgoes
p55
I1
sVgot
p56
I2
sVcause
p57
I2
sVbody
p58
I1
sVrun
p59
I1
sVloose
p60
I1
sVguess
p61
I1
sVothers
p62
I1
sVput
p63
I1
sVstaring
p64
I1
sVmans
p65
I1
sVok
p66
I1
sVtaking
p67
I1
sVdues
p68
I1
sVthing
p69
I1
sVchain
p70
I2
sVsticking
p71
I1
sVpanicked
p72
I1
sVdont
p73
I1
sVfeel
p74
I1
sVpop
p75
I1
sVone
p76
I2
sVwit
p77
I2
sVfast
p78
I1
sVanother
p79
I1
sVrespect
p80
I1
sVhood
p81
I1
sVwan
p82
I2
sVstory
p83
I1
sVeye
p84
I1
sVten
p85
I1
sVhes
p86
I2
sVtwo
p87
I1
sVlong
p88
I1
sVnext
p89
I1
sVattack
p90
I1
sVstation
p91
I1
sVway
p92
I3
sVstarr
p93
I1
sVkid
p94
I3
sVhead
p95
I1
sVtrapped
p96
I1
sVpark
p97
I1
sVshorty
p98
I3
sVblaming
p99
I1
sVtrain
p100
I1
sVlink
p101
I1
sVstick
p102
I1
sVcatch
p103
I1
sVflinching
p104
I1
sV38
p105
I1
sVcar
p106
I1
sVgetaway
p107
I1
sVmatter
p108
I1
sVcould
p109
I2
sVgone
p110
I1
sVfright
p111
I1
sVgive
p112
I1
sVran
p113
I1
sVtax
p114
I1
sVsay
p115
I1
sVfrantic
p116
I1
sVrap
p117
I1
sVlurking
p118
I1
sVfame
p119
I1
sVhomicide
p120
I1
sVtheyll
p121
I1
sVna
p122
I2
sVself
p123
I1
sVcheck
p124
I1
sVstickup
p125
I1
sVparty
p126
I1
sVyou
p127
I1
sV45th
p128
I1
sVstar
p129
I1
sVbrothers
p130
I5
sVwatch
p131
I1
sVtook
p132
I1
sVmad
p133
I1
sVnothing
p134
I1
sVhurt
p135
I1
sVman
p136
I1
sVdummy
p137
I1
sVkept
p138
I1
sVneck
p139
I1
sVrolex
p140
I1
sVmaybe
p141
I1
sVwell
p142
I1
sVdaily
p143
I1
sVamused
p144
I1
sVwithout
p145
I1
sVpay
p146
I1
sVpulled
p147
I1
sVmake
p148
I2
s.