(dp1
Vfeed
p2
I1
sVinfant
p3
I1
sVlyrics
p4
I2
sVdance
p5
I1
sVlack
p6
I1
sVbring
p7
I1
sVgang
p8
I1
sVpitch
p9
I1
sVvamp
p10
I1
sVfine
p11
I2
sVnasty
p12
I1
sVhunch
p13
I1
sVknowledge
p14
I14
sVstorms
p15
I1
sVatrocities
p16
I1
sVforms
p17
I1
sVto
p18
I1
sVprogram
p19
I1
sVwet
p20
I1
sVdislike
p21
I1
sVsent
p22
I1
sVdoodlin
p23
I1
sVsound
p24
I2
sVthem
p25
I1
sVhit
p26
I1
sVyo
p27
I3
sVget
p28
I2
sVbrothers
p29
I1
sVwatch
p30
I1
sVhate
p31
I1
sVchoice
p32
I1
sVbreak
p33
I1
sVfamous
p34
I1
sVembark
p35
I1
sVknow
p36
I1
sVshadow
p37
I1
sVexact
p38
I1
sVwipe
p39
I1
sVdesire
p40
I1
sVlike
p41
I4
sVyoull
p42
I1
sVscribblin
p43
I1
sVtry
p44
I2
sVthis
p45
I2
sVwhatcha
p46
I1
sVout
p47
I2
sVright
p48
I1
sVart
p49
I1
sVmethods
p50
I1
sVfair
p51
I1
sVour
p52
I1
sVback
p53
I1
sVpast
p54
I1
sVsee
p55
I1
sVemcees
p56
I1
sVdoublee
p57
I1
sVbest
p58
I1
sVtechniques
p59
I1
sVgon
p60
I3
sVthreats
p61
I1
sVwreck
p62
I1
sVheres
p63
I1
sVfeat
p64
I1
sVshall
p65
I1
sVrelate
p66
I1
sVcrush
p67
I1
sVfans
p68
I1
sVintensity
p69
I1
sVgot
p70
I1
sVcause
p71
I7
sVglowin
p72
I1
sVagreement
p73
I1
sVterms
p74
I1
sVexercisin
p75
I1
sVnever
p76
I1
sVweak
p77
I1
sVpunch
p78
I1
sVboss
p79
I2
sVstep
p80
I1
sVimmature
p81
I1
sValthough
p82
I1
sVput
p83
I3
sVrejoice
p84
I1
sVspark
p85
I1
sVkit
p86
I1
sVspeakin
p87
I1
sVthrow
p88
I1
sVdry
p89
I1
sVrhythms
p90
I1
sVknowin
p91
I1
sVinstantaneously
p92
I1
sVswarms
p93
I1
sVill
p94
I5
sVviolence
p95
I1
sVpunk
p96
I1
sVbiting
p97
I1
sVwhole
p98
I1
sVscare
p99
I1
sVthats
p100
I1
sVblind
p101
I1
sVdilemma
p102
I1
sVdont
p103
I1
sVkaboodle
p104
I1
sVfeel
p105
I1
sVwin
p106
I1
sVone
p107
I3
sVbrought
p108
I1
sVrespect
p109
I1
sVbabblin
p110
I1
sVuse
p111
I1
sVeye
p112
I1
sVkeith
p113
I1
sVboring
p114
I1
sVquiz
p115
I1
sVdamo
p116
I1
sVstarr
p117
I1
sVraft
p118
I1
sVcausin
p119
I1
sVserve
p120
I1
sVwisdom
p121
I1
sVwith
p122
I1
sVspirit
p123
I1
sVglad
p124
I1
sVmust
p125
I2
sVme
p126
I3
sVg
I1
sVpursue
p127
I1
sVscience
p128
I1
sVup
p129
I2
sVrhymes
p130
I3
sVn
I1
sVidle
p131
I1
sVhand
p132
I1
sVof
p133
I1
sVvoice
p134
I1
sVcould
p135
I1
sVand
p136
I1
sVheart
p137
I1
sVthatll
p138
I1
sVgive
p139
I2
sVrattle
p140
I1
sVlines
p141
I1
sVmind
p142
I1
sVmine
p143
I1
sVfaker
p144
I1
sVive
p145
I1
sVim
p146
I4
sVrap
p147
I1
sVin
p148
I1
sVcheck
p149
I1
sVthese
p150
I1
sVoratory
p151
I1
sVsilhouette
p152
I1
sVsit
p153
I1
sVrather
p154
I1
sVna
p155
I3
sVmake
p156
I3
sVpat
p157
I1
sVshore
p158
I1
sVunite
p159
I1
sVspeech
p160
I1
sVtake
p161
I3
sVpure
p162
I1
sVanswer
p163
I1
sVyou
p164
I3
sVyoga
p165
I1
sVreciting
p166
I1
sVsure
p167
I1
sVunless
p168
I1
sVpillows
p169
I1
sVthough
p170
I1
sVmay
p171
I1
sVbib
p172
I1
sVrecline
p173
I1
sVdski
p174
I1
sVnonwriting
p175
I1
sVmouth
p176
I1
sVsisters
p177
I1
sVthunder
p178
I1
sVscholars
p179
I1
sVidentity
p180
I1
sVman
p181
I1
sVpeaceful
p182
I1
sVrisin
p183
I1
sVdribblin
p184
I1
sVonto
p185
I1
sVyoure
p186
I5
sVupset
p187
I1
sVquite
p188
I1
sVthink
p189
I1
sVthought
p190
I2
sVswitch
p191
I1
sVfact
p192
I1
sVtime
p193
I3
sVthe
p194
I4
sVfirst
p195
I1
sVmic
p196
I1
sVwind
p197
I1
s.