(dp1
Vprecise
p2
I2
sVgs
p3
I1
sVshoes
p4
I1
sVlyrics
p5
I2
sVmoney
p6
I1
sVstays
p7
I1
sVcheddar
p8
I1
sVpops
p9
I2
sVbooze
p10
I1
sVthrough
p11
I2
sVgang
p12
I1
sVgo
p13
I1
sVshot
p14
I1
sVstill
p15
I1
sVinhilation
p16
I1
sVneedin
p17
I1
sVblow
p18
I1
sVwear
p19
I1
sVcut
p20
I1
sVrevolvin
p21
I1
sVsayin
p22
I3
sVwed
p23
I1
sVcrime
p24
I1
sVreminisce
p25
I1
sVlets
p26
I3
sVweather
p27
I1
sVsorry
p28
I1
sVsent
p29
I1
sVhappened
p30
I2
sVreal
p31
I1
sVthem
p32
I3
sVweve
p33
I1
sVhit
p34
I1
sVyo
p35
I8
sVget
p36
I5
sVmemories
p37
I1
sVdope
p38
I1
sVspell
p39
I1
sVstop
p40
I2
sVbeam
p41
I1
sVknow
p42
I3
sVnew
p43
I1
sVworld
p44
I1
sVtrouble
p45
I2
sVfloozies
p46
I1
sVbullshit
p47
I1
sVdreams
p48
I1
sVbread
p49
I1
sVwont
p50
I1
sVscarred
p51
I1
sVchampagne
p52
I1
sVlike
p53
I7
sVever
p54
I2
sVgettin
p55
I1
sVguns
p56
I1
sVtwice
p57
I2
sVbad
p58
I1
sVstuff
p59
I1
sVschemes
p60
I1
sVlose
p61
I1
sVmovie
p62
I1
sVwent
p63
I1
sVout
p64
I1
sVbond
p65
I1
sVem
p66
I1
sVannhilation
p67
I1
sVset
p68
I1
sVmental
p69
I1
sVdeal
p70
I1
sVpeople
p71
I1
sVgroupies
p72
I1
sVstreets
p73
I2
sVpast
p74
I1
sVcomelates
p75
I1
sVexodus
p76
I1
sVreally
p77
I1
sVpete
p78
I1
sVsaid
p79
I1
sVcrooked
p80
I1
sVgod
p81
I1
sVhavoc
p82
I1
sVwrong
p83
I1
sVsneakers
p84
I1
sVgoes
p85
I2
sVwhassup
p86
I2
sVgot
p87
I7
sVdominate
p88
I1
sVcause
p89
I5
sVdoin
p90
I1
sVdirty
p91
I1
sVass
p92
I1
sVends
p93
I1
sVkicked
p94
I1
sVtriple
p95
I2
sVright
p96
I1
sVwan
p97
I1
sVdoubt
p98
I1
sVknocked
p99
I1
sVstep
p100
I1
sVkillin
p101
I1
sVlet
p102
I1
sVyork
p103
I1
sVnews
p104
I1
sVbigtime
p105
I1
sVcastlegate
p106
I1
sVcome
p107
I1
sVextreme
p108
I1
sVwatts
p109
I1
sVlast
p110
I2
sVoh
p111
I1
sVcould
p112
I1
sVdays
p113
I2
sVdrug
p114
I1
sVkeep
p115
I1
sVsewin
p116
I1
sVthing
p117
I1
sVplus
p118
I1
sVthink
p119
I2
sVblock
p120
I1
sVthats
p121
I2
sVwhats
p122
I1
sVcl
p123
I1
sVscene
p124
I1
sVpop
p125
I1
sVson
p126
I2
sVna
p127
I1
sVmomma
p128
I1
sVnigga
p129
I2
sVlong
p130
I1
sVanother
p131
I1
sVclout
p132
I1
sVcrew
p133
I2
sVforget
p134
I1
sVyouknowhatimean
p135
I1
sVuse
p136
I1
sVgurizzi
p137
I1
sVseein
p138
I1
sVstart
p139
I1
sValways
p140
I1
sVcaught
p141
I1
sVtwo
p142
I1
sVlightin
p143
I1
sVwasnt
p144
I1
sV2
I2
sVtoo
p145
I1
sVway
p146
I1
sVstarr
p147
I1
sVshits
p148
I1
sVtryin
p149
I1
sVbubble
p150
I1
sVfriend
p151
I1
sVlife
p152
I2
sVemblem
p153
I1
sVlungs
p154
I1
sVmad
p155
I2
sVsettin
p156
I1
sVfore
p157
I1
sVhear
p158
I1
sVwanted
p159
I1
sVbaby
p160
I2
sVdeuce
p161
I1
sVeat
p162
I1
sVwomen
p163
I1
sVcrenshaw
p164
I1
sVwhether
p165
I1
sVrecall
p166
I1
sVstraight
p167
I1
sVniggaz
p168
I3
sVmatter
p169
I1
sVworlds
p170
I1
sVthree
p171
I2
sVpraise
p172
I1
sVwild
p173
I1
sVta
p174
I4
sVdidnt
p175
I1
sVheart
p176
I1
sVcorny
p177
I1
sValmost
p178
I1
sVcertain
p179
I1
sVsad
p180
I1
sVhigh
p181
I1
sVim
p182
I3
sVrap
p183
I1
sVneed
p184
I4
sVsomebody
p185
I1
sVshit
p186
I2
sVcream
p187
I1
sVagain
p188
I1
sVextermination
p189
I1
sVnights
p190
I1
sVus
p191
I1
sVsellin
p192
I1
sVthings
p193
I1
sVmake
p194
I4
sVpercent
p195
I1
sVtake
p196
I1
sVyou
p197
I3
sVstrong
p198
I1
sVcoke
p199
I1
sVthough
p200
I2
sVadvice
p201
I5
sVknew
p202
I2
sVproblems
p203
I1
sVpaid
p204
I1
sVstay
p205
I1
sVboston
p206
I1
sVhiphop
p207
I1
sVfuse
p208
I1
sVplan
p209
I2
sVfucked
p210
I1
sVdied
p211
I1
sVman
p212
I11
sVremember
p213
I1
sVstressin
p214
I1
sVsometimes
p215
I1
sVdouble
p216
I1
sVfeud
p217
I1
sVways
p218
I1
sVtime
p219
I3
sVharlem
p220
I1
sVdust
p221
I1
s.