(dp1
Vdeface
p2
I1
sVchicks
p3
I2
sVwhattup
p4
I1
sVliar
p5
I1
sVlyrics
p6
I2
sVfood
p7
I1
sVdreamed
p8
I1
sVmove
p9
I1
sVyoung
p10
I1
sVyears
p11
I1
sVdough
p12
I1
sVgang
p13
I1
sVlove
p14
I1
sVfeat
p15
I1
sVbrink
p16
I1
sVreduced
p17
I1
sVaint
p18
I3
sVlaced
p19
I1
sVha
p20
I1
sVpray
p21
I1
sVpoppin
p22
I1
sVcuz
p23
I1
sVbetter
p24
I2
sVdegrees
p25
I1
sVeasy
p26
I1
sVprixs
p27
I1
sVwhips
p28
I1
sVhanks
p29
I1
sVghetto
p30
I1
sVflinch
p31
I1
sVwhack
p32
I1
sVinterstate
p33
I1
sVplate
p34
I1
sVhit
p35
I2
sVget
p36
I3
sVrules
p37
I2
sVdope
p38
I1
sVrise
p39
I1
sVwatch
p40
I1
sVlame
p41
I1
sVgame
p42
I1
sVevery
p43
I2
sVknow
p44
I2
sVdifference
p45
I1
sVday
p46
I1
sVbank
p47
I1
sVprize
p48
I1
sVkrumbsnatcha
p49
I1
sVearn
p50
I1
sVlike
p51
I7
sVpounds
p52
I1
sValways
p53
I2
sVgettin
p54
I3
sVroughest
p55
I1
sVroll
p56
I1
sVgangsters
p57
I1
sVbad
p58
I1
sVstupid
p59
I1
sVexercise
p60
I1
sVcorners
p61
I1
sVsmall
p62
I1
sVgauge
p63
I1
sVrelentless
p64
I1
sVyall
p65
I2
sVnigga
p66
I1
sVold
p67
I1
sVdoctrine
p68
I1
sVten
p69
I1
sVpeople
p70
I1
sVfolds
p71
I1
sVmet
p72
I1
sVstreets
p73
I1
sVgrabs
p74
I1
sVback
p75
I1
sVgun
p76
I1
sVsee
p77
I2
sVdumb
p78
I2
sVuhuh
p79
I1
sVthick
p80
I1
sVout
p81
I2
sVjuice
p82
I1
sVyouth
p83
I1
sVmissed
p84
I1
sVoften
p85
I1
sVwitnessed
p86
I1
sVhate
p87
I1
sVaway
p88
I1
sVsince
p89
I1
sVplease
p90
I1
sVsadness
p91
I1
sVlegal
p92
I1
sVdifficulties
p93
I1
sVgot
p94
I2
sVlearned
p95
I1
sVpistol
p96
I1
sVmindframe
p97
I1
sVwatchin
p98
I1
sVpullin
p99
I1
sVshut
p100
I6
sVfull
p101
I1
sVuneasy
p102
I1
sVreason
p103
I4
sVstruggle
p104
I1
sVput
p105
I6
sVsing
p106
I1
sVspark
p107
I1
sVstay
p108
I1
sVcome
p109
I2
sVstage
p110
I1
sVbeast
p111
I1
sVkids
p112
I1
sVputtin
p113
I1
sVgimmicky
p114
I1
sVoh
p115
I1
sVog
p116
I1
sVcould
p117
I1
sVownerz
p118
I1
sVstep
p119
I1
sVflipped
p120
I2
sVthing
p121
I2
sVdinner
p122
I1
sVgangsta
p123
I1
sVtwentyone
p124
I1
sVabortion
p125
I1
sVone
p126
I1
sVwhole
p127
I1
sVthink
p128
I3
sVblock
p129
I1
sVthats
p130
I2
sVblind
p131
I1
sVtough
p132
I1
sVdont
p133
I3
sVwall
p134
I1
sVyouf
p135
I1
sVpowerful
p136
I1
sVpop
p137
I1
sVwalk
p138
I1
sVhandsprings
p139
I1
sVbumpy
p140
I1
sVdone
p141
I1
sVlogically
p142
I1
sVtrained
p143
I1
sVring
p144
I1
sVtools
p145
I1
sVbeats
p146
I2
sVspeak
p147
I1
sVfire
p148
I1
sVwan
p149
I1
sVwealth
p150
I1
sVwould
p151
I1
sVyouse
p152
I2
sVexamine
p153
I1
sVblink
p154
I1
sVquestion
p155
I1
sVgangstafied
p156
I1
sVlong
p157
I1
sVfight
p158
I1
sVanyone
p159
I2
sVraps
p160
I1
sVcats
p161
I2
sVdamn
p162
I1
sVinner
p163
I1
sVway
p164
I1
sVstarr
p165
I1
sVtell
p166
I2
sVempty
p167
I1
sVlease
p168
I1
sVmop
p169
I1
sVcontracts
p170
I1
sVlot
p171
I3
sVspit
p172
I1
sVpacks
p173
I1
sVleeches
p174
I1
sVdeaf
p175
I1
sVacquire
p176
I1
sVproperly
p177
I1
sVdeep
p178
I1
sVrulin
p179
I3
sVbelieve
p180
I1
sVkrumb
p181
I2
sVbout
p182
I2
sVwise
p183
I1
sVlockerroom
p184
I1
sVthis
p185
I1
sVfries
p186
I1
sVup
p187
I6
sVniggaz
p188
I2
sVaim
p189
I1
sVcast
p190
I1
sVremain
p191
I1
sVdem
p192
I1
sVcoffin
p193
I1
sVsleazy
p194
I1
sVproperty
p195
I1
sVgunfire
p196
I1
sVive
p197
I2
sVcrazy
p198
I1
sVplus
p199
I2
sVtaste
p200
I1
sVboston
p201
I1
sVmackin
p202
I1
sVmind
p203
I1
sVpopped
p204
I1
sVjewels
p205
I1
sVsprained
p206
I1
sVtom
p207
I1
sVcant
p208
I1
sVim
p209
I11
sVwant
p210
I1
sVseen
p211
I1
sVave
p212
I1
sVfame
p213
I1
sVshit
p214
I5
sVsit
p215
I1
sVna
p216
I1
sVmic
p217
I3
sVholds
p218
I1
sVaroun
p219
I1
sVhot
p220
I3
sVpeoples
p221
I1
sVinch
p222
I1
sVbrag
p223
I1
sVfools
p224
I3
sVreally
p225
I1
sVtalkin
p226
I1
sVtoughest
p227
I1
sVwaitin
p228
I1
sVrepeat
p229
I1
sVsickness
p230
I1
sVkis
p231
I1
sVmax
p232
I1
sVrappers
p233
I1
sVknew
p234
I1
sVflossin
p235
I1
sVaiyyo
p236
I2
sVhand
p237
I3
sVreact
p238
I1
sVbrooklyn
p239
I1
sVwrist
p240
I1
sVmad
p241
I2
sVfresh
p242
I1
sVinfinite
p243
I1
sVsoldifyin
p244
I1
sVguys
p245
I2
sVextortion
p246
I1
sVman
p247
I1
sVdrop
p248
I1
sVwaist
p249
I1
sVyoure
p250
I1
sVhungry
p251
I1
sVoptions
p252
I1
sVbodies
p253
I1
sVtime
p254
I2
sVposition
p255
I1
sVwolves
p256
I1
sVcorporate
p257
I1
sVmake
p258
I1
sVtalk
p259
I1
sVleft
p260
I2
s.