(dp1
Vcode
p2
I1
sVtodays
p3
I1
sVconsider
p4
I1
sVlyrics
p5
I2
sVshow
p6
I2
sVgods
p7
I1
sVfocus
p8
I1
sVentity
p9
I1
sVschoolism
p10
I2
sVelevate
p11
I1
sVradio
p12
I1
sVgang
p13
I1
sVfollow
p14
I1
sVrough
p15
I1
sVtakin
p16
I1
sVchildren
p17
I1
sVislam
p18
I1
sVaint
p19
I2
sVflowers
p20
I1
sVgenius
p21
I1
sVsomewhere
p22
I1
sVruin
p23
I1
sVfather
p24
I1
sVyoung
p25
I1
sVsend
p26
I2
sVlate
p27
I1
sVlets
p28
I2
sVother
p29
I1
sVblack
p30
I1
sVretreat
p31
I1
sVinnocent
p32
I1
sVthoughts
p33
I1
sVhurry
p34
I1
sVsave
p35
I1
sVmentals
p36
I1
sVsent
p37
I1
sVmotherfuckin
p38
I1
sVreal
p39
I1
sVturfs
p40
I1
sVthem
p41
I1
sVaround
p42
I1
sVmeans
p43
I1
sVread
p44
I1
sVruler
p45
I1
sVsafe
p46
I1
sVrhyme
p47
I1
sVpave
p48
I1
sVmention
p49
I1
sVevery
p50
I1
sVknow
p51
I3
sVgot
p52
I2
sVfront
p53
I1
sVworld
p54
I1
sVson
p55
I1
sVexact
p56
I1
sVjuddaism
p57
I1
sVpresidential
p58
I1
sVghetto
p59
I1
sVpops
p60
I1
sVnecessary
p61
I1
sVlike
p62
I4
sVsystematically
p63
I1
sValways
p64
I1
sVgettin
p65
I2
sVpeeps
p66
I1
sVbrother
p67
I1
sVrobbin
p68
I8
sVpursue
p69
I1
sVuniversal
p70
I2
sVforces
p71
I1
sVessential
p72
I1
sVgreedier
p73
I2
sVem
p74
I4
sVright
p75
I1
sVsays
p76
I1
sVsnakes
p77
I1
sVvenue
p78
I1
sVframe
p79
I1
sVstreets
p80
I1
sVorphan
p81
I1
sVback
p82
I3
sVculture
p83
I1
sVsee
p84
I1
sVdesign
p85
I1
sVrhymes
p86
I2
sVyear
p87
I1
sVhome
p88
I1
sVyes
p89
I1
sVbest
p90
I2
sVdunn
p91
I1
sVeven
p92
I1
sVdistricts
p93
I1
sVchumps
p94
I1
sVgon
p95
I1
sVdevilish
p96
I1
sVsun
p97
I1
sVcentury
p98
I1
sVringleaders
p99
I1
sVdemons
p100
I1
sVreligion
p101
I2
sVfloss
p102
I1
sVeventually
p103
I1
sVconquering
p104
I1
sVnew
p105
I1
sVget
p106
I2
sVspells
p107
I1
sVcause
p108
I4
sVplush
p109
I1
sVtold
p110
I1
sVmake
p111
I1
sVtheory
p112
I8
sVpower
p113
I1
sVquran
p114
I1
sVsins
p115
I1
sVhere
p116
I1
sVmmm
p117
I1
sVelijah
p118
I1
sVmeet
p119
I1
sVsuckers
p120
I1
sVteach
p121
I1
sVcome
p122
I1
sVresedential
p123
I1
sVchange
p124
I1
sVwait
p125
I1
sVbelies
p126
I1
sVgreat
p127
I1
sVthou
p128
I1
sVfreedom
p129
I1
sVtaking
p130
I1
sVmaintainin
p131
I1
sVminds
p132
I1
sVtimes
p133
I1
sVthing
p134
I1
sVseeds
p135
I1
sVdue
p136
I1
sVsocial
p137
I1
sVopinion
p138
I1
sVinterviews
p139
I1
sVfuckin
p140
I1
sVthats
p141
I5
sVwhats
p142
I1
sVdont
p143
I1
sVblown
p144
I1
sVowe
p145
I1
sVcreatin
p146
I1
sVmalcolm
p147
I1
sVschooling
p148
I1
sVcommunity
p149
I1
sVone
p150
I4
sVdentals
p151
I1
sVanother
p152
I1
sVold
p153
I1
sVmessage
p154
I1
sVgod
p155
I1
sVnowadays
p156
I1
sVhood
p157
I8
sVwan
p158
I2
sVwack
p159
I1
sVpetty
p160
I1
sVtroops
p161
I1
sVwould
p162
I1
sVarmy
p163
I1
sVcreate
p164
I2
sVscan
p165
I1
sVvisit
p166
I1
sVhey
p167
I1
sVleast
p168
I1
sVchristianity
p169
I1
sVmilitant
p170
I1
sVdoubt
p171
I1
sVwheres
p172
I1
sVway
p173
I3
sVstarr
p174
I1
sVwaste
p175
I1
sVwar
p176
I1
sVsort
p177
I1
sVmedia
p178
I1
sVholy
p179
I1
sVthat
p180
I1
sVwisdom
p181
I1
sVdeep
p182
I1
sVbringin
p183
I1
sVsqueeze
p184
I1
sVtrue
p185
I1
sVcircle
p186
I1
sVmust
p187
I2
sVleary
p188
I1
sVnone
p189
I1
sVwhether
p190
I1
sVcant
p191
I2
sVpour
p192
I1
sVtell
p193
I1
sVyouth
p194
I3
sVmatter
p195
I1
sVnear
p196
I1
sVfuture
p197
I1
sVwild
p198
I1
sVsituation
p199
I1
sVloot
p200
I1
sVoutcome
p201
I1
sVsculpture
p202
I1
sVill
p203
I1
sVmeant
p204
I1
sVready
p205
I1
sVsees
p206
I1
sVleadin
p207
I1
sVgive
p208
I2
sVwasnt
p209
I1
sVis
p210
I1
sVshare
p211
I1
sVbuddhaism
p212
I1
sVjuice
p213
I1
sVsay
p214
I1
sVim
p215
I3
sVneed
p216
I1
sVseen
p217
I1
sVseek
p218
I1
sVid
p219
I1
sVinformation
p220
I1
sVus
p221
I3
sVguru
p222
I2
sVthings
p223
I1
sVthinkin
p224
I2
sVpeace
p225
I2
sVwater
p226
I1
sVtil
p227
I1
sVpoliticians
p228
I1
sVstrange
p229
I1
sVtake
p230
I1
sVdoors
p231
I1
sVyou
p232
I1
sVdefeat
p233
I1
sVpoor
p234
I1
sVbrothers
p235
I1
sVthough
p236
I1
sVdonahue
p237
I1
sVdoin
p238
I2
sVdrawers
p239
I1
sVpaid
p240
I1
sVkeepin
p241
I2
sVwrong
p242
I1
sVlay
p243
I1
sVnothing
p244
I1
sVsnatch
p245
I1
sVopportunity
p246
I1
sVsides
p247
I1
sVstructure
p248
I1
sVman
p249
I4
sVyeah
p250
I1
sVsomethin
p251
I2
sVdefendin
p252
I1
sVinheritance
p253
I1
sVflow
p254
I1
sVface
p255
I2
sVdeceive
p256
I1
sVna
p257
I3
sVorganization
p258
I1
sVthe
p259
I1
sVfirst
p260
I1
sVkickin
p261
I2
s.