(dp1
Vlyrics
p2
I2
sVoverachiever
p3
I1
sVmoney
p4
I1
sVlay
p5
I1
sVwools
p6
I1
sVpops
p7
I1
sVwifey
p8
I1
sVrocked
p9
I1
sVintricate
p10
I1
sVbreddern
p11
I1
sVdistress
p12
I1
sVaint
p13
I3
sVchain
p14
I1
sVcaesars
p15
I4
sVexcept
p16
I1
sVbust
p17
I2
sVcrew
p18
I1
sVlate
p19
I1
sVinnocent
p20
I1
sVcrack
p21
I1
sVgang
p22
I1
sVselfinterests
p23
I1
sVtake
p24
I1
sVreal
p25
I1
sVmove
p26
I1
sVlivin
p27
I2
sVfate
p28
I1
sVget
p29
I2
sVrise
p30
I1
sVwatch
p31
I1
sVmention
p32
I1
sVgame
p33
I1
sVones
p34
I1
sVknow
p35
I1
sVworld
p36
I1
sVnow
p37
I2
sVtreachery
p38
I1
sVday
p39
I1
sVdumpin
p40
I1
sVfour
p41
I1
sVlike
p42
I5
sVsabotage
p43
I7
sV18andahalf
p44
I1
sVleave
p45
I1
sVdisillusioned
p46
I1
sVteam
p47
I1
sVfound
p48
I1
sVmean
p49
I1
sVnigga
p50
I2
sVgalavantin
p51
I1
sVhouse
p52
I1
sVstreets
p53
I1
sVmagnificent
p54
I1
sVback
p55
I2
sVused
p56
I1
sVtouch
p57
I1
sVsee
p58
I2
sVfever
p59
I1
sVbed
p60
I1
sVpass
p61
I1
sVgirl
p62
I1
sVwhip
p63
I1
sVout
p64
I2
sVeven
p65
I1
sVhourly
p66
I1
sVgod
p67
I1
sVrep
p68
I1
sVrings
p69
I1
sVcausin
p70
I1
sVplayground
p71
I1
sVgoes
p72
I1
sVsheisty
p73
I1
sVgot
p74
I4
sVchains
p75
I1
sVpublic
p76
I1
sVkneel
p77
I1
sVbody
p78
I1
sVchose
p79
I1
sVpower
p80
I1
sVpunks
p81
I1
sVboss
p82
I1
sVstep
p83
I1
sVsmokin
p84
I1
sVput
p85
I2
sVpeep
p86
I2
sVthrow
p87
I1
sVchange
p88
I1
sVon
p89
I1
sVprotect
p90
I1
sVknowin
p91
I1
sVindustry
p92
I1
sVchanged
p93
I1
sVkeep
p94
I1
sVplus
p95
I1
sVcommit
p96
I1
sVthink
p97
I1
sVplan
p98
I1
sVnamed
p99
I1
sVwhats
p100
I1
sVdont
p101
I2
sVfeel
p102
I1
sVcowardly
p103
I1
sVwithin
p104
I1
sVmakin
p105
I1
sVcrib
p106
I1
sVone
p107
I2
sVnames
p108
I1
sVcommitin
p109
I1
sVtrust
p110
I3
sVguess
p111
I1
sVswings
p112
I1
sVdeception
p113
I1
sVjudgment
p114
I1
sVtwo
p115
I1
sVnext
p116
I1
sVanyone
p117
I1
sVaccept
p118
I1
sVkingpin
p119
I1
sVlot
p120
I1
sVstarr
p121
I1
sVkid
p122
I1
sVwar
p123
I2
sVsabotagell
p124
I1
sVnobody
p125
I3
sVdissension
p126
I1
sVlink
p127
I1
sVpotent
p128
I1
sVcatch
p129
I1
sVmade
p130
I1
sVlook
p131
I1
sVraw
p132
I1
sVdead
p133
I1
sVcash
p134
I1
sVniggaz
p135
I1
sVmatter
p136
I2
sVdawg
p137
I1
sVknocked
p138
I1
sVsituation
p139
I1
sVlawgiver
p140
I1
sVweapon
p141
I1
sVronnies
p142
I2
sVfigure
p143
I1
sVjewels
p144
I1
sVpushed
p145
I1
sVcant
p146
I4
sVim
p147
I5
sVwant
p148
I1
sVready
p149
I10
sVoccur
p150
I1
sVshit
p151
I1
sVdifferent
p152
I1
sVclickass
p153
I1
sVweakened
p154
I1
sVmake
p155
I1
sVchest
p156
I1
sVcaesar
p157
I3
sVgangstarr
p158
I1
sVbest
p159
I2
sV80s
p160
I1
sVschemin
p161
I1
sVronnie
p162
I2
sVsure
p163
I1
sVclean
p164
I2
sVknew
p165
I1
sVunderhand
p166
I1
sVtries
p167
I1
sVmad
p168
I1
sVextremely
p169
I1
sVgrow
p170
I1
sVman
p171
I1
sVchemistry
p172
I1
sVespecially
p173
I1
sVranks
p174
I1
sVtry
p175
I2
sVbing
p176
I1
sVyoure
p177
I1
sVstash
p178
I1
sVwing
p179
I1
sVdigress
p180
I1
sVwrench
p181
I1
sVpricks
p182
I1
sVtime
p183
I1
sVusual
p184
I1
sVmusical
p185
I1
sVgreed
p186
I1
sVleft
p187
I1
s.