(dp1
Vfold
p2
I1
sVsaying
p3
I1
sVschemes
p4
I1
sVlove
p5
I1
sVdont
p6
I1
sVlyrics
p7
I2
sVprayers
p8
I3
sVfeel
p9
I1
sVfathers
p10
I1
sVtry
p11
I1
sVdestroyed
p12
I1
sVback
p13
I1
sVone
p14
I1
sVna
p15
I1
sVcant
p16
I1
sVwit
p17
I2
sVkill
p18
I1
sVgang
p19
I1
sVanother
p20
I1
sVgo
p21
I1
sVhell
p22
I1
sVhappen
p23
I1
sVtheyre
p24
I1
sVfind
p25
I1
sVconcern
p26
I1
sVagain
p27
I1
sVus
p28
I2
sVgon
p29
I1
sVknowledge
p30
I1
sVknows
p31
I1
sVplan
p32
I1
sVthings
p33
I1
sVexplain
p34
I1
sVdanger
p35
I1
sVfears
p36
I1
sVfast
p37
I1
sVmental
p38
I1
sVmay
p39
I1
sVtake
p40
I2
sVgoes
p41
I1
sVstarr
p42
I1
sVsecond
p43
I1
sVhold
p44
I1
sVmessing
p45
I1
sVcause
p46
I4
sVlisten
p47
I1
sVlife
p48
I1
sVnever
p49
I1
sVsomebody
p50
I1
sVaround
p51
I2
sVsee
p52
I1
sVliving
p53
I1
sVya
p54
I2
sVdevised
p55
I1
sVhighs
p56
I1
sVlearn
p57
I1
sVstrong
p58
I1
sVsystematic
p59
I1
sVself
p60
I1
sVreason
p61
I1
sVevery
p62
I1
sVknow
p63
I1
sVahun
p64
I1
sVtoyed
p65
I1
sVmind
p66
I1
sVthrill
p67
I1
sVmothers
p68
I1
sVmany
p69
I1
sVstraight
p70
I1
sVyoure
p71
I2
sVsay
p72
I4
sVclown
p73
I1
sVessential
p74
I1
sVexcitement
p75
I1
sVthing
p76
I1
sVerase
p77
I1
sVtrying
p78
I1
sVtime
p79
I1
sVquick
p80
I1
sVsimply
p81
I1
sVdream
p82
I1
sVthink
p83
I1
sVcomes
p84
I1
sVlows
p85
I1
s.