(dp1
Vchicks
p2
I1
sVshot
p3
I1
sVlyrics
p4
I2
sVdeck
p5
I1
sVmoney
p6
I1
sVnot
p7
I1
sVgang
p8
I1
sVshake
p9
I1
sVyet
p10
I1
sVima
p11
I1
sVcollectin
p12
I1
sVmud
p13
I1
sVhot
p14
I1
sVtidop
p15
I3
sVbetter
p16
I1
sVkick
p17
I1
sVinstantly
p18
I1
sVversus
p19
I1
sVdo
p20
I1
sVsomeone
p21
I1
sVyo
p22
I1
sVget
p23
I4
sVstop
p24
I1
sVuhh
p25
I1
sVfeelin
p26
I1
sVbreak
p27
I1
sVcornballs
p28
I1
sVqualified
p29
I1
sVknow
p30
I1
sVfront
p31
I1
sVmob
p32
I1
sVstonewalled
p33
I1
sVbeggin
p34
I1
sVlike
p35
I3
sVdig
p36
I1
sVlaying
p37
I3
sVloser
p38
I1
sVvictory
p39
I3
sVhittin
p40
I1
sVclap
p41
I1
sVright
p42
I1
sVforce
p43
I1
sVpeople
p44
I1
sVyeah
p45
I3
sVresist
p46
I1
sVsee
p47
I5
sVgoin
p48
I1
sVthing
p49
I1
sVout
p50
I2
sVgon
p51
I3
sVpros
p52
I1
sVmay
p53
I1
sVwaiting
p54
I3
sVfog
p55
I1
sVprops
p56
I1
sVgot
p57
I3
sVconnectin
p58
I1
sVcause
p59
I2
sVpants
p60
I1
sVass
p61
I3
sVplatinum
p62
I1
sVdirt
p63
I1
sVattention
p64
I1
sVweak
p65
I1
sVjob
p66
I1
sVpaid
p67
I1
sVscoped
p68
I1
sVbs
p69
I1
sVput
p70
I3
sVplots
p71
I1
sVchoked
p72
I1
sVsayin
p73
I1
sVboy
p74
I1
sVjakes
p75
I1
sVkeep
p76
I1
sVdisappearin
p77
I1
sVyall
p78
I2
sVfeds
p79
I1
sVhistory
p80
I1
sVthats
p81
I3
sVdont
p82
I1
sVnonsense
p83
I1
sVson
p84
I2
sVdown
p85
I1
sVbitch
p86
I1
sVme
p87
I1
sVrespect
p88
I1
sVmist
p89
I1
sVconference
p90
I1
sVwan
p91
I2
sVheads
p92
I1
sVworking
p93
I1
sVnext
p94
I3
sVstart
p95
I1
sVgrimy
p96
I1
sVstarr
p97
I1
sVman
p98
I1
sVonslaught
p99
I1
sVeyes
p100
I3
sVon
p101
I2
sVfly
p102
I1
sVmad
p103
I1
sVfuck
p104
I1
sVtook
p105
I1
sVsurprisingly
p106
I3
sVhurt
p107
I1
sVbaby
p108
I2
sVhaters
p109
I1
sVsound
p110
I1
sVkind
p111
I1
sVword
p112
I1
sVraw
p113
I1
sVwork
p114
I8
sVup
p115
I1
sVniggaz
p116
I2
sVstalk
p117
I1
sVmeet
p118
I1
sVbet
p119
I1
sVmistake
p120
I3
sVive
p121
I3
sVcrazy
p122
I1
sVblackballed
p123
I1
sVnetworkin
p124
I1
sVmine
p125
I3
sVheard
p126
I1
sVcant
p127
I2
sVim
p128
I7
sVwant
p129
I1
sVwalks
p130
I1
sVshit
p131
I2
sVfunny
p132
I1
sVshirt
p133
I1
sVlame
p134
I1
sVna
p135
I5
sVveteran
p136
I1
sVlamp
p137
I1
sVrunnin
p138
I1
sVchest
p139
I1
sVtake
p140
I1
sVdeelow
p141
I1
sVputtin
p142
I2
sVreally
p143
I1
sVstatus
p144
I3
sVgravy
p145
I1
sVdillznick
p146
I1
sVthough
p147
I1
sVescalate
p148
I3
sVwatch
p149
I3
sVdoin
p150
I2
sVspot
p151
I1
sVaiyyo
p152
I3
sVpoked
p153
I1
sVplan
p154
I1
sVhawk
p155
I1
sVblazin
p156
I1
sVgrow
p157
I1
sVthoughts
p158
I1
sVkid
p159
I3
sVviciously
p160
I1
sVbangin
p161
I1
sVshady
p162
I1
sVlater
p163
I1
sVheat
p164
I1
sVgators
p165
I1
sVtech
p166
I1
sVshade
p167
I1
sVtime
p168
I1
sVdream
p169
I1
sVmake
p170
I1
sVtalk
p171
I1
s.