(dp1
Vchicks
p2
I1
sVpah
p3
I1
sVshot
p4
I1
sVlyrics
p5
I2
sVshow
p6
I2
sVfounded
p7
I1
sVdough
p8
I2
sVgang
p9
I1
sVlove
p10
I1
sVstill
p11
I2
sVaint
p12
I2
sVchain
p13
I1
sVzone
p14
I2
sVdick
p15
I1
sVaimin
p16
I1
sVstyles
p17
I1
sVsound
p18
I1
sVhandle
p19
I1
sVyo
p20
I3
sVget
p21
I1
sVya
p22
I1
sVmention
p23
I1
sVgame
p24
I1
sVbiz
p25
I1
sVknow
p26
I4
sVbullshit
p27
I1
sVvast
p28
I1
sVzonin
p29
I5
sVlike
p30
I5
sVshock
p31
I1
sVgun
p32
I1
sVstupid
p33
I1
sVholdin
p34
I1
sVbone
p35
I1
sVdis
p36
I1
sVem
p37
I1
sVdeal
p38
I1
sVmagnums
p39
I1
sVstreets
p40
I1
sVrereal
p41
I2
sVblow
p42
I1
sVplayin
p43
I1
sVwitness
p44
I1
sVfor
p45
I1
sVsince
p46
I1
sVfucks
p47
I1
sVprops
p48
I1
sVgot
p49
I4
sVcause
p50
I4
sVfoundation
p51
I1
sVbusiness
p52
I1
sVnever
p53
I1
sVdome
p54
I1
sVstep
p55
I1
sVlet
p56
I1
sVtrunk
p57
I1
sVthrone
p58
I1
sVboy
p59
I3
sVprotect
p60
I1
sVkids
p61
I1
sVknowin
p62
I1
sVdyin
p63
I1
sVpreem
p64
I1
sVkeep
p65
I1
sVgames
p66
I1
sVyall
p67
I1
sVpick
p68
I1
sVthats
p69
I2
sVgolden
p70
I2
sValready
p71
I1
sVwhats
p72
I1
sVextra
p73
I2
sVowe
p74
I1
sVothers
p75
I1
sVpop
p76
I1
sVson
p77
I1
sVtoys
p78
I1
sVcancel
p79
I1
sVrespect
p80
I1
sVnext
p81
I1
sVspeak
p82
I3
sVwan
p83
I2
sVcasket
p84
I1
sVfrom
p85
I1
sVchrome
p86
I1
sVangry
p87
I1
sVwhos
p88
I1
sVspaz
p89
I1
sVconfident
p90
I1
sVlive
p91
I1
sVslowly
p92
I1
sVlot
p93
I1
sVstarr
p94
I1
sVmusic
p95
I1
sVpi
p96
I1
sVlisten
p97
I2
sVfiles
p98
I1
sVthat
p99
I1
sVbitches
p100
I1
sVdeadin
p101
I1
sVshoot
p102
I1
sVboys
p103
I1
sVheat
p104
I1
sVtrain
p105
I1
sVstifle
p106
I1
sVtrue
p107
I1
sVme
p108
I1
sVhearin
p109
I1
sVplayer
p110
I1
sVthis
p111
I2
sVsex
p112
I1
sVup
p113
I1
sVus
p114
I1
sVproblem
p115
I1
sVdrops
p116
I1
sVbet
p117
I1
sVheart
p118
I1
sVgive
p119
I2
sVrecognize
p120
I1
sVis
p121
I2
sVpremier
p122
I1
sVneed
p123
I1
sVconspiracy
p124
I1
sVim
p125
I11
sVrhymesll
p126
I1
sVallen
p127
I1
sVvoice
p128
I1
sVshit
p129
I3
sVlid
p130
I1
sVend
p131
I1
sVfool
p132
I1
sVguru
p133
I2
sVna
p134
I2
sVsame
p135
I1
sVtil
p136
I1
sVfearin
p137
I1
sVanswer
p138
I1
sVnice
p139
I1
sVgrown
p140
I1
sVplay
p141
I1
sVstar
p142
I1
sVima
p143
I2
sVstay
p144
I1
sVmad
p145
I1
sVon
p146
I1
sVauthentic
p147
I1
sVman
p148
I1
sVgravy
p149
I1
sVflow
p150
I1
sVstash
p151
I2
sVswitch
p152
I1
sVtime
p153
I1
sValright
p154
I1
sVtall
p155
I1
s.