(dp1
Vprecise
p2
I1
sVthink
p3
I2
sVshot
p4
I1
sVlyrics
p5
I2
sVshow
p6
I1
sVrapture
p7
I1
sVmoney
p8
I3
sVover
p9
I1
sVchild
p10
I1
sVcompound
p11
I1
sVtested
p12
I1
sVtrade
p13
I1
sVjiveass
p14
I1
sVbring
p15
I1
sVceasars
p16
I1
sVweeded
p17
I1
sVfelon
p18
I1
sVtouch
p19
I1
sVhell
p20
I1
sVstill
p21
I1
sVfeat
p22
I1
sVground
p23
I1
sVaint
p24
I1
sVyork
p25
I1
sVstyle
p26
I1
sVdeath
p27
I1
sVdelegate
p28
I1
sVchain
p29
I1
sVtecs
p30
I1
sVreeves
p31
I1
sVfacelifts
p32
I1
sVtop
p33
I1
sVcrime
p34
I3
sVbetter
p35
I3
sVcoliseum
p36
I1
sVspacious
p37
I1
sVfade
p38
I1
sVunder
p39
I1
sVmelon
p40
I1
sVours
p41
I1
sVrighteous
p42
I1
sVsauce
p43
I1
sVknockin
p44
I1
sVkick
p45
I1
sVta
p46
I1
sVstyles
p47
I1
sVglobal
p48
I2
sVhit
p49
I1
sVdiseases
p50
I1
sVtorture
p51
I1
sVget
p52
I5
sVbeat
p53
I1
sVbreaks
p54
I1
sVsittin
p55
I1
sVtalk
p56
I1
sVhonies
p57
I1
sVjayhovah
p58
I1
sVinformants
p59
I1
sVdark
p60
I1
sVaim
p61
I1
sVgame
p62
I1
sVnovel
p63
I1
sVspittin
p64
I1
sVknow
p65
I1
sVrape
p66
I1
sVhalf
p67
I1
sVjoin
p68
I1
sVtouched
p69
I1
sVcelebrate
p70
I1
sVsperm
p71
I1
sVdominate
p72
I1
sVlike
p73
I20
sVlost
p74
I1
sVended
p75
I1
sVfully
p76
I1
sVdrop
p77
I1
sVrapper
p78
I1
sVtuned
p79
I1
sVtry
p80
I3
sVright
p81
I1
sVholdin
p82
I1
sVgram
p83
I1
sVshots
p84
I3
sVteam
p85
I2
sVquick
p86
I1
sVfound
p87
I1
sVtold
p88
I1
sVinside
p89
I1
sVyall
p90
I1
sVrooms
p91
I1
sVem
p92
I3
sVbarnes
p93
I1
sVnigga
p94
I1
sVgeyeah
p95
I1
sVharpoon
p96
I1
sVpeople
p97
I2
sVeights
p98
I1
sVspring
p99
I1
sVscared
p100
I1
sVplant
p101
I1
sVseat
p102
I1
sVroc
p103
I1
sVgo
p104
I2
sVsee
p105
I3
sVlaced
p106
I1
sVniggaz
p107
I7
sVhoes
p108
I1
sVfail
p109
I1
sVanthem
p110
I1
sVarsenic
p111
I1
sVwonder
p112
I1
sVeven
p113
I1
sVrapist
p114
I1
sVmovin
p115
I2
sVhomies
p116
I1
sVfoamin
p117
I1
sVmatrix
p118
I1
sVways
p119
I1
sVhate
p120
I2
sVaway
p121
I1
sVpros
p122
I1
sVice
p123
I1
sVapplaud
p124
I1
sVdisrespect
p125
I1
sVgoes
p126
I1
sVit
p127
I3
sVgot
p128
I5
sVorder
p129
I1
sVcause
p130
I1
sVspeed
p131
I1
sVshows
p132
I1
sVseeded
p133
I1
sVnever
p134
I2
sVrun
p135
I1
sVpower
p136
I1
sVrims
p137
I1
sVfat
p138
I1
sVsold
p139
I1
sVmen
p140
I2
sVmotherfucker
p141
I1
sVdome
p142
I1
sVwater
p143
I2
sVcochran
p144
I1
sVbleek
p145
I1
sVlet
p146
I1
sVflows
p147
I1
sVwiddit
p148
I1
sVwais
p149
I1
sVaffiliated
p150
I1
sVsanka
p151
I1
sVfortytwo
p152
I1
sVheatseekin
p153
I1
sVrocafella
p154
I1
sVcelebration
p155
I2
sVkeepin
p156
I1
sVhits
p157
I1
sVtapes
p158
I1
sVmaguire
p159
I1
sVcareer
p160
I1
sVgod
p161
I1
sVgivin
p162
I1
sVpunk
p163
I1
sVheating
p164
I1
sVscreamin
p165
I1
sVtraceless
p166
I1
sVthing
p167
I1
sVroman
p168
I1
sVevident
p169
I1
sVlookin
p170
I1
sVfaces
p171
I1
sVspin
p172
I1
sVvocals
p173
I1
sVwhole
p174
I1
sVmotherfuckers
p175
I4
sVblock
p176
I1
sVthats
p177
I2
sVdeveloped
p178
I1
sVlove
p179
I1
sVdont
p180
I1
sVfamily
p181
I1
sVpoint
p182
I1
sVegypt
p183
I1
sVsweet
p184
I1
sVbulgin
p185
I1
sVjeans
p186
I1
sVwhatever
p187
I1
sVone
p188
I1
sVbrought
p189
I1
sVput
p190
I1
sVjayz
p191
I1
sVwit
p192
I1
sVoughta
p193
I1
sVrespect
p194
I1
sVfbi
p195
I1
sVcocaine
p196
I1
sVmaricon
p197
I1
sVflowers
p198
I1
sV16s
p199
I1
sVwan
p200
I2
sVstory
p201
I1
sVround
p202
I1
sVlifes
p203
I1
sVsqueezin
p204
I1
sVchrome
p205
I1
sVtoothpaste
p206
I1
sVhearse
p207
I1
sVstart
p208
I1
sVsecret
p209
I1
sVcall
p210
I1
sVwheezing
p211
I1
sVwrapped
p212
I1
sVwhite
p213
I1
sVcondone
p214
I1
sVclap
p215
I1
sVcub
p216
I1
sVwants
p217
I1
sVshower
p218
I1
sVhuntin
p219
I1
sVspit
p220
I1
sVlatex
p221
I1
sVfreestyle
p222
I1
sVbelieve
p223
I1
sVlocal
p224
I1
sVback
p225
I2
sVweaved
p226
I1
sVnarrowly
p227
I1
sVdoctors
p228
I1
sVwasted
p229
I1
sVsex
p230
I1
sVmemphis
p231
I1
sVsurround
p232
I1
sVrunnin
p233
I1
sVgrill
p234
I1
sVcia
p235
I1
sVmade
p236
I1
sVlocked
p237
I1
sVanchor
p238
I1
sVmc
p239
I1
sVthis
p240
I1
sVcar
p241
I1
sVride
p242
I1
sVup
p243
I1
sVus
p244
I6
sVtrey
p245
I1
sVstreet
p246
I2
sVflame
p247
I1
sVhope
p248
I1
sVdea
p249
I1
sVzonin
p250
I1
sVill
p251
I1
sVcaught
p252
I2
sVlick
p253
I1
sVpicture
p254
I1
sVplay
p255
I1
sVpharoahs
p256
I1
sValmost
p257
I1
sVhiatus
p258
I1
sVscrewface
p259
I1
sVfuck
p260
I3
sVhoney
p261
I1
sVcant
p262
I6
sVim
p263
I2
sVmillionaire
p264
I1
sVrap
p265
I2
sVhome
p266
I1
sVaces
p267
I1
sVidolize
p268
I1
sVshit
p269
I2
sVsuperman
p270
I1
sVdrugs
p271
I1
sVsummers
p272
I1
sVthugs
p273
I1
sVprovoke
p274
I1
sVlame
p275
I1
sVna
p276
I2
sVtasteless
p277
I1
sVjerry
p278
I1
sVparapalegic
p279
I1
sVsnatchin
p280
I1
sVya
p281
I7
sVhot
p282
I1
sVtake
p283
I1
sVfracture
p284
I1
sVfrail
p285
I1
sVnew
p286
I1
sVsin
p287
I1
sVfrontin
p288
I1
sVbanker
p289
I1
sVnoble
p290
I1
sVpoker
p291
I1
sVtried
p292
I1
sVrain
p293
I1
sVfunny
p294
I1
sVflooded
p295
I1
sVsets
p296
I1
sVspot
p297
I2
sVevil
p298
I1
sVhand
p299
I1
sVleave
p300
I2
sVminds
p301
I1
sVmac
p302
I1
sVconnected
p303
I1
sVblood
p304
I1
sVsheets
p305
I1
sVchris
p306
I1
sVcartoons
p307
I1
sVclue
p308
I1
sVblazin
p309
I1
sVwarming
p310
I1
sVkeep
p311
I1
sVknown
p312
I1
sVsomethin
p313
I1
sVresident
p314
I1
sVland
p315
I1
sVomen
p316
I1
sVfour
p317
I2
sVplainclothes
p318
I1
sVbangin
p319
I1
sVyoure
p320
I1
sVflow
p321
I1
sVface
p322
I1
sVtenspeed
p323
I1
sVsoap
p324
I1
sVpart
p325
I1
sVjail
p326
I1
sVgreatest
p327
I1
sVpay
p328
I1
sVodorless
p329
I1
sVbarrel
p330
I1
sVsweater
p331
I1
sVrep
p332
I1
sVbodies
p333
I1
sV8th
p334
I1
s.