(dp1
Vchicks
p2
I1
sVsince
p3
I1
sVshot
p4
I1
sVhelp
p5
I1
sVlyrics
p6
I2
sVwhoever
p7
I1
sVmoney
p8
I2
sVsoon
p9
I1
sVfoul
p10
I1
sVgo
p11
I1
sVfeat
p12
I1
sVwiled
p13
I1
sVaint
p14
I2
sVslow
p15
I1
sVjay
p16
I1
sVguts
p17
I1
sVyoung
p18
I1
sVbullshit
p19
I1
sVeasy
p20
I1
sVti
p21
I1
sVengulfed
p22
I1
sVbarrow
p23
I1
sVsauce
p24
I1
sVeasier
p25
I1
sVsmart
p26
I1
sVfoulest
p27
I1
sVreal
p28
I2
sVgood
p29
I1
sVhit
p30
I2
sVworse
p31
I1
sVmuthafuckin
p32
I1
sVdope
p33
I1
sVschool
p34
I1
sVevery
p35
I1
sVmarcy
p36
I12
sVgot
p37
I8
sVone
p38
I2
sVdissin
p39
I1
sVday
p40
I1
sVthinkin
p41
I1
sVcrabs
p42
I1
sVearn
p43
I1
sVlike
p44
I6
sVjoked
p45
I1
sVdie
p46
I1
sVcool
p47
I1
sVgettin
p48
I1
sVliftin
p49
I1
sVchieva
p50
I1
sVguns
p51
I1
sVleave
p52
I1
sVstuff
p53
I1
sVsteps
p54
I2
sValways
p55
I1
sVwent
p56
I8
sVsoft
p57
I1
sVyall
p58
I2
sVmutts
p59
I1
sVright
p60
I1
sVold
p61
I3
sVten
p62
I2
sVjokin
p63
I1
sVstreets
p64
I2
sVback
p65
I34
sVhim
p66
I2
sVup
p67
I3
sVfold
p68
I1
sVcaliber
p69
I1
sVhelpin
p70
I1
sVbest
p71
I1
sVout
p72
I1
sVeven
p73
I1
sVwhat
p74
I1
sVsaid
p75
I3
sVbottom
p76
I1
sVspeed
p77
I1
sVha
p78
I1
sValgebra
p79
I1
sVlaid
p80
I1
sVprobably
p81
I1
sVhold
p82
I1
sVleader
p83
I2
sVcreep
p84
I1
sVass
p85
I1
sVima
p86
I1
sVperish
p87
I1
sVnever
p88
I1
sVmuthafucka
p89
I1
sVloudest
p90
I1
sVpressure
p91
I1
sVbleek
p92
I1
sVsucceed
p93
I1
sVlet
p94
I1
sVsmokin
p95
I1
sVpersonified
p96
I1
sVput
p97
I1
sVwanted
p98
I1
sVon
p99
I1
sVbeef
p100
I1
sVbites
p101
I1
sVdays
p102
I1
sVthing
p103
I1
sVbiotch
p104
I1
sVcooled
p105
I1
sVcherish
p106
I1
sVpuff
p107
I1
sVthink
p108
I1
sVfirst
p109
I5
sVblind
p110
I1
sValready
p111
I1
sVlove
p112
I1
sVdont
p113
I2
sVfeel
p114
I2
sVpussy
p115
I2
sVghetto
p116
I10
sVcrazy
p117
I1
sVwhatever
p118
I3
sVthree
p119
I1
sVfeet
p120
I2
sVask
p121
I1
sVjayz
p122
I1
sVquicker
p123
I1
sVyoke
p124
I1
sVanother
p125
I1
sVtrust
p126
I1
sVlocced
p127
I1
sVheads
p128
I2
sVwould
p129
I3
sVwest
p130
I1
sVremained
p131
I1
sVdude
p132
I1
sVarms
p133
I1
sVwhos
p134
I1
sVstart
p135
I1
sVlive
p136
I1
sVcats
p137
I1
sVdamn
p138
I1
sVgrimy
p139
I1
sVmaster
p140
I1
sVhollywood
p141
I14
sVtype
p142
I1
sVwar
p143
I1
sVacross
p144
I1
sVthrew
p145
I1
sVceiling
p146
I1
sVhard
p147
I1
sVrelaxed
p148
I1
sVhuh
p149
I1
sVtook
p150
I1
sVheat
p151
I1
sVregards
p152
I1
sVnigga
p153
I3
sVstick
p154
I2
sVbroke
p155
I1
sVlearned
p156
I1
sVbaby
p157
I1
sVbelieve
p158
I1
sVmemphis
p159
I1
sVeat
p160
I1
sVgeah
p161
I2
sVsteel
p162
I1
sVloved
p163
I1
sVmade
p164
I2
sVreason
p165
I1
sVniggas
p166
I1
sVrecall
p167
I1
sVcash
p168
I1
sVus
p169
I2
sVcat
p170
I4
sVyouth
p171
I3
sVremain
p172
I1
sVstreet
p173
I1
sVuh
p174
I2
sVyup
p175
I1
sVwild
p176
I3
sVlisten
p177
I1
sVdidnt
p178
I2
sVmistake
p179
I1
sVready
p180
I2
sVlawyer
p181
I1
sVgive
p182
I1
sVtaste
p183
I1
sVhoneys
p184
I1
sVturned
p185
I2
sVfuck
p186
I1
sVraw
p187
I1
sVcant
p188
I1
sVim
p189
I12
sVsomething
p190
I1
sVin
p191
I1
sVthug
p192
I1
sVreturn
p193
I1
sVshines
p194
I1
sVprovoke
p195
I1
sVfame
p196
I1
sVshit
p197
I3
sVagain
p198
I15
sVdifferent
p199
I1
sVsoldier
p200
I2
sVerybody
p201
I1
sVmake
p202
I2
sVbrand
p203
I1
sVstayed
p204
I1
sVreality
p205
I1
sVtight
p206
I1
sVneed
p207
I1
sV5
I1
sVtake
p208
I3
sV9
I1
sVnew
p209
I1
sVyou
p210
I1
sVwettest
p211
I1
sVthousand
p212
I1
sVdraw
p213
I1
sVused
p214
I2
sVlie
p215
I1
sVmoms
p216
I1
sVfetish
p217
I1
sVweed
p218
I1
sVfell
p219
I1
sVkinda
p220
I1
sVlaw
p221
I1
sVfriends
p222
I1
sVtypes
p223
I1
sVman
p224
I1
sVsomethin
p225
I1
sVoff
p226
I1
sVmushy
p227
I1
sVdoctor
p228
I1
sVlost
p229
I1
sVnothin
p230
I2
sVthought
p231
I4
sVperson
p232
I1
sVdrove
p233
I1
sVtalk
p234
I1
sVhear
p235
I1
sVthats
p236
I5
sVorder
p237
I1
sVcame
p238
I1
sVknow
p239
I3
s.