(dp1
Vbuddies
p2
I1
sVlyrics
p3
I2
sVshow
p4
I1
sVmove
p5
I2
sVbonnie
p6
I1
sVfour
p7
I1
sVheld
p8
I1
sVtouch
p9
I1
sVstill
p10
I1
sVspeed
p11
I1
sValld
p12
I1
sVsayin
p13
I2
sVsomewhere
p14
I2
sVsignals
p15
I1
sVhavin
p16
I1
sVclyde
p17
I1
sV4
I1
sVrich
p18
I1
sVpride
p19
I2
sVwhack
p20
I1
sVta
p21
I15
sVme
p22
I5
sVlockin
p23
I1
sVgood
p24
I3
sVlivin
p25
I1
sVsong
p26
I16
sVfood
p27
I1
sVfussy
p28
I1
sVuhh
p29
I2
sVlunch
p30
I1
sVmourn
p31
I1
sVknow
p32
I6
sVnow
p33
I1
sVwont
p34
I1
sVlike
p35
I6
sVcry
p36
I16
sVgun
p37
I1
sVleave
p38
I3
sVbad
p39
I4
sVsmall
p40
I1
sVview
p41
I1
sVem
p42
I9
sVnigga
p43
I5
sVyeah
p44
I3
sVcrook
p45
I1
sVsee
p46
I14
sVrepeat
p47
I1
sVshes
p48
I1
sVmine
p49
I1
sVgirl
p50
I2
sVwhip
p51
I1
sVeven
p52
I1
sVturn
p53
I1
sVgon
p54
I1
sVarmor
p55
I1
sVfact
p56
I1
sVaway
p57
I2
sVsince
p58
I2
sVforecast
p59
I1
sVcd
p60
I1
sVbunches
p61
I1
sVforgiven
p62
I1
sVgot
p63
I20
sVcause
p64
I1
sVwatchin
p65
I1
sVright
p66
I1
sVnever
p67
I1
sVgiven
p68
I1
sVfree
p69
I1
sVmmm
p70
I4
sVquick
p71
I3
sVcut
p72
I1
sVlet
p73
I6
sVshoulda
p74
I1
sVchange
p75
I2
sVstone
p76
I1
sVamnesia
p77
I1
sVwouldnt
p78
I1
sVoh
p79
I1
sVdubbed
p80
I1
sVfault
p81
I1
sVill
p82
I1
sVmonths
p83
I2
sVflipped
p84
I1
sVcredit
p85
I1
sVbigs
p86
I1
sVblock
p87
I1
sVfirst
p88
I1
sVcheese
p89
I1
sVlove
p90
I2
sVdont
p91
I7
sVpoint
p92
I1
sVdudes
p93
I1
sVone
p94
I1
sVdown
p95
I2
sVjayz
p96
I1
sVweather
p97
I1
sVbitch
p98
I1
sVcomin
p99
I14
sVumbrellas
p100
I1
sVuse
p101
I1
sVchecked
p102
I1
sVgoin
p103
I1
sVsprees
p104
I1
sVdivorce
p105
I1
sVgirls
p106
I2
sVgrow
p107
I1
sVlive
p108
I1
sVheroic
p109
I1
sVway
p110
I1
sV6
I1
sVman
p111
I1
sVtell
p112
I1
sVempty
p113
I1
sVlease
p114
I1
sVeyes
p115
I14
sVthat
p116
I5
sVbuggy
p117
I1
sVbitches
p118
I1
sVback
p119
I4
sVphone
p120
I1
sVgettin
p121
I1
sVunderstand
p122
I1
sVbaby
p123
I1
sVbrunch
p124
I1
sVwith
p125
I1
sVtown
p126
I1
sVloved
p127
I1
sVthrow
p128
I1
sVmade
p129
I2
sVword
p130
I1
sVshowed
p131
I1
sVplain
p132
I1
sVinside
p133
I1
sVpretend
p134
I1
sVsay
p135
I1
sVugly
p136
I1
sVmall
p137
I1
sVcrossed
p138
I1
sVfriend
p139
I1
sVv
I1
sVhappy
p140
I1
sVgone
p141
I1
sVpunches
p142
I1
sVclip
p143
I1
sVthen
p144
I1
sVit
p145
I2
sVdeep
p146
I1
sVhelped
p147
I3
sVcant
p148
I14
sVim
p149
I1
sVwant
p150
I1
sVin
p151
I1
sVseen
p152
I2
sVtimes
p153
I1
sVshit
p154
I5
sVend
p155
I2
sVincredible
p156
I1
sVrather
p157
I1
sVmake
p158
I12
sVget
p159
I4
sVshocked
p160
I1
sVspecial
p161
I2
sVsick
p162
I3
sVyou
p163
I2
sVmany
p164
I1
sVwoodgrain
p165
I1
sVpoor
p166
I1
sVpretendin
p167
I1
sVused
p168
I3
sVthough
p169
I2
sVkeys
p170
I1
sVpick
p171
I1
sVhand
p172
I1
sVwrong
p173
I1
sVvisa
p174
I1
sVfucked
p175
I1
sVseasons
p176
I1
sVfriends
p177
I1
sVclass
p178
I1
sVpull
p179
I1
sVfuckin
p180
I1
sVforever
p181
I3
sVremember
p182
I2
sVhome
p183
I1
sVwell
p184
I1
sVtogether
p185
I2
sVface
p186
I2
sVcooked
p187
I1
sVwithout
p188
I1
sVshoppin
p189
I1
sVthats
p190
I4
sVtravel
p191
I1
sVdot
p192
I1
sVleft
p193
I1
s.