(dp1
Vreplied
p2
I1
sVchicks
p3
I1
sVlyrics
p4
I2
sVless
p5
I1
sVsales
p6
I1
sVmove
p7
I1
sVfour
p8
I1
sVlovebirds
p9
I1
sVcocky
p10
I1
sVfrail
p11
I1
sVtouch
p12
I2
sVhell
p13
I1
sVcold
p14
I1
sVheavens
p15
I1
sVfeat
p16
I1
sVground
p17
I1
sVaint
p18
I1
sVlaced
p19
I1
sVgold
p20
I2
sVtill
p21
I2
sVthinking
p22
I1
sVleavin
p23
I1
sVbug
p24
I1
sVbetter
p25
I2
sVlets
p26
I1
sVspread
p27
I1
sVactin
p28
I1
sVsmile
p29
I1
sVsorry
p30
I1
sVcutie
p31
I1
sVta
p32
I1
sVbrown
p33
I1
sVlure
p34
I1
sVhit
p35
I2
sVget
p36
I2
sVbid
p37
I1
sVsafe
p38
I1
sVwatch
p39
I2
sVmyself
p40
I1
sVuhh
p41
I13
sVtruly
p42
I1
sVearly
p43
I1
sVknow
p44
I2
sVtssh
p45
I1
sVworld
p46
I1
sVdrinking
p47
I1
sVday
p48
I2
sVwont
p49
I1
sVlike
p50
I3
sVballin
p51
I1
sVpurely
p52
I1
sVever
p53
I1
sVgettin
p54
I1
sVbowlegged
p55
I1
sVrocks
p56
I1
sVtry
p57
I1
sVhalfphillipine
p58
I1
sVcontinue
p59
I1
sVtruth
p60
I2
sVnephews
p61
I1
sVchick
p62
I1
sVround
p63
I1
sVyall
p64
I2
sVbabyface
p65
I1
sVuhhhh
p66
I1
sVright
p67
I3
sVbooty
p68
I1
sVframe
p69
I1
sVdeaf
p70
I1
sVjapanese
p71
I1
sVsex
p72
I1
sVnail
p73
I1
sVgo
p74
I3
sVjewlery
p75
I1
sVroof
p76
I2
sVyear
p77
I1
sVgirl
p78
I1
sVarm
p79
I1
sVcreep
p80
I2
sVtried
p81
I1
sVwhat
p82
I1
sVsaid
p83
I3
sVjewelry
p84
I1
sVlots
p85
I1
sVspeed
p86
I1
sVdefend
p87
I1
sVice
p88
I1
sVeverything
p89
I1
sVsmallest
p90
I1
sVgot
p91
I3
sVcause
p92
I2
sVpants
p93
I1
sVbody
p94
I1
sVblow
p95
I1
sVeating
p96
I1
sVchose
p97
I2
sVstance
p98
I1
sVnature
p99
I1
sVforgive
p100
I1
sVmmm
p101
I1
sVreason
p102
I1
sVsurely
p103
I1
sVtiaka
p104
I1
sVput
p105
I3
sVcome
p106
I1
sVloot
p107
I1
sVrocafella
p108
I1
sVshine
p109
I1
sVfoes
p110
I1
sVg
I1
sVrestaurant
p111
I1
sVcould
p112
I1
sVkeep
p113
I4
sVthing
p114
I3
sVoppose
p115
I2
sVlavelle
p116
I1
sVlet
p117
I1
sVsho
p118
I3
sVahhhaaa
p119
I1
sVblock
p120
I1
sVthats
p121
I2
sVblind
p122
I1
sVlove
p123
I1
sVdont
p124
I1
sVgone
p125
I1
sVone
p126
I2
sVna
p127
I1
sVjayz
p128
I1
sVnigga
p129
I1
sVfallin
p130
I1
sVold
p131
I1
sVuhhuh
p132
I7
sVopen
p133
I1
sVwan
p134
I1
sVbelt
p135
I1
sVimpressed
p136
I1
sVstory
p137
I1
sVsaki
p138
I1
sVseein
p139
I1
sVwould
p140
I4
sVsuburbs
p141
I1
sVslept
p142
I1
sVdude
p143
I1
sVonly
p144
I1
sVwhos
p145
I1
sVmami
p146
I1
sVstuck
p147
I1
sVcats
p148
I1
sVcall
p149
I1
sVlow
p150
I1
sVway
p151
I1
sVfo
p152
I3
sVthrowin
p153
I1
sVfirm
p154
I1
sVlife
p155
I2
sVshell
p156
I1
sVgear
p157
I1
sVsunshine
p158
I7
sVyeah
p159
I1
sVeyes
p160
I1
sVproperly
p161
I1
sVhear
p162
I1
sVlows
p163
I1
sVbroke
p164
I1
sVhatin
p165
I1
sVcatch
p166
I3
sVgirlie
p167
I1
sVme
p168
I7
sVwide
p169
I1
sVkind
p170
I1
sV12
p171
I1
sVtooth
p172
I1
sVdoobie
p173
I1
sVdouble
p174
I2
sVkidneys
p175
I1
sVsay
p176
I2
sVniggaz
p177
I1
sVair
p178
I1
sVsupposed
p179
I1
sVstressin
p180
I1
sVgat
p181
I1
sVbucked
p182
I1
sVheart
p183
I1
sVcrazy
p184
I1
sVtriple
p185
I1
sVpawn
p186
I1
sVplayed
p187
I1
sVlock
p188
I1
sVsushi
p189
I1
sVmine
p190
I3
sVcase
p191
I1
sVcant
p192
I2
sVim
p193
I2
sVdropped
p194
I1
sVjest
p195
I1
sVneed
p196
I1
sVbucks
p197
I1
sVaz
p198
I1
sVprevail
p199
I1
sVcheck
p200
I1
sVshit
p201
I1
sVsuki
p202
I1
sVrumors
p203
I1
sVjigga
p204
I1
sVdeserve
p205
I1
sVtoolie
p206
I1
sVdelf
p207
I1
sVcross
p208
I2
sVtakin
p209
I1
sVfoxy
p210
I2
sVnas
p211
I1
sVtits
p212
I1
sVphenom
p213
I1
sVgets
p214
I1
sVpicture
p215
I1
sVsure
p216
I1
sVhosiery
p217
I1
sVmaturely
p218
I1
sVbeauty
p219
I1
sVversace
p220
I1
sVhighs
p221
I1
sVpapa
p222
I2
sVrisked
p223
I1
sVcharm
p224
I1
sVwoulda
p225
I1
sVneeded
p226
I1
sVtimes
p227
I1
sVgive
p228
I1
sVneck
p229
I1
sVbangin
p230
I1
sVrollin
p231
I1
sVsmellin
p232
I1
sVthought
p233
I1
sVuhhh
p234
I1
sVwithout
p235
I2
sVcrept
p236
I1
sVthings
p237
I1
sVmake
p238
I1
sVsongs
p239
I1
s.