(dp1
Vthink
p2
I1
sVhelp
p3
I2
sVlyrics
p4
I2
sVshow
p5
I1
sVdance
p6
I1
sVmoney
p7
I2
sVscattered
p8
I1
sVfrankenstein
p9
I1
sVhibernation
p10
I1
sVgo
p11
I3
sVwesson
p12
I1
sVfeat
p13
I1
sVfind
p14
I1
sVaint
p15
I3
sVshattered
p16
I1
sVbargainin
p17
I1
sVslow
p18
I1
sVhead
p19
I1
sVblowin
p20
I1
sVbenzo
p21
I1
sVsmith
p22
I1
sVbust
p23
I2
sVday
p24
I1
sVwindow
p25
I1
sVskys
p26
I1
sVsave
p27
I1
sVhat
p28
I1
sVcareers
p29
I1
sVta
p30
I1
sVreal
p31
I8
sVcube
p32
I2
sVdominant
p33
I1
sVyo
p34
I7
sVya
p35
I3
sVbig
p36
I1
sVcouple
p37
I1
sVkiller
p38
I2
sVsunny
p39
I1
sVblinking
p40
I1
sVgame
p41
I2
sVones
p42
I2
sVworst
p43
I1
sVknow
p44
I2
sVjudge
p45
I1
sVworld
p46
I2
sVnow
p47
I2
sVkilled
p48
I2
sVname
p49
I1
sVwont
p50
I1
sVknock
p51
I2
sVlike
p52
I3
sVdie
p53
I2
sVambulance
p54
I1
sVgettin
p55
I2
sVtexastwosteppin
p56
I1
sVashes
p57
I1
sVfound
p58
I1
sVround
p59
I1
sVyall
p60
I4
sVsho
p61
I1
sVem
p62
I3
sVnigga
p63
I4
sVdump
p64
I1
sVhouse
p65
I1
sVturnin
p66
I1
sVstreets
p67
I1
sVback
p68
I1
sVhail
p69
I1
sVsecond
p70
I1
sVpalm
p71
I1
sVhome
p72
I2
sVstoppin
p73
I2
sVleanin
p74
I1
sVeven
p75
I2
sVgon
p76
I2
sVspace
p77
I1
sVmovie
p78
I1
sVavoid
p79
I1
sVice
p80
I1
sVcoroner
p81
I1
sVstate
p82
I1
sVzro
p83
I1
sVgot
p84
I2
sVcause
p85
I4
sVass
p86
I1
sVima
p87
I2
sVmetropolis
p88
I1
sVnever
p89
I2
sVbusiness
p90
I1
sVcigarillos
p91
I1
sVdome
p92
I1
sVmotherfucker
p93
I1
sVtracks
p94
I1
sVlet
p95
I1
sVsink
p96
I1
sVopposition
p97
I1
sVcome
p98
I4
sVbuck
p99
I1
sVprotect
p100
I1
sVlast
p101
I1
sVmega
p102
I1
sVog
p103
I1
sVmany
p104
I1
sVcould
p105
I2
sVkeep
p106
I3
sVplace
p107
I1
sVwrote
p108
I1
sVwheels
p109
I1
sVmakes
p110
I1
sVmotherfuckers
p111
I1
sVthats
p112
I2
sVown
p113
I1
sVlove
p114
I2
sVdont
p115
I2
sVstudy
p116
I1
sVowe
p117
I1
sVlone
p118
I1
sVmakin
p119
I1
sVone
p120
I1
sVvolt
p121
I1
sVright
p122
I1
sVbitch
p123
I4
sVfake
p124
I1
sVinfest
p125
I1
sVring
p126
I1
sVmafia
p127
I1
sVfirearm
p128
I1
sVeverybody
p129
I1
sVwan
p130
I3
sVeye
p131
I1
sVweight
p132
I1
sVhomesick
p133
I1
sVvisit
p134
I1
sVtwisted
p135
I2
sVlong
p136
I1
sVlive
p137
I3
sVcall
p138
I1
sVcavi
p139
I1
sVway
p140
I1
sVforward
p141
I1
sVtryin
p142
I2
sVarguin
p143
I1
sVhappy
p144
I1
sVlife
p145
I3
sVmurder
p146
I1
sVspit
p147
I1
sVdefinition
p148
I6
sVbrains
p149
I2
sVmine
p150
I1
sVspinnin
p151
I1
sVheat
p152
I1
sVshort
p153
I1
sVdead
p154
I1
sVbringin
p155
I1
sVknown
p156
I2
sVhardcore
p157
I1
sVbelieve
p158
I1
sVmcs
p159
I1
sVgangsta
p160
I1
sVme
p161
I4
sVlook
p162
I1
sVunlike
p163
I1
sVniggas
p164
I5
sVmight
p165
I1
sVcant
p166
I2
sVplea
p167
I1
sVdyin
p168
I1
sVfreely
p169
I1
sVim
p170
I6
sVtestin
p171
I1
sVill
p172
I1
sVbet
p173
I1
sVconqured
p174
I1
sVtongues
p175
I1
sVpromises
p176
I1
sVkinfolk
p177
I1
sVraps
p178
I1
sVjoe
p179
I1
sVmind
p180
I1
sVfuck
p181
I3
sVdeep
p182
I1
sVii
p183
I1
sVbeats
p184
I1
sVintro
p185
I1
sVscarface
p186
I1
sVin
p187
I1
sVneed
p188
I2
sVtake
p189
I1
sVpinto
p190
I1
sVbeyond
p191
I1
sVburnin
p192
I1
sVdesign
p193
I1
sVna
p194
I3
sVmake
p195
I1
sVdamage
p196
I1
sVstingin
p197
I1
sVchest
p198
I1
sVbook
p199
I1
sVmotherfuckin
p200
I2
sV9
I2
sVfools
p201
I1
sVgets
p202
I2
sVtalkin
p203
I1
sVplay
p204
I1
sVleavin
p205
I1
sVthough
p206
I2
sVcollaboration
p207
I1
sVtime
p208
I1
sVspot
p209
I1
sVevil
p210
I1
sVweed
p211
I1
sVintentions
p212
I1
sVchance
p213
I1
sVhoe
p214
I1
sVoutthink
p215
I1
sVlay
p216
I1
sVdust
p217
I1
sVend
p218
I1
sVgrow
p219
I1
sVinfamous
p220
I1
sVsafe
p221
I1
sVdrop
p222
I2
sVboys
p223
I1
sVi
I1
sValarm
p224
I1
sVyoure
p225
I1
sVlines
p226
I1
sVanybody
p227
I1
sVnothin
p228
I2
sVface
p229
I5
sVbrainiac
p230
I1
sVgreen
p231
I1
sVkeeps
p232
I1
sVpush
p233
I1
sVfact
p234
I1
s.