(dp1
Vstones
p2
I1
sVthings
p3
I1
sVshoes
p4
I1
sVlyrics
p5
I2
sVmoney
p6
I1
sVmove
p7
I1
sVmines
p8
I1
sVyoungn
p9
I1
sVbring
p10
I2
sVpaper
p11
I1
sVearth
p12
I1
sVoven
p13
I1
sVpart
p14
I1
sVgo
p15
I3
sVkanye
p16
I1
sVstill
p17
I4
sVfeat
p18
I1
sVmilk
p19
I1
sVcrackabrick
p20
I1
sVaint
p21
I2
sVone
p22
I1
sVclicked
p23
I1
sVtill
p24
I1
sVguts
p25
I1
sVyoung
p26
I2
sVmattress
p27
I1
sVtraffic
p28
I1
sVcrack
p29
I2
sVstain
p30
I1
sVworth
p31
I1
sVta
p32
I3
sVfool
p33
I1
sVdo
p34
I1
sVevening
p35
I1
sVworkin
p36
I1
sVyo
p37
I1
sVget
p38
I8
sVya
p39
I14
sVcombination
p40
I1
sVaddicts
p41
I1
sVuhh
p42
I1
sVbreak
p43
I1
sVgoons
p44
I1
sVgame
p45
I4
sVb
I1
sVfive
p46
I1
sVknow
p47
I2
sVgot
p48
I5
sVmob
p49
I4
sVbit
p50
I1
sVnow
p51
I1
sVchips
p52
I1
sVminute
p53
I3
sVcool
p54
I1
sVmornin
p55
I1
sVlike
p56
I6
sVeverytime
p57
I3
sVsmell
p58
I1
sVdrop
p59
I1
sVcandy
p60
I1
sVmizack
p61
I1
sVmastered
p62
I1
sVman
p63
I1
sVrock
p64
I1
sVrapped
p65
I1
sVwhooooo
p66
I1
sVmo
p67
I1
sVyall
p68
I4
sVclothes
p69
I2
sVwaters
p70
I1
sVright
p71
I2
sVnuttin
p72
I1
sVslangin
p73
I1
sVhundred
p74
I1
sVstreets
p75
I2
sVnizzle
p76
I1
sVback
p77
I7
sVused
p78
I1
sVflip
p79
I1
sVpast
p80
I1
sV88
p81
I1
sVdawg
p82
I2
sVpayin
p83
I1
sVhoes
p84
I1
sVboxspring
p85
I1
sVpain
p86
I1
sVblues
p87
I2
sVcat
p88
I1
sVpissy
p89
I1
sVfine
p90
I1
sVdeuce
p91
I2
sVforty
p92
I1
sVdistortin
p93
I1
sVpump
p94
I1
sVsafety
p95
I1
sVemerged
p96
I1
sVnew
p97
I3
sVblackmatic
p98
I1
sVissue
p99
I1
sVmittens
p100
I1
sVwomb
p101
I1
sVima
p102
I2
sVwe
p103
I1
sVnoise
p104
I1
sVrun
p105
I2
sVdirt
p106
I1
sVjoy
p107
I1
sVembrace
p108
I1
sVlose
p109
I1
sVlem
p110
I4
sVblame
p111
I1
sVbox
p112
I1
sVyork
p113
I1
sVmuhfuckas
p114
I1
sVcome
p115
I1
sVmuhfuckin
p116
I1
sVswell
p117
I2
sVboy
p118
I5
sVgreat
p119
I1
sVquarter
p120
I2
sVheadphones
p121
I1
sVkeep
p122
I1
sVwalkin
p123
I1
sVturn
p124
I2
sVyoull
p125
I1
sVplus
p126
I1
sVtomb
p127
I1
sVsho
p128
I1
sVwhole
p129
I2
sVthink
p130
I1
sVblock
p131
I5
sVthats
p132
I3
sVbizack
p133
I4
sVgatted
p134
I1
sVwhats
p135
I1
sVdont
p136
I6
sVpitch
p137
I1
sVgasket
p138
I1
sVpot
p139
I1
sVhug
p140
I2
sVmakin
p141
I1
sVcuz
p142
I3
sVfeet
p143
I2
sVna
p144
I3
sVjayz
p145
I1
sVwit
p146
I3
sVfake
p147
I1
sVroads
p148
I1
sVold
p149
I6
sVcouldnt
p150
I1
sVplastic
p151
I1
sVwan
p152
I3
sVhood
p153
I1
sVcity
p154
I1
sVguess
p155
I6
sVheads
p156
I1
sVinstilled
p157
I1
sVwest
p158
I1
sVstrictly
p159
I1
sVeightball
p160
I1
sVdude
p161
I1
sVwhos
p162
I6
sVpaint
p163
I1
sVmuch
p164
I1
sVlow
p165
I1
sVstars
p166
I1
sVbasic
p167
I1
sVgim
p168
I1
sVgoin
p169
I1
sVwar
p170
I1
sVcorners
p171
I1
sVtryna
p172
I1
sVplatell
p173
I1
sVon
p174
I1
sVstarted
p175
I1
sVblitz
p176
I1
sVthousand
p177
I1
sVfiend
p178
I1
sVkitchen
p179
I1
sVfuck
p180
I3
sVwarm
p181
I1
sVnigga
p182
I3
sVloose
p183
I1
sVbaby
p184
I2
sVline
p185
I2
sVha
p186
I2
sVbrick
p187
I1
sVme
p188
I7
sVmade
p189
I1
sVglassy
p190
I1
sVroom
p191
I1
sVtaxin
p192
I1
sVthis
p193
I1
sVplain
p194
I1
sVstraight
p195
I1
sVwork
p196
I2
sVup
p197
I1
sVniggaz
p198
I4
sVwhoa
p199
I1
sVstreet
p200
I1
sVquarters
p201
I1
sVstarstudded
p202
I1
sVmr
p203
I1
sVcake
p204
I1
sVim
p205
I6
sVhomey
p206
I2
sVdues
p207
I1
sVac
p208
I1
sVoutta
p209
I2
sVgive
p210
I5
sVhalf
p211
I1
sVchea
p212
I1
sVit
p213
I4
sVbustin
p214
I1
sVrips
p215
I1
sVcant
p216
I1
sVcallin
p217
I1
sVscarface
p218
I1
sVwant
p219
I1
sVplayin
p220
I1
sVhit
p221
I1
sVface
p222
I6
sVphilly
p223
I1
sVshit
p224
I8
sVchase
p225
I1
sVhoe
p226
I1
sVshirt
p227
I1
sVno
p228
I1
sVlil
p229
I1
sVwhoo
p230
I2
sVmake
p231
I7
sVbassline
p232
I1
sVnuts
p233
I1
sVswitch
p234
I1
sVhov
p235
I2
sVfire
p236
I1
sVhot
p237
I3
sVtake
p238
I2
sVfo
p239
I2
sVgrind
p240
I1
sVmotels
p241
I1
sVgrain
p242
I1
sVhova
p243
I1
sVhafta
p244
I1
sVplay
p245
I1
sVball
p246
I1
sVokay
p247
I1
sVchitown
p248
I1
sVsee
p249
I1
sVdime
p250
I1
sVtrack
p251
I1
sVwatch
p252
I1
sVdoin
p253
I2
sVwelcome
p254
I1
sVwholesale
p255
I1
sVfa
p256
I2
sVdrag
p257
I1
sVeight
p258
I1
sVnever
p259
I1
sVshizzle
p260
I1
sVmack
p261
I1
sVaka
p262
I1
sVslang
p263
I1
sVrelapse
p264
I2
sVfuckin
p265
I1
sVbeanie
p266
I1
sVfaceoff
p267
I1
sVrules
p268
I2
sVsigel
p269
I1
sVwell
p270
I1
sVspoon
p271
I1
sVsmellin
p272
I1
sVlook
p273
I1
sVproceedings
p274
I1
sVwithout
p275
I1
sVfizzle
p276
I1
sVtalk
p277
I4
sVtime
p278
I2
sVcorner
p279
I1
sVtall
p280
I1
sVhuggin
p281
I1
sVnah
p282
I1
sVcame
p283
I1
s.