(dp1
Vlighter
p2
I1
sVlyrics
p3
I2
sVgentleman
p4
I1
sVhands
p5
I1
sVsaves
p6
I1
sVsperm
p7
I1
sVbring
p8
I1
sVgansta
p9
I1
sVslippin
p10
I1
sVwhats
p11
I2
sVrough
p12
I1
sVfeat
p13
I1
sVfind
p14
I1
sVwifes
p15
I1
sVaint
p16
I1
sVgivin
p17
I1
sVtight
p18
I1
sVnervous
p19
I1
sVdick
p20
I5
sVsend
p21
I1
sVsuits
p22
I1
sVtail
p23
I1
sVchill
p24
I2
sVpee
p25
I1
sVhit
p26
I3
sVaround
p27
I3
sVget
p28
I3
sVya
p29
I4
sVdope
p30
I1
sVlegs
p31
I2
sVmoaning
p32
I1
sVknow
p33
I2
sVkiss
p34
I2
sVhalf
p35
I1
sVworld
p36
I2
sVnasty
p37
I6
sVsilk
p38
I1
sVyou
p39
I1
sVknock
p40
I1
sVlike
p41
I3
sVknockin
p42
I1
sVeverytime
p43
I1
sVpal
p44
I1
sVdrop
p45
I1
sVcandy
p46
I1
sVroll
p47
I1
sValways
p48
I1
sVquick
p49
I1
sVgrab
p50
I1
sVside
p51
I1
sVyall
p52
I1
sVweek
p53
I1
sVright
p54
I2
sVhard
p55
I2
sVback
p56
I7
sVsee
p57
I1
sVhort
p58
I1
sVhoes
p59
I1
sVhome
p60
I1
sVgirl
p61
I2
sVnutgobblin
p62
I1
sVout
p63
I1
sVglove
p64
I1
sVwreck
p65
I1
sVtakin
p66
I1
sVmotel
p67
I1
sVplease
p68
I1
sVbehind
p69
I1
sVsixpack
p70
I1
sVslobbin
p71
I1
sVgot
p72
I1
sVfall
p73
I1
sVcause
p74
I1
sVtold
p75
I1
sVbe
p76
I1
sVdrivin
p77
I1
sVwan
p78
I3
sVburn
p79
I1
sVweak
p80
I1
sVlittle
p81
I1
sVmet
p82
I1
sVkey
p83
I1
sVput
p84
I2
sVspark
p85
I1
sVcome
p86
I1
sVsayin
p87
I1
sVcondoms
p88
I1
sVg
I1
sVkitcat
p89
I1
sVround
p90
I1
sVsensitive
p91
I1
sVadmit
p92
I1
sVsmoke
p93
I1
sVmouth
p94
I1
sVwhole
p95
I1
sVlove
p96
I3
sVdont
p97
I5
sVfollowed
p98
I1
sVpussy
p99
I6
sVmakin
p100
I1
sVthroat
p101
I1
sVnigga
p102
I4
sVbitch
p103
I7
sVdrinker
p104
I1
sVopen
p105
I1
sVdevin
p106
I1
sVbathroom
p107
I1
sVtop
p108
I1
sVtwo
p109
I1
sVlong
p110
I1
sVfight
p111
I1
sVwhite
p112
I1
sVcompartment
p113
I1
sVtell
p114
I1
sVlisten
p115
I1
sVhead
p116
I1
sVhug
p117
I1
sVspit
p118
I1
sVthat
p119
I4
sVclub
p120
I1
sVhotel
p121
I1
sVit
p122
I2
sVbuyin
p123
I2
sVgal
p124
I1
sVunderstand
p125
I1
sVlast
p126
I1
sVhole
p127
I1
sVhold
p128
I1
sVmust
p129
I1
sVme
p130
I2
sVstickin
p131
I1
sVtryin
p132
I2
sVwearin
p133
I1
sVniggas
p134
I2
sVswole
p135
I1
sVinside
p136
I1
sVup
p137
I1
sVcat
p138
I1
sVsuckin
p139
I1
sVsweeter
p140
I1
sVlearn
p141
I1
sVim
p142
I2
sVproblem
p143
I1
sVdidnt
p144
I1
sVshes
p145
I4
sVive
p146
I1
sVclit
p147
I1
sVlick
p148
I1
sVfreak
p149
I1
sVgettin
p150
I1
sVmind
p151
I2
sVfuck
p152
I5
sVdeep
p153
I1
sVvoices
p154
I2
sVlust
p155
I1
sVay
p156
I1
sVcant
p157
I1
sVshell
p158
I1
sVscarface
p159
I1
sVat
p160
I2
sVrap
p161
I1
sVin
p162
I1
sVthug
p163
I1
sVspoilin
p164
I1
sVskirt
p165
I1
sVid
p166
I1
sVshit
p167
I5
sVsucking
p168
I1
sVpink
p169
I1
sVhoe
p170
I1
sVcircles
p171
I1
sVnoises
p172
I2
sVna
p173
I3
sVthinkin
p174
I1
sVtells
p175
I1
sVswisher
p176
I2
sVroses
p177
I1
sVrun
p178
I1
sVwantin
p179
I1
sVputtin
p180
I1
sVpanties
p181
I3
sVsmell
p182
I1
sVwindin
p183
I1
sVbobbin
p184
I1
sVwheel
p185
I1
sVprick
p186
I1
sVkeeps
p187
I1
sVdrives
p188
I1
sVwinin
p189
I1
sVlac
p190
I1
sVnoggin
p191
I1
sVlay
p192
I2
sVsuck
p193
I1
sVlotta
p194
I1
sVneck
p195
I1
sVwife
p196
I1
sVaverage
p197
I1
sVsit
p198
I1
sVsmellin
p199
I1
sVlinen
p200
I1
sVdinin
p201
I1
sVtime
p202
I1
sVpulled
p203
I1
sVmake
p204
I1
s.