(dp1
Vsaying
p2
I1
sVhelp
p3
I2
sVlyrics
p4
I2
sVskip
p5
I1
sVfocus
p6
I1
sVattempts
p7
I1
sVhanging
p8
I1
sVgo
p9
I1
sVfeat
p10
I1
sVfind
p11
I1
sVaint
p12
I1
sVdice
p13
I1
sVparanoid
p14
I1
sVthang
p15
I1
sVguidance
p16
I1
sVyoung
p17
I1
sVcrew
p18
I1
sVknuckle
p19
I1
sVmoney
p20
I1
sVriding
p21
I1
sVsave
p22
I1
sVhappened
p23
I1
sVgrip
p24
I1
sVdo
p25
I1
sVgood
p26
I1
sVhit
p27
I1
sVget
p28
I8
sVlifebid
p29
I1
sVgame
p30
I2
sVadrenaline
p31
I1
sVevery
p32
I1
sVknow
p33
I3
sVknot
p34
I1
sVnew
p35
I1
sVblast
p36
I1
sVbullshit
p37
I1
sVenemy
p38
I1
sVschool
p39
I1
sVlike
p40
I2
sVlost
p41
I1
sValways
p42
I5
sVbrother
p43
I1
sVlightning
p44
I1
sVtry
p45
I1
sVslide
p46
I1
sVeither
p47
I1
sVnight
p48
I1
sVbench
p49
I1
sVguy
p50
I1
sVside
p51
I1
sVyall
p52
I1
sVmean
p53
I1
sVem
p54
I3
sVquicker
p55
I1
sVfence
p56
I1
sVpeople
p57
I5
sVstreets
p58
I1
sVback
p59
I1
sVsee
p60
I4
sVthirteen
p61
I1
sVdie
p62
I3
sVclose
p63
I1
sVhappen
p64
I1
sVemptiness
p65
I1
sVbest
p66
I1
sVenemies
p67
I1
sVtrench
p68
I1
sVmotherfucker
p69
I1
sVslice
p70
I1
sVdriving
p71
I1
sVhate
p72
I1
sVpipes
p73
I1
sVsince
p74
I1
sVdemons
p75
I1
sVlooking
p76
I1
sVcase
p77
I1
sVtanya
p78
I1
sVavenge
p79
I1
sVdesigning
p80
I1
sVgot
p81
I2
sVbugging
p82
I1
sVlessons
p83
I1
sVnever
p84
I1
sVchose
p85
I1
sVconfusion
p86
I1
sVloose
p87
I1
sVpumping
p88
I1
sVkilling
p89
I1
sVlet
p90
I2
sVcurable
p91
I1
sVbesides
p92
I1
sVima
p93
I2
sVlosing
p94
I1
sVcome
p95
I2
sVknowledge
p96
I1
sVlast
p97
I2
sVoh
p98
I1
sVog
p99
I1
sVmany
p100
I2
sVchanged
p101
I2
sVagainst
p102
I1
sVkeep
p103
I1
sVplane
p104
I1
sVplace
p105
I2
sVfirst
p106
I1
sVhomeboys
p107
I1
sVseniors
p108
I1
sVprints
p109
I1
sVdont
p110
I3
sVone
p111
I2
sVnigga
p112
I4
sVbitch
p113
I1
sVanother
p114
I2
sVrespect
p115
I2
sVtrust
p116
I1
sVlittle
p117
I1
sVwould
p118
I1
sVletting
p119
I1
sVtop
p120
I1
sVarms
p121
I1
sVfight
p122
I2
sVstart
p123
I1
sVdetrimental
p124
I1
sVwondering
p125
I1
sVcare
p126
I1
sVtell
p127
I1
sVherron
p128
I1
sVlife
p129
I1
sVmad
p130
I1
sVit
p131
I1
sVstick
p132
I2
sVprobably
p133
I2
sVdownplay
p134
I1
sVbelieve
p135
I1
sVstarter
p136
I1
sVcircumstances
p137
I1
sVshoot
p138
I1
sVniggas
p139
I5
sVthis
p140
I2
sVwish
p141
I1
sVus
p142
I5
sVi
I1
sVim
p143
I4
sVgrass
p144
I1
sVbet
p145
I1
sVsomething
p146
I1
sVreal
p147
I1
sVnursing
p148
I1
sVgive
p149
I1
sVmeaner
p150
I1
sVgreener
p151
I1
sVhead
p152
I1
sVhigh
p153
I1
sVplayer
p154
I1
sVcant
p155
I1
sVscarface
p156
I1
sVthugging
p157
I1
sVswinging
p158
I1
sVneed
p159
I1
sVhandle
p160
I1
sVfastlife
p161
I1
sVshit
p162
I6
sVdifferent
p163
I1
sVcodes
p164
I1
sVsit
p165
I1
sVrather
p166
I2
sVna
p167
I3
sVnas
p168
I1
sVtake
p169
I1
sVyou
p170
I3
sVdisciple
p171
I1
sVsure
p172
I1
sVbrothers
p173
I1
sVadvice
p174
I1
sVevil
p175
I1
sVchance
p176
I1
sVgon
p177
I3
sVtwo
p178
I1
sVplenty
p179
I1
sVsnitch
p180
I1
sVfriends
p181
I2
sVrules
p182
I1
sVwell
p183
I2
sVface
p184
I1
sVkillers
p185
I1
sVmass
p186
I1
sVtime
p187
I2
sVthe
p188
I1
sVthats
p189
I1
sVcuz
p190
I3
sVcame
p191
I2
s.