(dp1
Vshot
p2
I1
sVbroke
p3
I1
sVlyrics
p4
I2
sVover
p5
I1
sVterminate
p6
I1
sVhell
p7
I1
sVfear
p8
I2
sVheavens
p9
I1
sVyet
p10
I1
sVaint
p11
I1
sVdeath
p12
I1
sVofferin
p13
I1
sVsky
p14
I1
sVyoung
p15
I1
sVlets
p16
I1
sVsmile
p17
I1
sVmindstate
p18
I1
sVkiller
p19
I1
sVworld
p20
I2
sVday
p21
I3
sVshoulder
p22
I1
sVhomicidal
p23
I1
sVdie
p24
I2
sVgun
p25
I1
sVoutrun
p26
I1
sVman
p27
I1
sVyall
p28
I1
sVset
p29
I3
sVregret
p30
I1
sVdevils
p31
I1
sVscared
p32
I1
sVpoisonin
p33
I1
sVcontested
p34
I1
sVgod
p35
I1
sVdemons
p36
I1
sVwritten
p37
I1
sVcause
p38
I3
sVacross
p39
I1
sVburn
p40
I1
sVrun
p41
I1
sVmen
p42
I1
sVlet
p43
I1
sVcome
p44
I1
sVthou
p45
I1
sVsoldier
p46
I1
sVwhole
p47
I1
sVive
p48
I1
sVfeel
p49
I1
sVwalk
p50
I2
sVdone
p51
I1
sVimpossible
p52
I1
sVuhhuh
p53
I1
sVeye
p54
I1
sVtakes
p55
I1
sVbreed
p56
I1
sVlive
p57
I2
sVwrapped
p58
I1
sVvalley
p59
I1
sVmurder
p60
I1
sVthat
p61
I1
sVhear
p62
I1
sVloose
p63
I1
sVcatch
p64
I1
sVnever
p65
I1
sVinside
p66
I1
sVniggaz
p67
I1
sVim
p68
I3
sVdarker
p69
I1
sVheart
p70
I2
sVit
p71
I2
sVsay
p72
I1
sVintro
p73
I2
sVscarface
p74
I1
sVwant
p75
I1
sVid
p76
I1
sVyo
p77
I2
sVrather
p78
I1
sVmake
p79
I1
sVtil
p80
I1
sVtake
p81
I1
sVfate
p82
I1
sVshall
p83
I2
sVmay
p84
I1
sVblood
p85
I1
sVdestined
p86
I1
sVshalt
p87
I1
sVrefuse
p88
I1
sVoff
p89
I1
sVweapon
p90
I1
sVface
p91
I1
sVtime
p92
I1
sVhearts
p93
I1
s.