(dp1
Vjockin
p2
I1
sVrepresent
p3
I1
sVdeparted
p4
I1
sVlyrics
p5
I2
sVbring
p6
I3
sVsolutions
p7
I1
sVgo
p8
I2
sVhate
p9
I1
sVaint
p10
I5
sVwickedly
p11
I1
sVexplain
p12
I1
sVsend
p13
I1
sVbullshit
p14
I2
sVto
p15
I2
sVblack
p16
I2
sVyoungster
p17
I1
sVhomies
p18
I5
sVstrive
p19
I1
sVhomiez
p20
I2
sVbelly
p21
I1
sVreal
p22
I1
sVme
p23
I3
sVhandle
p24
I1
sVaround
p25
I1
sVget
p26
I2
sVya
p27
I1
sVcouple
p28
I1
sVbreak
p29
I1
sVgame
p30
I5
sVevery
p31
I4
sVnow
p32
I1
sVhim
p33
I2
sVdare
p34
I1
sVghetto
p35
I4
sVknock
p36
I1
sVschool
p37
I1
sVlike
p38
I2
sVlost
p39
I1
sVdie
p40
I1
sVtry
p41
I3
sVamongsta
p42
I1
sVman
p43
I1
sVlose
p44
I1
sVstraight
p45
I2
sVem
p46
I6
sVnigga
p47
I2
sVold
p48
I1
sVclaimin
p49
I1
sVturnin
p50
I1
sVstreets
p51
I2
sVback
p52
I4
sVdead
p53
I2
sVborn
p54
I1
sVsee
p55
I3
sVstreet
p56
I1
sVhoes
p57
I1
sVgon
p58
I1
sVblacks
p59
I1
sVways
p60
I1
sVmiss
p61
I1
sVaway
p62
I1
sVsince
p63
I3
sVlayin
p64
I1
sVit
p65
I1
sVgot
p66
I3
sVlearned
p67
I1
sVcause
p68
I5
sVforgettin
p69
I1
sVhustle
p70
I1
sVass
p71
I1
sVnever
p72
I2
sVcity
p73
I1
sVmillion
p74
I1
sVmotherfucker
p75
I1
sV70s
p76
I1
sVdisrespect
p77
I1
sVstep
p78
I1
sVstruggle
p79
I1
sVfatality
p80
I1
sVdowngrade
p81
I1
sVsing
p82
I1
sVteach
p83
I1
sVcome
p84
I1
sVchange
p85
I6
sVplug
p86
I1
sVblame
p87
I1
sVquestion
p88
I1
sVog
p89
I1
sVmany
p90
I1
sVill
p91
I1
sVdays
p92
I1
sVkeep
p93
I2
sVturn
p94
I3
sVounce
p95
I1
sVplace
p96
I2
sVstand
p97
I1
sVthink
p98
I1
sVraised
p99
I1
sVmotherfuckers
p100
I3
sVlove
p101
I1
sValthough
p102
I1
sVfeel
p103
I1
sVrelate
p104
I2
sVcommunity
p105
I1
sVone
p106
I1
sVfeet
p107
I1
sVput
p108
I1
sVright
p109
I1
sVdone
p110
I3
sVfake
p111
I1
sVfallin
p112
I1
sVrespect
p113
I1
sVtotal
p114
I1
sVopen
p115
I2
sVhood
p116
I3
sVwan
p117
I1
sVstory
p118
I2
sVwould
p119
I1
sVstretch
p120
I1
sVdude
p121
I1
sVnext
p122
I1
sVstuck
p123
I1
sVmusic
p124
I1
sVsurvive
p125
I1
sVtryin
p126
I1
sVchoose
p127
I1
sVlife
p128
I3
sVlived
p129
I1
sVtrapped
p130
I1
sVstarted
p131
I1
sVnobody
p132
I1
sVelse
p133
I1
sVbounce
p134
I1
sVknown
p135
I1
sVfades
p136
I1
sVmillionaires
p137
I1
sVmade
p138
I3
sVma
p139
I2
sVlook
p140
I1
sVniggas
p141
I6
sVride
p142
I1
sVbeats
p143
I1
sVvocal
p144
I1
sVmatter
p145
I2
sVlisteners
p146
I1
sVsupposed
p147
I1
sVlearn
p148
I1
sVknocked
p149
I1
sVfried
p150
I1
sVcalled
p151
I1
sVcontrol
p152
I2
sVdedicated
p153
I1
sVthat
p154
I1
sVmind
p155
I1
sVfuck
p156
I1
sVsomebody
p157
I1
sVcant
p158
I3
sVscarface
p159
I1
sVslip
p160
I1
sVneed
p161
I1
sVseen
p162
I3
sVseem
p163
I1
sVshit
p164
I5
sVlie
p165
I1
sVinside
p166
I1
sVthing
p167
I1
sVna
p168
I1
sVmake
p169
I3
sVsix
p170
I1
sVbacks
p171
I1
sVreality
p172
I1
sVbeat
p173
I2
sVpoliticians
p174
I1
sVstrange
p175
I1
sVtake
p176
I2
sVinstead
p177
I3
sVyou
p178
I1
sVbreakdown
p179
I1
sVsure
p180
I1
sVtime
p181
I2
sVpaid
p182
I1
sVbeast
p183
I1
sVnothing
p184
I1
sVcooperate
p185
I1
sVeyes
p186
I1
sVrefuse
p187
I1
sVremote
p188
I1
sVpicky
p189
I1
sVstressin
p190
I1
sVyoure
p191
I1
sVflow
p192
I1
sVinstitutionalize
p193
I1
sVgrips
p194
I2
sVjail
p195
I1
sVteachin
p196
I1
sVrepresentin
p197
I1
sVmother
p198
I1
sVoperate
p199
I1
sVtalk
p200
I3
s.