(dp1
Vall
p2
I1
sVlyrics
p3
I2
sVshow
p4
I1
sVmoney
p5
I2
sVgrandmas
p6
I1
sVbring
p7
I1
sVpaper
p8
I1
sVit
p9
I2
sVgo
p10
I18
sVcold
p11
I1
sVstill
p12
I1
sVfeat
p13
I1
sVfind
p14
I1
sVhustler
p15
I1
sVjock
p16
I1
sVaint
p17
I6
sVcookie
p18
I1
sVsixteen
p19
I1
sVofferin
p20
I1
sVtook
p21
I1
sVdigger
p22
I1
sVfix
p23
I1
sVdick
p24
I3
sVbehind
p25
I1
sVbust
p26
I1
sVcrew
p27
I1
sVbetter
p28
I2
sVwarriors
p29
I1
sVcharge
p30
I1
sVeasy
p31
I1
sVmanuver
p32
I1
sVhope
p33
I2
sVtake
p34
I1
sVfool
p35
I1
sVdo
p36
I1
sVwoman
p37
I1
sVhit
p38
I3
sVducked
p39
I1
sVyo
p40
I2
sVget
p41
I17
sVya
p42
I20
sVbig
p43
I2
sVnaw
p44
I1
sVwatch
p45
I1
sVlovin
p46
I1
sVearly
p47
I1
sVscrewed
p48
I1
sVb
I1
sVknow
p49
I5
sVworld
p50
I2
sVburns
p51
I1
sVschemin
p52
I1
sVname
p53
I2
sVzrollin
p54
I1
sVschool
p55
I2
sVlike
p56
I7
sVpimp
p57
I5
sVever
p58
I1
sVgettin
p59
I2
sVnaked
p60
I5
sVthis
p61
I1
sVdiggin
p62
I1
sVwhore
p63
I1
sVtipical
p64
I1
sVbills
p65
I2
sVyall
p66
I1
sVbitch
p67
I5
sVnigga
p68
I20
sVbooty
p69
I1
sVtired
p70
I2
sVunderstand
p71
I1
sVjaws
p72
I1
sVshuckin
p73
I1
sVhard
p74
I4
sVback
p75
I5
sVcash
p76
I1
sVpetey
p77
I1
sVtouch
p78
I1
sVsee
p79
I5
sVgonbe
p80
I1
sVgoin
p81
I1
sVhoes
p82
I3
sVplayin
p83
I2
sVlittle
p84
I1
sVout
p85
I1
sVfeeling
p86
I1
sVpoke
p87
I8
sVmood
p88
I1
sVfor
p89
I1
sVfourth
p90
I1
sVnutted
p91
I1
sVjumped
p92
I1
sVassistance
p93
I1
sVdifferance
p94
I1
sVstool
p95
I1
sVsung
p96
I1
sVtippin
p97
I1
sVterribly
p98
I1
sVzro
p99
I1
sVgot
p100
I3
sVcarpet
p101
I1
sVcause
p102
I8
sVguns
p103
I1
sVred
p104
I1
sVtold
p105
I1
sVass
p106
I1
sVblow
p107
I1
sVpigeon
p108
I1
sVskeet
p109
I1
sVmouth
p110
I1
sVdirt
p111
I1
sVscreen
p112
I1
sVrug
p113
I1
sVmotherfucker
p114
I1
sVmet
p115
I1
sVsingin
p116
I1
sVlet
p117
I24
sVyards
p118
I1
sVfuck
p119
I5
sVdrawls
p120
I1
sVcome
p121
I2
sVaknowledge
p122
I1
sVpaidokay
p123
I1
sVstage
p124
I1
sVtitties
p125
I1
sVabout
p126
I1
sVpiece
p127
I1
sVlast
p128
I1
sVwould
p129
I1
sVahead
p130
I1
sVmany
p131
I1
sVill
p132
I1
sVchanged
p133
I1
sVdays
p134
I1
sVthing
p135
I1
sVplace
p136
I1
sVpockets
p137
I1
sVwrist
p138
I1
sVmean
p139
I1
sVhead
p140
I2
sVthink
p141
I2
sVfuckin
p142
I2
sVthats
p143
I6
sVchopped
p144
I1
sVchildren
p145
I1
sVshovel
p146
I1
sVdont
p147
I6
sVpussy
p148
I3
sVjeans
p149
I1
sVnumber
p150
I1
sVcrib
p151
I1
sVone
p152
I1
sVpatience
p153
I1
sVdone
p154
I1
sVspokes
p155
I1
sVanother
p156
I1
sVpablo
p157
I1
sVring
p158
I1
sVstretch
p159
I1
sVwan
p160
I5
sVuse
p161
I1
sVbackand
p162
I1
sVmuch
p163
I1
sVher
p164
I1
sVstart
p165
I1
sVchrome
p166
I1
sVgonbuy
p167
I1
sVsmash
p168
I1
sVtwo
p169
I1
sVlong
p170
I1
sVnext
p171
I1
sVran
p172
I1
sVthreat
p173
I1
sVtwenties
p174
I1
sVcall
p175
I1
sVtreat
p176
I2
sVdro
p177
I1
sVmama
p178
I1
sVpayinfor
p179
I2
sVlovely
p180
I1
sVwas
p181
I1
sVtell
p182
I3
sVrelations
p183
I1
sVtryna
p184
I3
sVeyes
p185
I1
sVdiamond
p186
I1
sVway
p187
I2
sVrelationship
p188
I1
sVon
p189
I1
sVbitches
p190
I1
sVgas
p191
I1
sVc
I2
sVgirlfriends
p192
I1
sVyeah
p193
I1
sVphone
p194
I1
sVlickers
p195
I1
sVgrammy
p196
I1
sVstick
p197
I1
sVbaby
p198
I1
sVgrills
p199
I1
sVhole
p200
I1
sVsex
p201
I1
sVtrue
p202
I1
sVneck
p203
I1
sVme
p204
I4
sVhigh
p205
I1
sVtryin
p206
I1
sVgettinmoney
p207
I1
sVlook
p208
I1
sVunlike
p209
I1
sVfrozen
p210
I1
sVstroke
p211
I6
sVniggaz
p212
I2
sVbee
p213
I1
sVproject
p214
I1
sVsuckin
p215
I1
sVr
I1
sVnine
p216
I1
sVbroad
p217
I2
sVim
p218
I6
sVdaddy
p219
I1
sVdidnt
p220
I1
sVtricks
p221
I1
sVbet
p222
I1
sVstreak
p223
I5
sVjuvenile
p224
I1
sVlater
p225
I1
sVgive
p226
I3
sVshowin
p227
I1
sVis
p228
I1
sVbenz
p229
I1
sVmind
p230
I2
sVmine
p231
I1
sVdeep
p232
I1
sVmoto
p233
I1
sVtonight
p234
I1
sVneed
p235
I3
sVcant
p236
I1
sVgood
p237
I1
sVscarface
p238
I1
sVbullshittin
p239
I1
sVwant
p240
I1
sVthug
p241
I1
sVbreakfast
p242
I1
sVmade
p243
I1
sVid
p244
I2
sVshit
p245
I3
sVcotton
p246
I1
sVmicrophone
p247
I1
sVhoe
p248
I2
sVdeserves
p249
I1
sVrather
p250
I1
sVpay
p251
I1
sVmake
p252
I2
sVexcel
p253
I1
sVshocked
p254
I1
sVcheck
p255
I1
sVgames
p256
I1
sVdoya
p257
I1
sVfed
p258
I1
sVtest
p259
I1
sVperformance
p260
I1
sVputtin
p261
I1
sVespecially
p262
I1
sVpoor
p263
I1
sVarea
p264
I1
sVbuildings
p265
I1
sVleavin
p266
I1
sVlookin
p267
I2
sVdime
p268
I1
sVstop
p269
I1
sVprice
p270
I1
sVtime
p271
I2
sVlac
p272
I2
sVsteps
p273
I1
sVwrong
p274
I2
sVsaid
p275
I2
sVstreets
p276
I1
sVpeak
p277
I6
sVsay
p278
I2
sVgrievin
p279
I1
sVmack
p280
I1
sVcycle
p281
I1
sVbreak
p282
I1
sVdrop
p283
I1
sVremember
p284
I1
sVyoass
p285
I1
sVlame
p286
I1
sVlife
p287
I1
sVface
p288
I1
sVways
p289
I1
sVwithout
p290
I1
sVna
p291
I5
sVstarrin
p292
I1
sVfirst
p293
I1
sVrep
p294
I1
sVtalk
p295
I2
s.