(dp1
Vsaying
p2
I1
sVkite
p3
I1
sVlyrics
p4
I2
sVmoney
p5
I1
sVsouthside
p6
I3
sVthoose
p7
I1
sVviolent
p8
I1
sVcorner
p9
I1
sVcold
p10
I1
sVstill
p11
I1
sVfind
p12
I1
sVprincipal
p13
I1
sVchain
p14
I1
sVflash
p15
I1
sVhelp
p16
I1
sVsend
p17
I1
sVacres
p18
I1
sVbetter
p19
I1
sVlets
p20
I1
sVlord
p21
I1
sVholiday
p22
I1
sVcase
p23
I1
sVshieved
p24
I1
sVhit
p25
I1
sVfood
p26
I1
sVdope
p27
I1
sVstop
p28
I1
sVgame
p29
I5
sVknow
p30
I2
sVgot
p31
I2
sVcook
p32
I1
sVhim
p33
I1
sVschool
p34
I3
sVlike
p35
I1
sVshy
p36
I1
sVrider
p37
I1
sVnight
p38
I1
sVshaking
p39
I1
sVside
p40
I7
sVright
p41
I1
sVdevils
p42
I1
sVscared
p43
I1
sVhard
p44
I1
sVsee
p45
I1
sVclose
p46
I2
sVshining
p47
I1
sVgod
p48
I1
sVenough
p49
I1
sVit
p50
I3
sVprobably
p51
I1
sVground
p52
I1
sVcause
p53
I2
sVtold
p54
I1
sVyoungstas
p55
I1
sVbehaviour
p56
I1
sVlet
p57
I1
sVpeep
p58
I1
sVchange
p59
I1
sVyard
p60
I1
sVtaking
p61
I1
sVstudied
p62
I1
sVleaving
p63
I1
sVthing
p64
I1
sVblessings
p65
I1
sVsouth
p66
I12
sVfirst
p67
I1
sVwalk
p68
I1
sVmomma
p69
I2
sVdone
p70
I1
sVwider
p71
I1
sVrespect
p72
I2
sVtrust
p73
I1
sVfacin
p74
I1
sVstanding
p75
I2
sVdevil
p76
I1
sVsilent
p77
I1
sVwould
p78
I2
sVcaught
p79
I1
sVfuckers
p80
I1
sVcharge
p81
I1
sVdoubt
p82
I1
sVoooooh
p83
I1
sVeyes
p84
I1
sVbuy
p85
I1
sVcontrolled
p86
I1
sVspit
p87
I1
sVmine
p88
I1
sVbroke
p89
I1
sVdoctors
p90
I1
sVbaby
p91
I1
sVsmoking
p92
I1
sVhole
p93
I1
sVme
p94
I1
sVride
p95
I1
sVsoul
p96
I2
sVniggaz
p97
I1
sVremain
p98
I1
sVnine
p99
I1
sVteachers
p100
I1
sVbelieved
p101
I1
sVim
p102
I3
sVproblem
p103
I1
sVdaddy
p104
I1
sVive
p105
I1
sVlarger
p106
I1
sVfigure
p107
I1
sVgangstas
p108
I1
sVfuck
p109
I5
sVhigh
p110
I2
sVcant
p111
I1
sVscarface
p112
I1
sVwant
p113
I1
sVsomebody
p114
I1
sVeducation
p115
I1
sVsaviour
p116
I1
sVtake
p117
I2
sVshrink
p118
I1
sVday
p119
I1
sVtime
p120
I1
sVdisgusted
p121
I1
sVman
p122
I2
sVsmokey
p123
I1
sVvice
p124
I1
sVlife
p125
I1
sVface
p126
I1
sVthought
p127
I1
sVtech
p128
I1
sVmother
p129
I1
sValright
p130
I1
sVcame
p131
I1
s.