(dp1
Vstandin
p2
I1
sVsix
p3
I1
sVlyrics
p4
I2
sVcolt
p5
I1
sVexplodin
p6
I1
sVmission
p7
I1
sVbring
p8
I3
sVsemiautomatic
p9
I1
sVgo
p10
I1
sVstill
p11
I1
sVsaved
p12
I1
sVaint
p13
I1
sVframin
p14
I1
sVdeath
p15
I1
sVtv
p16
I1
sVtorn
p17
I1
sVfather
p18
I1
sVcuz
p19
I1
sVtears
p20
I2
sVyesterdays
p21
I1
sVhomies
p22
I1
sVterror
p23
I1
sVmorgue
p24
I2
sVbout
p25
I1
sVgave
p26
I1
sVeventually
p27
I1
sVhit
p28
I1
sVget
p29
I1
sVrules
p30
I1
sVdc
p31
I1
sVflew
p32
I1
sVjudgement
p33
I1
sVbang
p34
I1
sVsons
p35
I1
sVbirth
p36
I1
sVgot
p37
I7
sVone
p38
I1
sVapart
p39
I1
sVlike
p40
I1
sVlost
p41
I1
sVended
p42
I1
sVcause
p43
I3
sVslide
p44
I1
sVdie
p45
I3
sVside
p46
I1
sVbrave
p47
I1
sVdeal
p48
I1
sVframe
p49
I1
sVstreets
p50
I2
sVback
p51
I4
sVborn
p52
I1
sVsee
p53
I1
sVstreet
p54
I1
sVdumb
p55
I2
sVsight
p56
I1
sVthier
p57
I1
sVrefuse
p58
I1
sVgon
p59
I1
sVstood
p60
I1
sVpropa
p61
I1
sVpictures
p62
I1
sVlights
p63
I1
sVbehind
p64
I1
sVsafety
p65
I1
sVgoes
p66
I1
sVsurprise
p67
I1
sVfall
p68
I1
sVpotna
p69
I1
sVever
p70
I1
sVass
p71
I2
sVtoetag
p72
I1
sVfull
p73
I2
sVrolled
p74
I1
sVremainin
p75
I1
sVsorrow
p76
I1
sVnever
p77
I1
sVstared
p78
I1
sVshaft
p79
I1
sVlet
p80
I2
sVriskin
p81
I1
sVsame
p82
I1
sVcoma
p83
I1
sVnews
p84
I1
sVwanted
p85
I1
sVcome
p86
I4
sVbleed
p87
I1
sVchange
p88
I1
sVboy
p89
I1
sVunabomber
p90
I1
sVwouldnt
p91
I1
sValways
p92
I1
sVdyin
p93
I1
sVdays
p94
I1
sVtimes
p95
I1
sVdrama
p96
I1
sVturn
p97
I1
sVhead
p98
I1
sVthink
p99
I2
sVcomes
p100
I1
sVcontrol
p101
I1
sVmotherfuckers
p102
I1
sVgone
p103
I1
sVfeel
p104
I1
sVsteady
p105
I1
sVstrap
p106
I1
sVbrought
p107
I2
sVput
p108
I1
sVnigga
p109
I3
sVdone
p110
I1
sVcomin
p111
I1
sVsendin
p112
I1
sVopen
p113
I1
sVflowers
p114
I1
sVeverybody
p115
I3
sVlittle
p116
I3
sVsad
p117
I1
sVwould
p118
I1
sVhes
p119
I1
sVwadadadang
p120
I1
sVgive
p121
I2
sVdue
p122
I1
sVpaint
p123
I1
sVlive
p124
I1
sVdamn
p125
I1
sVmotherfucka
p126
I1
sVmama
p127
I1
sVmeans
p128
I1
sVmothafucka
p129
I1
sVlisten
p130
I1
sVeyes
p131
I2
sVbrains
p132
I2
sVsunshine
p133
I6
sVtook
p134
I1
sVmine
p135
I1
sVgame
p136
I1
sVbroke
p137
I1
sVchild
p138
I2
sVcatch
p139
I1
sVhole
p140
I1
sVbelieve
p141
I1
sVcrawl
p142
I1
sVtown
p143
I1
sVwide
p144
I1
sVroom
p145
I1
sVniggas
p146
I1
sVride
p147
I1
sVhomey
p148
I1
sVsay
p149
I1
sVcat
p150
I1
sVtaught
p151
I2
sVnine
p152
I3
sVmista
p153
I1
sVongone
p154
I1
sVive
p155
I3
sVlook
p156
I1
sVlives
p157
I1
sVholes
p158
I1
sVim
p159
I2
sVmind
p160
I2
sVhaunt
p161
I2
sVdeep
p162
I2
sVshitbag
p163
I1
sVpaused
p164
I1
sVcant
p165
I4
sVhomie
p166
I1
sVscarface
p167
I1
sVsomething
p168
I1
sVwant
p169
I1
sVseen
p170
I3
sVwatched
p171
I1
sVkeep
p172
I1
sVshit
p173
I3
sVaudi
p174
I1
sVceremony
p175
I1
sVneeds
p176
I1
sVend
p177
I1
sVthing
p178
I1
sVna
p179
I1
sV45
p180
I1
sVtip
p181
I1
sVshocked
p182
I1
sVya
p183
I4
sVchest
p184
I1
sVstrange
p185
I1
sV5
I1
sVmotherfuckin
p186
I2
sVyou
p187
I2
sVnonstop
p188
I1
sVkarma
p189
I1
sVnobody
p190
I1
sVpain
p191
I1
sVgots
p192
I1
sVfelt
p193
I1
sVsneak
p194
I1
sVturned
p195
I1
sVmillimeter
p196
I1
sVstarin
p197
I1
sVmustve
p198
I2
sVposition
p199
I1
sVwhy
p200
I1
sVman
p201
I1
sVmourned
p202
I1
sVforever
p203
I1
sVcoppa
p204
I1
sVcame
p205
I1
sVlife
p206
I3
sVdog
p207
I1
sVface
p208
I1
sVthought
p209
I3
sVreaper
p210
I1
sVfact
p211
I1
sVtime
p212
I2
sVunderstand
p213
I1
sVpulled
p214
I1
sVlying
p215
I1
s.