(dp1
Vlyrics
p2
I2
sVcaused
p3
I1
sVchild
p4
I1
sVsonargram
p5
I1
sVcarryin
p6
I1
sVsleep
p7
I1
sVworld
p8
I1
sVcold
p9
I1
sVblackface
p10
I1
sVoclock
p11
I1
sVdetected
p12
I1
sVplanted
p13
I1
sVswimmin
p14
I1
sVphysicians
p15
I1
sVaround
p16
I2
sVmuthafuckin
p17
I2
sVbein
p18
I1
sVseekin
p19
I1
sVfreezing
p20
I1
sVearly
p21
I1
sVevery
p22
I1
sVknow
p23
I2
sVbirth
p24
I1
sVhands
p25
I1
sVslidin
p26
I1
sVblankets
p27
I1
sVdown
p28
I1
sVfebruary
p29
I1
sVultrasound
p30
I1
sVdie
p31
I1
sVnigger
p32
I2
sVnose
p33
I1
sVswarmin
p34
I1
sVclothes
p35
I1
sVem
p36
I1
sVborn
p37
I1
sVsee
p38
I1
sVhassle
p39
I1
sVout
p40
I1
sVmovin
p41
I1
sVopened
p42
I1
sVsince
p43
I1
sV3
I1
sVmusta
p44
I1
sVnine
p45
I1
sVacross
p46
I1
sVtold
p47
I1
sVmamas
p48
I1
sVkicked
p49
I1
sVtruth
p50
I1
sVnever
p51
I1
sVmet
p52
I1
sVreason
p53
I1
sVlet
p54
I1
sVvisits
p55
I1
sVwanted
p56
I1
sVlast
p57
I5
sVcould
p58
I2
sVmonths
p59
I1
sVscreamin
p60
I1
sVkeep
p61
I1
sVwalkin
p62
I1
sVrubbed
p63
I1
sVheartbeat
p64
I1
sVdont
p65
I1
sVfeel
p66
I1
sVfeet
p67
I1
sVthankful
p68
I1
sVawoke
p69
I1
sVcomin
p70
I2
sVcouldnt
p71
I1
sVballin
p72
I1
sVguess
p73
I1
sVeye
p74
I1
sVtop
p75
I1
sVbreed
p76
I5
sVmuch
p77
I1
sVmama
p78
I2
sVlegs
p79
I1
sVstomach
p80
I1
sVlungs
p81
I1
sVdressing
p82
I1
sVwrapped
p83
I1
sVdoctors
p84
I1
sVeat
p85
I1
sVrunnin
p86
I1
sVroom
p87
I1
sVbloodline
p88
I1
sVrecall
p89
I1
sVcomplications
p90
I1
sVim
p91
I4
sV10th
p92
I1
sVill
p93
I1
sVwhatwhat
p94
I1
sVowed
p95
I1
sVseven
p96
I1
sVgently
p97
I1
sVpushed
p98
I2
sVseed
p99
I1
sVscarface
p100
I1
sVo
I1
sVsense
p101
I1
sVspecies
p102
I1
sVdenial
p103
I1
sVdying
p104
I4
sVdoctor
p105
I1
sVpeace
p106
I1
sVshining
p107
I1
sVconceived
p108
I1
sVevil
p109
I1
sVdiscomfort
p110
I1
sVremember
p111
I2
sVsteady
p112
I1
sVinterrupted
p113
I1
sVtime
p114
I1
s.