(dp1
Vsaying
p2
I2
sVall
p3
I1
sVnewest
p4
I1
sVlyrics
p5
I2
sVhalf
p6
I5
sVyears
p7
I2
sVtruest
p8
I1
sVgo
p9
I3
sVhate
p10
I1
sVyet
p11
I2
sVgoodbye
p12
I1
sVaint
p13
I1
sVsayin
p14
I2
sVthinking
p15
I1
sVagain
p16
I1
sVbehind
p17
I1
sVwriting
p18
I1
sVbetter
p19
I1
sVlets
p20
I1
sVblack
p21
I1
sVbout
p22
I2
sVbye
p23
I6
sVhope
p24
I1
sVta
p25
I1
sVpaying
p26
I1
sVgood
p27
I3
sVyo
p28
I1
sVya
p29
I1
sVbirkin
p30
I1
sVstop
p31
I1
sVnext
p32
I2
sVgame
p33
I1
sVtatted
p34
I1
sVknow
p35
I4
sVmom
p36
I1
sVfam
p37
I1
sVtelling
p38
I1
sVnow
p39
I1
sVscreaming
p40
I1
sVday
p41
I2
sVlook
p42
I2
sVlike
p43
I2
sVmiami
p44
I1
sVdie
p45
I1
sVtrak
p46
I1
sVmorning
p47
I1
sVleave
p48
I1
sVashes
p49
I1
sVdiggin
p50
I1
sVeither
p51
I1
sVnight
p52
I1
sVhappened
p53
I1
sVround
p54
I1
sVlie
p55
I1
sVblew
p56
I3
sVright
p57
I1
sVforce
p58
I1
sVpeople
p59
I1
sVmind
p60
I1
sVfake
p61
I1
sVback
p62
I1
sVcash
p63
I1
sVlouder
p64
I1
sVlawyer
p65
I1
sVyear
p66
I1
sVarm
p67
I1
sVhappens
p68
I1
sVliving
p69
I1
sVwhat
p70
I1
sVsaid
p71
I1
sVbride
p72
I1
sVheres
p73
I1
sVaway
p74
I2
sVsince
p75
I1
sVastray
p76
I1
sVenjoyed
p77
I1
sVmess
p78
I1
sVenough
p79
I1
sVversion
p80
I1
sVgot
p81
I5
sVcause
p82
I2
sVnose
p83
I1
sVass
p84
I1
sVnever
p85
I1
sVjoy
p86
I1
sVmen
p87
I1
sVlittle
p88
I2
sVreason
p89
I1
sVlet
p90
I1
sVhighlight
p91
I1
sVwanted
p92
I2
sVboy
p93
I1
sVher
p94
I1
sVfault
p95
I1
sVcould
p96
I2
sVmonths
p97
I1
sVdeposition
p98
I1
sVscreamin
p99
I1
sVleaving
p100
I2
sVthing
p101
I4
sVplus
p102
I2
sVdivorce
p103
I1
sVweird
p104
I1
sVcaught
p105
I1
sVlove
p106
I1
sVdont
p107
I1
sVheart
p108
I1
sVimagine
p109
I1
sVcrazy
p110
I1
sVcrib
p111
I1
sVone
p112
I1
sVbitch
p113
I1
sVanother
p114
I1
sVsoul
p115
I1
sVpregnancy
p116
I1
sVcouldnt
p117
I1
sVtrust
p118
I2
sVspeak
p119
I1
sVeverybody
p120
I1
sVbreath
p121
I1
sVguess
p122
I6
sVcheating
p123
I1
sVwould
p124
I1
sVtwenty
p125
I1
sVangry
p126
I1
sVtwo
p127
I1
sVleast
p128
I1
sVfight
p129
I1
sVcowards
p130
I1
sVlive
p131
I1
sVmuch
p132
I1
sVracist
p133
I1
sVbruh
p134
I1
sVcuter
p135
I1
sVtype
p136
I1
sVscared
p137
I1
sVhappy
p138
I1
sVlife
p139
I3
sVcounselling
p140
I1
sValtar
p141
I1
sVcops
p142
I2
sVheat
p143
I1
sVhi
p144
I1
sVpersonally
p145
I1
sVbaby
p146
I12
sVprobably
p147
I1
sVgold
p148
I1
sVgangsta
p149
I1
sVwomen
p150
I2
sVme
p151
I1
sVgrill
p152
I1
sVwoman
p153
I1
sVpride
p154
I1
sVdominican
p155
I1
sVniggas
p156
I1
sVride
p157
I1
sVup
p158
I1
sVus
p159
I2
sVmatter
p160
I1
sVdepp
p161
I1
sVaight
p162
I1
sVcats
p163
I1
sVdaddy
p164
I1
sVpick
p165
I1
sVbeautiful
p166
I1
sVlisten
p167
I1
sVseven
p168
I1
sVjohnny
p169
I1
sVwasnt
p170
I1
sVcertain
p171
I1
sVawesome
p172
I1
sVdemon
p173
I1
sVfuck
p174
I2
sVwatches
p175
I1
sVtalking
p176
I1
sVsay
p177
I2
sVseed
p178
I1
sVim
p179
I6
sVsomething
p180
I1
sVseen
p181
I1
sVhonest
p182
I1
sVsaw
p183
I2
sVbags
p184
I1
sVdifferent
p185
I1
sVburnin
p186
I1
sVbailed
p187
I1
sVna
p188
I1
sVmake
p189
I2
sVpeace
p190
I1
sVmatching
p191
I1
sVnas
p192
I2
sVtake
p193
I1
sVrewind
p194
I1
sVshawty
p195
I1
sVeven
p196
I1
sVstar
p197
I1
sVtried
p198
I1
sVeyes
p199
I1
sVselfish
p200
I1
sVkeys
p201
I1
sVwatch
p202
I1
sVshouldve
p203
I1
sVknew
p204
I6
sVstay
p205
I1
sVgon
p206
I1
sVbyebye
p207
I4
sVbabymoms
p208
I1
sVfriends
p209
I1
sVjoplin
p210
I1
sVgrave
p211
I1
sVman
p212
I1
sVlonger
p213
I1
sVjanis
p214
I1
sVwife
p215
I1
sVending
p216
I1
sVcolour
p217
I1
sVlater
p218
I1
sVflow
p219
I1
sVwalked
p220
I2
sVthought
p221
I1
sVtruck
p222
I1
sVclean
p223
I1
sVtime
p224
I1
sVserious
p225
I1
s.