(dp1
Vshop
p2
I1
sVshoes
p3
I1
sVlyrics
p4
I2
sVgods
p5
I2
sVescobar
p6
I1
sVtop
p7
I1
sVsambos
p8
I1
sVrest
p9
I1
sVyears
p10
I1
sVbrain
p11
I1
sVnasdaq
p12
I1
sVdough
p13
I2
sVtore
p14
I1
sVgo
p15
I3
sVsoldiers
p16
I1
sVstill
p17
I2
sVprince
p18
I1
sVbunch
p19
I1
sVima
p20
I1
sVdeath
p21
I1
sVnas
p22
I3
sVfloss
p23
I1
sVbetter
p24
I1
sVsource
p25
I1
sVblack
p26
I1
sVrich
p27
I1
sVplenty
p28
I1
sVgangsta
p29
I1
sVrighteous
p30
I1
sVhope
p31
I5
sVbelly
p32
I2
sVreal
p33
I3
sVmornin
p34
I1
sVreturn
p35
I2
sVlivin
p36
I1
sVyo
p37
I1
sVget
p38
I2
sVya
p39
I4
sVkiller
p40
I1
sVwatch
p41
I1
sVlucky
p42
I1
sVfamous
p43
I1
sVhaul
p44
I1
sVevery
p45
I1
sVknow
p46
I5
sVreppin
p47
I1
sVfront
p48
I1
sVworld
p49
I1
sVblast
p50
I1
sVchips
p51
I1
sVlook
p52
I2
sVshoulder
p53
I1
sVenemy
p54
I1
sVhuddle
p55
I1
sVlike
p56
I4
sVlevel
p57
I1
sVdie
p58
I2
sVcriss
p59
I1
sVgun
p60
I9
sVteams
p61
I1
sVtry
p62
I1
sVqb
p63
I1
sVsteps
p64
I1
sVrock
p65
I1
sVfixed
p66
I1
sVsoft
p67
I2
sVyall
p68
I6
sVparted
p69
I1
sVquicker
p70
I1
sVwatchin
p71
I1
sVthrowin
p72
I1
sVinterviews
p73
I1
sVback
p74
I2
sVhair
p75
I1
sVsee
p76
I1
sVcorner
p77
I1
sVblocks
p78
I1
sVblues
p79
I1
sVbest
p80
I1
sVreally
p81
I1
sValbum
p82
I1
sVrecord
p83
I1
sVleg
p84
I1
sVice
p85
I1
sVbehind
p86
I1
sVlingerie
p87
I1
sVplaya
p88
I1
sVgot
p89
I13
sVcause
p90
I2
sVacross
p91
I1
sVpants
p92
I1
sVass
p93
I1
sVtattoos
p94
I1
sVwan
p95
I1
sVnever
p96
I2
sVboss
p97
I2
sVcut
p98
I1
sVslow
p99
I1
sVlet
p100
I1
sVstruggle
p101
I1
sVput
p102
I1
sVcrowned
p103
I1
sVdress
p104
I1
sVcome
p105
I1
sVthrow
p106
I1
sVwrath
p107
I1
sVcop
p108
I1
sVchipped
p109
I1
sVkids
p110
I1
sVwould
p111
I1
sVanything
p112
I1
sVmany
p113
I3
sVill
p114
I1
sViced
p115
I1
sVcoupe
p116
I1
sVpuffin
p117
I1
sVstand
p118
I1
sVripper
p119
I1
sVwhole
p120
I1
sVhospital
p121
I1
sVfirst
p122
I1
sVgolden
p123
I1
sVchains
p124
I1
sVdont
p125
I3
sVjewels
p126
I2
sVbridge
p127
I1
sVfeel
p128
I1
sVlimp
p129
I1
sVlyricist
p130
I1
sVafrica
p131
I1
sVvodka
p132
I1
sVawaited
p133
I1
sVson
p134
I3
sVwit
p135
I1
sVpablo
p136
I1
sVcups
p137
I1
sVhood
p138
I2
sVeverybody
p139
I1
sVpasses
p140
I1
sVguest
p141
I1
sVbeef
p142
I1
sVaint
p143
I1
sVhearse
p144
I1
sVporsche
p145
I1
sVquestion
p146
I1
sVwhos
p147
I1
sVtropical
p148
I1
sVlive
p149
I2
sVcall
p150
I1
sVtoo
p151
I1
sVkid
p152
I3
sVwar
p153
I1
sVwoke
p154
I1
sVchu
p155
I1
sVlife
p156
I1
sVthat
p157
I3
sVgliss
p158
I1
sVautomatic
p159
I1
sVgetter
p160
I1
sVwake
p161
I1
sVpreciseness
p162
I1
sVsavior
p163
I1
sVchild
p164
I1
sVtennis
p165
I1
sVhardcore
p166
I1
sVtrue
p167
I1
sV2pac
p168
I1
sVpetey
p169
I1
sVtwister
p170
I1
sVword
p171
I1
sVbiggie
p172
I1
sVhop
p173
I1
sVdodge
p174
I1
sVsto
p175
I1
sVpads
p176
I1
sVn
I1
sVrags
p177
I1
sVstore
p178
I1
sVshift
p179
I1
sVoutcome
p180
I1
sVshook
p181
I1
sVgone
p182
I1
sVbarbers
p183
I1
sVwant
p184
I3
sVwasnt
p185
I1
sVflow
p186
I1
sVis
p187
I1
sVmine
p188
I2
sVnascar
p189
I1
sVplayer
p190
I1
sVim
p191
I5
sVat
p192
I2
sVrap
p193
I1
sVin
p194
I1
sVhit
p195
I1
sVmoves
p196
I1
sVsaw
p197
I1
sVhappy
p198
I1
sVlow
p199
I1
sVsir
p200
I1
sVsip
p201
I1
sVna
p202
I1
sVmember
p203
I1
sVfield
p204
I1
sVtake
p205
I2
sVsick
p206
I1
sVquarterback
p207
I1
sVpapi
p208
I1
sVtried
p209
I1
sVbravehearted
p210
I1
sVboxsta
p211
I1
sVappearances
p212
I1
sVfootball
p213
I1
sVcollection
p214
I1
sVkeepin
p215
I1
sVjudists
p216
I1
sVwrist
p217
I1
sVmustve
p218
I1
sVon
p219
I1
sVspreader
p220
I1
sVthoughts
p221
I1
sVlames
p222
I1
sVbizkits
p223
I1
sVlight
p224
I1
sVlines
p225
I1
sVtooth
p226
I1
sVthought
p227
I1
sVtime
p228
I1
sVapparel
p229
I1
sVprofessional
p230
I1
sVbarrel
p231
I1
sVsawedoff
p232
I1
sVcame
p233
I1
sVstick
p234
I1
s.