(dp1
Vpacks
p2
I1
sVlyrics
p3
I2
sVnerve
p4
I1
sVescobar
p5
I1
sVstill
p6
I2
sVrecruitin
p7
I1
sVnemesis
p8
I1
sVproclamation
p9
I2
sVbases
p10
I1
sVprison
p11
I1
sVscripture
p12
I1
sVtake
p13
I1
sVget
p14
I1
sVbid
p15
I1
sVdaddies
p16
I1
sVclan
p17
I1
sVlike
p18
I1
sVnigger
p19
I7
sVtold
p20
I1
sVyall
p21
I1
sVsee
p22
I1
sVuncomfortable
p23
I1
sValbum
p24
I1
sVpreparin
p25
I1
sVovercame
p26
I1
sVnoose
p27
I1
sVpiss
p28
I1
sVopposition
p29
I1
sVrun
p30
I1
sVloose
p31
I1
sVmayne
p32
I1
sVfree
p33
I1
sVbroken
p34
I1
sVlet
p35
I1
sVmembers
p36
I1
sVworthy
p37
I1
sVput
p38
I1
sVcot
p39
I1
sVteachers
p40
I1
sVguilty
p41
I1
sVcousins
p42
I1
sVhatred
p43
I1
sVwhole
p44
I1
sVsatins
p45
I1
sVthats
p46
I2
sVvic
p47
I1
sVfinest
p48
I1
sVdont
p49
I1
sVbridge
p50
I1
sVpot
p51
I1
sVcrib
p52
I1
sVchurch
p53
I1
sVjena
p54
I1
sVdecline
p55
I1
sVbombardin
p56
I1
sVfilthy
p57
I1
sVcall
p58
I1
sVracist
p59
I1
sVman
p60
I2
sVgenesis
p61
I1
sVlife
p62
I1
sVdrapes
p63
I1
sVstarted
p64
I1
sVpropositions
p65
I1
sVnapes
p66
I1
sVcases
p67
I1
sVplants
p68
I1
sVcracks
p69
I1
sVmight
p70
I1
sVwork
p71
I1
sVlisteners
p72
I1
sVdirty
p73
I1
sVive
p74
I1
sVsupreme
p75
I1
sVbathe
p76
I1
sVsay
p77
I1
sVim
p78
I1
sVin
p79
I1
sVid
p80
I2
sVfill
p81
I1
sVcourt
p82
I1
sVsix
p83
I1
sVtip
p84
I1
sVnas
p85
I1
sVpac
p86
I1
sVbuild
p87
I1
sVeven
p88
I1
sVplant
p89
I1
sVbrothers
p90
I2
sVopenin
p91
I1
sVarch
p92
I1
sVgrave
p93
I1
sVgoin
p94
I2
sVdefendin
p95
I1
sVwithout
p96
I1
sVcloaked
p97
I1
sVmeanwhile
p98
I1
s.