(dp1
Vsummer
p2
I1
sVbush
p3
I1
sVshot
p4
I1
sVshoes
p5
I1
sVlyrics
p6
I2
sVstains
p7
I1
sVmoney
p8
I2
sVmove
p9
I5
sVtrade
p10
I1
sVbrain
p11
I1
sVviolent
p12
I1
sVmile
p13
I1
sVlondon
p14
I1
sVpart
p15
I1
sVgo
p16
I1
sVfeat
p17
I1
sVrailroad
p18
I1
sVground
p19
I1
sVstyle
p20
I5
sVthuggery
p21
I1
sVpeter
p22
I1
sVchain
p23
I1
sVtight
p24
I1
sVtracks
p25
I1
sVfrightening
p26
I1
sVflash
p27
I1
sVyoung
p28
I1
sVbust
p29
I1
sVcrime
p30
I1
sVtheme
p31
I7
sVthieves
p32
I1
sVblack
p33
I1
sVsaw
p34
I1
sVcrack
p35
I2
sVgangsta
p36
I1
sVcriminal
p37
I1
sVmight
p38
I1
sVvain
p39
I1
sVboys
p40
I1
sVdo
p41
I3
sVgood
p42
I1
sVsomebody
p43
I1
sVyo
p44
I5
sVget
p45
I1
sVya
p46
I5
sVkiller
p47
I1
sVhate
p48
I1
sVpowder
p49
I1
sVwarehouse
p50
I1
sVbang
p51
I1
sVhaunted
p52
I1
sVknow
p53
I1
sVhands
p54
I1
sVthreequarter
p55
I1
sVworld
p56
I1
sVshadow
p57
I1
sVson
p58
I6
sVbringing
p59
I1
sVday
p60
I2
sVwont
p61
I4
sVninjas
p62
I1
sVpile
p63
I1
sVsensimille
p64
I1
sVlike
p65
I9
sVdpp
p66
I1
sVpeeps
p67
I1
sVgun
p68
I2
sVrobbin
p69
I1
sVteams
p70
I1
sVwinter
p71
I1
sVp
I1
sVwit
p72
I11
sVshinanigins
p73
I1
sVrobbery
p74
I1
sVnight
p75
I6
sVkill
p76
I2
sVqueensbridge
p77
I1
sVtray
p78
I1
sVbond
p79
I1
sVflashbacks
p80
I1
sVright
p81
I5
sVrats
p82
I1
sVknifepoint
p83
I1
sVfair
p84
I1
sVscared
p85
I1
sVstreets
p86
I2
sVdeaf
p87
I1
sVyeah
p88
I2
sVrot
p89
I1
sVfreeze
p90
I1
sVtires
p91
I1
sVdakota
p92
I1
sVcracksport
p93
I1
sVstreet
p94
I3
sVtwistin
p95
I1
sVhanged
p96
I1
sVescape
p97
I1
sVblocks
p98
I1
sVleanin
p99
I1
sV87
p100
I1
sVeven
p101
I1
sVrate
p102
I1
sVkids
p103
I1
sVlots
p104
I1
sVsun
p105
I1
sVnightmare
p106
I1
sVbambooze
p107
I1
sVits
p108
I1
sVmate
p109
I1
sVlennon
p110
I1
sVhood
p111
I2
sVjohn
p112
I1
sVsmellin
p113
I1
sVgot
p114
I6
sVcause
p115
I2
sVred
p116
I1
sVbought
p117
I1
sVsheep
p118
I1
sVshut
p119
I1
sVdrink
p120
I2
sVrun
p121
I2
sVcars
p122
I1
sVsteeple
p123
I1
sVmachintosh
p124
I1
sVwater
p125
I1
sVdressed
p126
I1
sVjob
p127
I1
sVshotty
p128
I1
sVlet
p129
I1
sVput
p130
I2
sVpliers
p131
I1
sVcome
p132
I2
sVthrow
p133
I1
sVon
p134
I1
sVcos
p135
I1
sVmans
p136
I1
sVbeef
p137
I1
sVenglish
p138
I1
sVof
p139
I1
sVill
p140
I1
sVskyway
p141
I1
sVdrama
p142
I1
sVambush
p143
I1
sVplace
p144
I1
sVbeige
p145
I1
sVact
p146
I4
sVlocomotion
p147
I1
sVswallow
p148
I1
sVmouth
p149
I1
sVthats
p150
I1
sVtony
p151
I1
sVem
p152
I5
sVwritin
p153
I1
sVlove
p154
I1
sVdont
p155
I3
sVhyphen
p156
I1
sVdudes
p157
I1
sVone
p158
I16
sVphilosophical
p159
I1
sVschemes
p160
I1
sVrising
p161
I2
sVbitch
p162
I1
sVanother
p163
I1
sVchurch
p164
I1
sVskeemin
p165
I1
sVbegged
p166
I1
sVwoolrich
p167
I1
sVtvs
p168
I1
sVspeak
p169
I1
sVeverybody
p170
I2
sVold
p171
I1
sVlittle
p172
I1
sVmurderers
p173
I4
sVcrowd
p174
I1
sVwould
p175
I1
sVspeakin
p176
I1
sVtop
p177
I1
sVthere
p178
I1
sVgirls
p179
I1
sVtwo
p180
I14
sVblindeys
p181
I1
sVfahrenheit
p182
I1
sVmars
p183
I1
sVlength
p184
I1
sVwhite
p185
I1
sVgoin
p186
I2
sVdots
p187
I1
sVflat
p188
I1
sVvans
p189
I1
sVwinston
p190
I1
sVjum
p191
I1
sVstarted
p192
I1
sVcoke
p193
I1
sVnobody
p194
I1
sVfaceplate
p195
I1
sVhits
p196
I1
sVcant
p197
I1
sVback
p198
I1
sVcops
p199
I2
sVlets
p200
I1
sVunderstandable
p201
I4
sVstick
p202
I1
sVbroke
p203
I1
sVscratches
p204
I1
sVfighter
p205
I1
sVha
p206
I3
sV95
p207
I1
sVscream
p208
I1
sVlistenin
p209
I1
sVnone
p210
I1
sVfiends
p211
I2
sVword
p212
I1
sVpushed
p213
I1
sVwish
p214
I1
sVofficial
p215
I1
sVsmooth
p216
I4
sVcash
p217
I1
sVniggaz
p218
I1
sVcat
p219
I1
sVmovies
p220
I1
sViron
p221
I1
sVfreedom
p222
I1
sVwild
p223
I2
sVjamicians
p224
I1
sVdrops
p225
I1
sVnino
p226
I1
sVhistory
p227
I2
sVirish
p228
I1
sVburglars
p229
I1
sVup
p230
I3
sVcertain
p231
I1
sVtrain
p232
I1
sVkingston
p233
I1
sVlife
p234
I1
sVjewels
p235
I1
sVthiefs
p236
I8
sVuah
p237
I4
sVcap
p238
I1
sVshell
p239
I1
sVim
p240
I4
sVwant
p241
I2
sVin
p242
I1
sVsupplyin
p243
I1
sVhit
p244
I1
sVmoves
p245
I1
sVseek
p246
I1
sVcheck
p247
I6
sVshit
p248
I4
sVcream
p249
I1
sVsummers
p250
I1
sVthugs
p251
I1
sVmartyr
p252
I1
sVanybody
p253
I1
sVnoises
p254
I1
sVpriors
p255
I1
sVmake
p256
I4
sVpeace
p257
I1
sVcommotion
p258
I1
sVmadicon
p259
I1
sVsemiautomatic
p260
I1
sVnas
p261
I2
sVhot
p262
I1
sVparts
p263
I1
sVtake
p264
I1
sVhatch
p265
I1
sVunderground
p266
I1
sVtie
p267
I1
sVmalts
p268
I1
sVsoap
p269
I1
sVfare
p270
I1
sVplay
p271
I4
sVslave
p272
I1
sVbrothers
p273
I1
sVsee
p274
I1
sVsang
p275
I1
sVbroad
p276
I1
sVblair
p277
I1
sVspot
p278
I1
sVbeast
p279
I1
sVrunning
p280
I1
sVmontana
p281
I1
sVeight
p282
I1
sVtrees
p283
I1
sVsnitch
p284
I1
sVsong
p285
I1
sVlightning
p286
I1
sVman
p287
I2
sVrift
p288
I1
sVremix
p289
I2
sVchasing
p290
I1
sVgoons
p291
I1
sVnighttime
p292
I1
sVhungry
p293
I1
sVface
p294
I1
sVcarhart
p295
I1
sVwithout
p296
I1
sVballons
p297
I1
sVfiasco
p298
I1
sVtryin
p299
I1
sVpellets
p300
I1
sVdream
p301
I1
sVaway
p302
I1
sVbodies
p303
I1
s.