(dp1
Vneighborhood
p2
I1
sVlyrics
p3
I3
sVmalcolm
p4
I1
sVback
p5
I1
sVyears
p6
I1
sVintro
p7
I2
sVim
p8
I1
sVaint
p9
I1
sVdeath
p10
I1
sVwould
p11
I1
sV1965
p12
I1
sVassassination
p13
I1
sVplease
p14
I1
sVthree
p15
I1
sVice
p16
I1
sVwhos
p17
I1
sVriots
p18
I1
sVget
p19
I1
sVcube
p20
I2
sVrapping
p21
I1
sVking
p22
I1
sVdoin
p23
I1
sVconceived
p24
I3
sVstop
p25
I1
sVluther
p26
I1
sVjr
p27
I1
sVweed
p28
I1
sVknow
p29
I1
sVhalf
p30
I1
sVworld
p31
I1
sVquarters
p32
I1
sVcome
p33
I1
sVchange
p34
I1
sVboy
p35
I3
sVwatts
p36
I1
sVshort
p37
I1
sVmovies
p38
I1
sVgood
p39
I1
sVounce
p40
I1
sVmane
p41
I1
sVmartin
p42
I1
sVaction
p43
I1
sVx
I1
sVselling
p44
I1
s.