(dp1
Vforget
p2
I1
sVlyrics
p3
I2
sVdance
p4
I1
sVlewis
p5
I1
sVitd
p6
I1
sVfall
p7
I1
sVdollar
p8
I1
sVyears
p9
I1
sVbring
p10
I3
sVcomments
p11
I1
sVuvn
p12
I1
sVgo
p13
I2
sVhell
p14
I1
sVcold
p15
I4
sVbomber
p16
I1
sVhate
p17
I1
sVima
p18
I2
sV25
p19
I1
sVhead
p20
I1
sVbetter
p21
I1
sVcrack
p22
I1
sVmight
p23
I2
sVme
p24
I1
sVcube
p25
I2
sVlunatic
p26
I1
sVyo
p27
I3
sVget
p28
I8
sVgame
p29
I2
sVknow
p30
I2
sVgot
p31
I2
sVworld
p32
I2
sVnow
p33
I1
sVday
p34
I1
sVprize
p35
I1
sVdown
p36
I1
sVschool
p37
I1
sVlike
p38
I4
sVtear
p39
I1
sVchuck
p40
I1
sVpursue
p41
I1
sVrhymesayers
p42
I1
sVwatchin
p43
I1
sVus
p44
I5
sVem
p45
I2
sVblew
p46
I1
sVnigga
p47
I5
sVanother
p48
I1
sVpeople
p49
I1
sVhouse
p50
I1
sVstreets
p51
I1
sVback
p52
I2
sVgangster
p53
I2
sVsee
p54
I3
sVkatrina
p55
I1
sVrhymes
p56
I1
sVearth
p57
I1
sVout
p58
I2
sVeven
p59
I1
sVsue
p60
I1
sVsaid
p61
I3
sVice
p62
I1
sVworser
p63
I1
sVnew
p64
I3
sVcause
p65
I2
sVhustle
p66
I1
sVaint
p67
I1
sVfull
p68
I1
sVorleans
p69
I1
sVfuneral
p70
I1
sVspoiled
p71
I1
sVfree
p72
I2
sVlet
p73
I2
sVike
p74
I1
sVput
p75
I1
sValong
p76
I1
sVstrong
p77
I1
sVcome
p78
I1
sVchange
p79
I3
sVcare
p80
I1
sVboy
p81
I1
sVill
p82
I2
sVdays
p83
I1
sVkeep
p84
I5
sVplayers
p85
I1
sVwhole
p86
I1
sVhonor
p87
I1
sVfuckin
p88
I3
sVmajor
p89
I1
sVdont
p90
I5
sVfeel
p91
I1
sVdudes
p92
I1
sVsystem
p93
I1
sVosama
p94
I1
sVfucked
p95
I2
sVmomma
p96
I2
sVright
p97
I2
sVlaugh
p98
I1
sVfallin
p99
I1
sVallocated
p100
I1
sVfema
p101
I1
sVselfeducate
p102
I1
sVwan
p103
I2
sVeye
p104
I1
sVfigure
p105
I1
sVbasis
p106
I1
sVmadden
p107
I1
sVfast
p108
I1
sVjena
p109
I2
sVway
p110
I1
sVwhite
p111
I1
sVman
p112
I1
sVlouisiana
p113
I1
sVtell
p114
I1
sVboil
p115
I1
sVbillion
p116
I1
sVlife
p117
I2
sVtina
p118
I1
sVthat
p119
I2
sVhomies
p120
I1
sVit
p121
I6
sVcatch
p122
I1
sVbelieve
p123
I4
sVcrawl
p124
I1
sVeat
p125
I1
sVobama
p126
I1
sVcase
p127
I1
sVplaces
p128
I3
sVthis
p129
I1
sVstraight
p130
I1
sVhomey
p131
I2
sVniggaz
p132
I3
sVbitchslapped
p133
I1
sVsickass
p134
I1
sVlearn
p135
I1
sVoheight
p136
I1
sVindustry
p137
I1
sVbridge
p138
I1
sVlick
p139
I1
sVmoney
p140
I1
sVsubdue
p141
I1
sVgive
p142
I1
sVsoil
p143
I1
sVpretend
p144
I1
sVmind
p145
I1
sVfuck
p146
I4
sVsay
p147
I4
sVcallin
p148
I2
sVim
p149
I2
sVwant
p150
I1
sVpolitics
p151
I2
sVseem
p152
I1
sVbow
p153
I1
sVsaw
p154
I1
sVshit
p155
I4
sVchase
p156
I1
sVabyss
p157
I1
sVtheyll
p158
I1
sVcaint
p159
I1
sVdrawers
p160
I1
sVlil
p161
I1
sVna
p162
I2
sVmake
p163
I4
sVsix
p164
I2
sVjerry
p165
I1
sVtake
p166
I1
sVdigital
p167
I1
sVcheetah
p168
I1
sVreally
p169
I1
sVpicture
p170
I4
sVunocal
p171
I1
sVquit
p172
I1
sVstay
p173
I1
sVtrailers
p174
I1
sVbirthday
p175
I1
sVsponsored
p176
I1
sVblood
p177
I1
sVhahahaha
p178
I1
sVgoin
p179
I2
sVpenitentiary
p180
I1
sVlane
p181
I1
sVtraps
p182
I1
sVyoutube
p183
I1
sVdaily
p184
I1
sVjacket
p185
I1
sVracistass
p186
I1
s.