(dp1
Vugk
p2
I1
sVugh
p3
I1
sVlyrics
p4
I2
sVnigga
p5
I2
sVpussy
p6
I1
sVscared
p7
I1
sVmine
p8
I1
sVneed
p9
I1
sVstyin
p10
I1
sVstreet
p11
I2
sVdone
p12
I1
sVbitch
p13
I3
sVhoes
p14
I1
sV7th
p15
I2
sVhit
p16
I1
sVfine
p17
I1
sVshit
p18
I1
sVaint
p19
I2
sVhoe
p20
I1
sV20
p21
I1
sVblowin
p22
I1
sVsun
p23
I1
sVlean
p24
I1
sVknew
p25
I1
sVinterlude
p26
I2
sVmix
p27
I1
sV2
I1
sVbarre
p28
I1
sVrich
p29
I1
sVinch
p30
I1
sVwhite
p31
I1
sVcause
p32
I1
sVtell
p33
I1
sVblades
p34
I1
sVhead
p35
I1
sVused
p36
I1
sVstar
p37
I1
sVget
p38
I1
sVclone
p39
I1
sVmillion
p40
I1
sVcant
p41
I2
sVstay
p42
I1
sVpushin
p43
I1
sVlet
p44
I1
sVsmokin
p45
I1
sVfuck
p46
I1
sVhold
p47
I1
sVbread
p48
I1
sVkind
p49
I1
sVdaddy
p50
I1
sVlike
p51
I1
sVpimp
p52
I1
sV16
p53
I1
sVcar
p54
I1
sVniggas
p55
I2
sVsteady
p56
I1
sVsip
p57
I1
sVchoppin
p58
I1
sVgrind
p59
I1
sVleft
p60
I1
sVshinin
p61
I1
sVroad
p62
I1
sVdro
p63
I1
sVsoda
p64
I1
sValready
p65
I1
sVthats
p66
I1
sValone
p67
I1
sVfuckin
p68
I1
sVwine
p69
I1
s.