(dp1
Vugk
p2
I2
sVgs
p3
I1
sVshoes
p4
I1
sVlyrics
p5
I2
sVshow
p6
I1
sVmoney
p7
I1
sVmove
p8
I2
sVdollar
p9
I1
sVfifty
p10
I1
sVgauge
p11
I1
sVkhaki
p12
I1
sVgo
p13
I1
sVcorner
p14
I1
sVcold
p15
I1
sVfine
p16
I1
sVfind
p17
I1
sVjock
p18
I1
sVima
p19
I1
sVlaced
p20
I1
sVtitty
p21
I1
sVsayin
p22
I1
sVthang
p23
I1
sVdick
p24
I4
sVbust
p25
I1
sVpharmacy
p26
I1
sVbetter
p27
I1
sVwood
p28
I1
sVblack
p29
I2
sVargentina
p30
I1
sVmight
p31
I1
sVride
p32
I6
sVkick
p33
I1
sVreal
p34
I1
sVshoot
p35
I1
sVgood
p36
I1
sVyo
p37
I4
sVget
p38
I6
sVya
p39
I7
sVsucker
p40
I1
sVdope
p41
I5
sVstop
p42
I1
sVfat
p43
I1
sVknife
p44
I1
sVbreak
p45
I1
sVme
p46
I1
sVmade
p47
I1
sVevery
p48
I1
sVknow
p49
I1
sVkiss
p50
I1
sVhands
p51
I1
sVtrade
p52
I1
sVpier
p53
I1
sVday
p54
I2
sVyeeeeeah
p55
I1
sVknock
p56
I1
sVlike
p57
I3
sVpimp
p58
I1
sVplayin
p59
I1
sVyoull
p60
I1
sVgettin
p61
I1
sVbrother
p62
I1
sVbay
p63
I1
sVtry
p64
I4
sVslide
p65
I1
sVeither
p66
I1
sVfully
p67
I2
sVpants
p68
I1
sVmo
p69
I2
sVem
p70
I2
sVel
p71
I1
sVnigga
p72
I5
sVbrim
p73
I1
sVweight
p74
I1
sVslangin
p75
I1
sVnut
p76
I1
sVrespect
p77
I1
sVback
p78
I6
sVdead
p79
I1
sVfrisco
p80
I1
sVsee
p81
I1
sVstreet
p82
I1
sVpowder
p83
I1
sVhoes
p84
I2
sV10s
p85
I1
sVblues
p86
I1
sVbest
p87
I1
sVblue
p88
I1
sVknees
p89
I1
sVmovin
p90
I1
sVhide
p91
I1
sVgod
p92
I5
sVrims
p93
I1
sVsupplied
p94
I1
sVducats
p95
I1
sVgot
p96
I4
sVbitchass
p97
I1
sVcause
p98
I6
sVslabs
p99
I1
sVbought
p100
I1
sVass
p101
I1
sVaint
p102
I4
sVkicked
p103
I1
sVfortyfive
p104
I1
sVnarcotic
p105
I1
sVcontain
p106
I1
sVpayroll
p107
I1
sVmotherfucker
p108
I6
sVhours
p109
I1
sVreported
p110
I1
sVjob
p111
I1
sVcut
p112
I1
sVlet
p113
I1
sVsink
p114
I1
sVdea
p115
I1
sVput
p116
I2
sVnews
p117
I1
sVcome
p118
I1
sVchink
p119
I1
sVsister
p120
I1
sVkids
p121
I1
sVriviera
p122
I1
sVill
p123
I4
sVstep
p124
I2
sVganksta
p125
I1
sVround
p126
I1
sVdrawers
p127
I2
sVgames
p128
I2
sVpockets
p129
I1
sVthink
p130
I2
sVsouth
p131
I2
sVthats
p132
I1
sVdont
p133
I1
sVtwelve
p134
I1
sVpussy
p135
I3
sVmakin
p136
I1
sVwash
p137
I1
sVmomma
p138
I2
sVagents
p139
I1
sVbitch
p140
I9
sVlaugh
p141
I1
sVloaded
p142
I1
sVring
p143
I1
sVcocaine
p144
I8
sVsuck
p145
I1
sVcity
p146
I1
sVlittle
p147
I1
sVpetty
p148
I1
sVfair
p149
I1
sVnine
p150
I1
sVsweater
p151
I1
sVpaint
p152
I1
sVspread
p153
I1
sVdamn
p154
I5
sVlow
p155
I1
sVway
p156
I1
sVtryin
p157
I1
sVlouisiana
p158
I1
sVtell
p159
I1
sVstore
p160
I1
sVtoo
p161
I1
sVsingin
p162
I1
sVbuy
p163
I1
sVstomach
p164
I1
sVknows
p165
I1
sVsegundo
p166
I1
sVgrabbin
p167
I1
sVbitches
p168
I1
sVcaddy
p169
I1
sVc
I2
sVyeah
p170
I1
sVgal
p171
I1
sVbun
p172
I2
sVho
p173
I2
sVbaby
p174
I1
sVha
p175
I1
sVrunnin
p176
I1
sVking
p177
I1
sVb
I1
sVlocked
p178
I1
sVlook
p179
I1
sV17
p180
I1
sVniggas
p181
I1
sVwish
p182
I1
sVstraight
p183
I1
sVup
p184
I2
sVniggaz
p185
I2
sVdroppin
p186
I1
sVcrossed
p187
I1
sVtexas
p188
I1
sVshovelin
p189
I1
sVtons
p190
I1
sV20s
p191
I1
sVfalse
p192
I1
sVthen
p193
I1
sVtriflin
p194
I1
sVfuck
p195
I5
sVim
p196
I7
sVin
p197
I1
sVneed
p198
I1
sVkeep
p199
I1
sVtrip
p200
I2
sVshit
p201
I2
sVtwentyfour
p202
I1
sVsell
p203
I1
sVhoe
p204
I1
sVtrill
p205
I1
sVsellin
p206
I2
sVmake
p207
I1
sVnuts
p208
I3
sVsnow
p209
I1
sV40
p210
I1
sVpoliticians
p211
I1
sVtake
p212
I3
sVsick
p213
I1
sVbig
p214
I2
sVyou
p215
I1
sVgat
p216
I1
sVwearin
p217
I1
sVdayton
p218
I1
sVkis
p219
I2
sVmissin
p220
I1
sVsouthern
p221
I1
sVcement
p222
I1
sVstay
p223
I1
sVwrong
p224
I2
sVmouth
p225
I1
sVnip
p226
I1
sVgrow
p227
I1
sVlegs
p228
I1
sVdrop
p229
I1
sVneck
p230
I1
sVtyme
p231
I1
sVsteady
p232
I1
sVdisease
p233
I1
sVfuckin
p234
I5
s.