(dp1
Vugk
p2
I1
sVlace
p3
I1
sVlyrics
p4
I2
sVlawas
p5
I1
sVflips
p6
I3
sVpaper
p7
I1
sVsleep
p8
I1
sVgo
p9
I1
sVlove
p10
I1
sVstill
p11
I3
sVhate
p12
I1
sVchildren
p13
I2
sVeytoeye
p14
I1
sVaint
p15
I5
sVhold
p16
I1
sVthang
p17
I2
sVpoppin
p18
I1
sVswang
p19
I1
sVhay
p20
I1
sVtears
p21
I1
sVwood
p22
I4
sVneoghborhood
p23
I1
sVwin
p24
I1
sVsmile
p25
I1
sVsucked
p26
I1
sVsplit
p27
I1
sVfool
p28
I1
sVrunnin
p29
I1
sVgood
p30
I6
sVvictims
p31
I1
sVfrown
p32
I1
sVget
p33
I3
sVsurvival
p34
I1
sVsafe
p35
I1
sVstop
p36
I1
sVeat
p37
I1
sVfeelin
p38
I1
sVsweets
p39
I2
sVbang
p40
I1
sVknow
p41
I4
sVfall
p42
I1
sVpassin
p43
I1
sVusing
p44
I1
sVlustful
p45
I1
sVday
p46
I1
sVlike
p47
I2
sVwont
p48
I1
sVnaturally
p49
I1
sVthrill
p50
I1
sVlost
p51
I1
sVbetta
p52
I1
sVtry
p53
I2
sVrace
p54
I1
sVstopped
p55
I1
sVnight
p56
I1
sVgrab
p57
I1
sVsteal
p58
I1
sVside
p59
I1
sVyall
p60
I1
sVmean
p61
I1
sVem
p62
I1
sVnigga
p63
I5
sVanother
p64
I1
sVfucking
p65
I1
sVthisaway
p66
I1
sVstreets
p67
I1
sVback
p68
I2
sVdead
p69
I1
sVup
p70
I2
sVsee
p71
I6
sVstreet
p72
I1
sVneva
p73
I2
sVyear
p74
I1
sVpopping
p75
I1
sVmisplaced
p76
I1
sVconscience
p77
I1
sVliving
p78
I1
sVways
p79
I1
sVeverythang
p80
I1
sVaway
p81
I2
sVthough
p82
I1
sVesg
p83
I1
sVdiamonds
p84
I4
sVgot
p85
I2
sVpistol
p86
I1
sVcause
p87
I2
sVmake
p88
I2
sVblow
p89
I1
sVmamas
p90
I1
sVhatein
p91
I1
sVpeel
p92
I1
sVdrinkin
p93
I1
sVnever
p94
I1
sVhere
p95
I1
sVdastardly
p96
I1
sVlet
p97
I1
sVsmokin
p98
I3
sVscreeches
p99
I1
sVdecipher
p100
I1
sVcome
p101
I1
sVchange
p102
I2
sVshine
p103
I1
sVon
p104
I1
sVg
I1
sVgetting
p105
I1
sVcould
p106
I1
sVcompulsive
p107
I1
sVdays
p108
I1
sVkeep
p109
I2
sVdrama
p110
I1
sVpuffin
p111
I1
sVmust
p112
I1
sVplace
p113
I2
sVlookin
p114
I5
sVact
p115
I1
sVshife
p116
I2
sVfuckin
p117
I1
sVbunk
p118
I1
sVwig
p119
I1
sVwhats
p120
I1
sVlied
p121
I1
sVpoint
p122
I1
sVfeel
p123
I2
sVsweet
p124
I2
sVplastic
p125
I1
sVpa
p126
I1
sVblessed
p127
I1
sVdown
p128
I1
sVfucked
p129
I1
sVtrunks
p130
I2
sVbitch
p131
I1
sVlucked
p132
I1
sVcomin
p133
I1
sVfight
p134
I1
sVglitter
p135
I1
sVtomorrow
p136
I1
sVhood
p137
I1
sVerased
p138
I1
sVwan
p139
I4
sVmuch
p140
I1
sVremains
p141
I1
sVgleam
p142
I1
sVjealousy
p143
I1
sVnormal
p144
I1
sVwhos
p145
I1
sVclangin
p146
I1
sVlive
p147
I3
sVgoing
p148
I1
sVprey
p149
I1
sVlot
p150
I1
sVmama
p151
I1
sVtryin
p152
I3
sV503
p153
I1
sVtoday
p154
I1
sVwicked
p155
I2
sVlife
p156
I2
sVdoor
p157
I1
sVway
p158
I1
sVkillas
p159
I1
sVthat
p160
I3
sVdrugs
p161
I1
sVfuck
p162
I1
sVhurt
p163
I1
sVwiping
p164
I1
sVwake
p165
I1
sVbaby
p166
I1
sVsmoking
p167
I2
sVhaters
p168
I1
sV94
p169
I1
sVwomen
p170
I1
sVme
p171
I2
sVnone
p172
I1
sVlook
p173
I2
sVniggas
p174
I7
sVcar
p175
I1
sVride
p176
I1
sVsay
p177
I6
sVcis
p178
I1
sVspliffs
p179
I1
sVdirty
p180
I1
sVpiece
p181
I1
sVdidnt
p182
I1
sVgone
p183
I4
sVcane
p184
I1
sVupset
p185
I1
sVmine
p186
I2
sVcant
p187
I2
sVim
p188
I15
sVmanner
p189
I1
sVrap
p190
I1
sVave
p191
I4
sVeveryday
p192
I1
sVshit
p193
I2
sVaround
p194
I1
sVscrew
p195
I2
sVthugs
p196
I1
sVsellin
p197
I1
sVna
p198
I4
sVthinkin
p199
I2
sVpeace
p200
I1
sVfame
p201
I1
sVswisher
p202
I1
sVtight
p203
I2
sVtake
p204
I2
sVfo
p205
I1
sVfools
p206
I1
sVdope
p207
I1
sVhomeys
p208
I1
sVgaining
p209
I1
sVeven
p210
I1
sVplay
p211
I1
sVtried
p212
I1
sVpraising
p213
I1
sVlac
p214
I1
sVcoming
p215
I1
sVjealous
p216
I1
sVman
p217
I2
sVskunk
p218
I2
sVbangin
p219
I2
sVswangin
p220
I1
sVgame
p221
I2
sVface
p222
I1
sVblastin
p223
I1
sVflippin
p224
I2
sVfact
p225
I1
sVclean
p226
I1
sVtime
p227
I1
sVlives
p228
I1
sVsmoked
p229
I1
sVlistten
p230
I1
sVtalk
p231
I1
sVjack
p232
I1
s.