(dp1
Vugk
p2
I1
sVsaying
p3
I1
sVdiss
p4
I2
sVlyrics
p5
I2
sVrepresent
p6
I1
sVmove
p7
I1
sVbring
p8
I2
sVpaper
p9
I1
sVradio
p10
I1
sVhating
p11
I1
sVgipp
p12
I1
sVcorner
p13
I1
sVfeat
p14
I1
sVyet
p15
I1
sVaint
p16
I14
sVhold
p17
I1
sVcollars
p18
I1
sVblowin
p19
I1
sVthang
p20
I2
sVshow
p21
I2
sVpoppin
p22
I1
sVacting
p23
I1
sVbullshit
p24
I1
sVlate
p25
I2
sVwall
p26
I1
sVlets
p27
I1
sVwood
p28
I1
sVbelieving
p29
I1
sVchoose
p30
I1
sVrich
p31
I1
sVtexas
p32
I1
sVta
p33
I1
sVreal
p34
I1
sVhit
p35
I1
sVyo
p36
I1
sVget
p37
I4
sVya
p38
I4
sVbig
p39
I2
sVshowing
p40
I1
sVaboutaboutabout
p41
I1
sVfrontin
p42
I1
sVknow
p43
I5
sVfall
p44
I1
sVmob
p45
I1
sVtrouble
p46
I1
sVblast
p47
I2
sVkilled
p48
I1
sVname
p49
I2
sVlike
p50
I3
sValways
p51
I2
sVdrop
p52
I1
sVgun
p53
I1
sVbad
p54
I1
sVlose
p55
I1
sVcrossing
p56
I1
sVcadillina
p57
I1
sVshaking
p58
I1
sVyall
p59
I2
sVem
p60
I1
sVass
p61
I3
sVnigga
p62
I9
sVgripping
p63
I1
sVpeople
p64
I1
sVfucking
p65
I3
sVhouse
p66
I1
sVstreets
p67
I3
sVback
p68
I1
sVgo
p69
I4
sVsee
p70
I4
sVstreet
p71
I1
sVvideo
p72
I1
sVblues
p73
I1
sVpills
p74
I1
sVshining
p75
I1
sVhide
p76
I1
sVmiss
p77
I1
sVlean
p78
I1
sVice
p79
I2
sVlooking
p80
I1
sVeverything
p81
I1
sVwaiting
p82
I3
sVdiamonds
p83
I1
sVgot
p84
I11
sVissue
p85
I1
sVknowing
p86
I1
sVblow
p87
I1
sVcity
p88
I1
sVrolled
p89
I1
sVnever
p90
I1
sVclique
p91
I1
sVcome
p92
I1
sVbask
p93
I1
sVwait
p94
I1
sVlast
p95
I1
sVoh
p96
I1
sVmany
p97
I1
sVdollars
p98
I1
sVniner
p99
I1
sVkeep
p100
I1
sVgolds
p101
I1
sVgrain
p102
I1
sVmane
p103
I1
sVsmoke
p104
I1
sVstepdaddy
p105
I1
sVskin
p106
I1
sVpassing
p107
I1
sVos
p108
I1
sVstuck
p109
I1
sVsouth
p110
I1
sVfirst
p111
I1
sVwhitey
p112
I1
sVlove
p113
I1
sVdont
p114
I6
sVfeel
p115
I1
sVtrunk
p116
I1
sVsweep
p117
I1
sVpop
p118
I1
sVone
p119
I3
sVset
p120
I1
sVbitch
p121
I2
sVcomin
p122
I1
sVmark
p123
I1
sVballin
p124
I2
sVrusty
p125
I1
sVeverybody
p126
I8
sVps
p127
I1
sVworking
p128
I1
sVprove
p129
I1
sVbite
p130
I1
sVnight
p131
I1
sVgirls
p132
I1
sVfast
p133
I1
sVfight
p134
I1
sVrottweiliers
p135
I1
sVfriend
p136
I1
sVbullshitter
p137
I1
sVmuthafucking
p138
I1
sVpump
p139
I1
sVclub
p140
I1
sVbitches
p141
I1
sVslump
p142
I1
sVlane
p143
I1
sVdisapprove
p144
I1
sVboys
p145
I1
sVeverywhere
p146
I1
sVho
p147
I1
sVbaby
p148
I1
sVline
p149
I1
sVtrying
p150
I1
sVfunk
p151
I1
sVfly
p152
I1
sVking
p153
I2
sVmade
p154
I1
sVrappin
p155
I1
sVsly
p156
I1
sVplaces
p157
I1
sVniggas
p158
I2
sVstraight
p159
I1
sVrolex
p160
I1
sVrecord
p161
I1
sVuh
p162
I3
sVlight
p163
I1
sVfaking
p164
I1
sVanybody
p165
I1
sVill
p166
I1
sVheart
p167
I1
sVstick
p168
I1
sVsteady
p169
I1
sVfuck
p170
I5
sVdeep
p171
I1
sVseville
p172
I1
sVtonight
p173
I1
sVtalking
p174
I2
sVsay
p175
I7
sVim
p176
I10
sVsomething
p177
I1
sVwant
p178
I5
sVgoodie
p179
I1
sVready
p180
I2
sVairplane
p181
I1
sVawhile
p182
I1
sVshit
p183
I10
sVsippin
p184
I1
sVtheyll
p185
I1
sVtrill
p186
I4
sVnuts
p187
I1
sVsame
p188
I1
sVtill
p189
I2
sVbark
p190
I1
sVunderground
p191
I1
sVplace
p192
I1
sVday
p193
I1
sVwheel
p194
I1
sVball
p195
I2
sVpick
p196
I1
sVhang
p197
I1
sVhoe
p198
I1
sVmouth
p199
I1
sVnothing
p200
I2
sVend
p201
I1
sVyeah
p202
I1
sVforever
p203
I1
sVremember
p204
I3
sVloud
p205
I1
sVflow
p206
I1
sVgame
p207
I1
sVthangs
p208
I4
sV2000
p209
I1
sVkeeps
p210
I1
sVgain
p211
I2
s.