(dp1
Vugk
p2
I1
sVkiddin
p3
I1
sVlyrics
p4
I2
sVshow
p5
I2
sVdollar
p6
I1
sVpitch
p7
I1
sVslippin
p8
I1
sVlove
p9
I1
sVaint
p10
I1
sVfellas
p11
I1
sVgulf
p12
I1
sVblowin
p13
I1
sVdick
p14
I1
sVhead
p15
I1
sVwood
p16
I1
sVblack
p17
I1
sVrich
p18
I1
sVwet
p19
I1
sVbourbon
p20
I1
sVghetto
p21
I1
sVtexas
p22
I1
sVta
p23
I1
sVme
p24
I3
sVgood
p25
I7
sVrasta
p26
I1
sVget
p27
I1
sVya
p28
I3
sVbig
p29
I2
sVda
p30
I6
sVshitty
p31
I1
sVgame
p32
I1
sVknow
p33
I3
sVinternational
p34
I1
sVticket
p35
I1
sVputtin
p36
I1
sVbigger
p37
I2
sVsucked
p38
I1
sVlike
p39
I5
sVpimp
p40
I1
sVleather
p41
I1
sVchains
p42
I1
sVgettin
p43
I1
sVcandy
p44
I1
sVstuff
p45
I6
sVholdin
p46
I1
sVcommon
p47
I1
sVbombs
p48
I1
sVlose
p49
I1
sVx
I1
sVwatchin
p50
I1
sVundercover
p51
I1
sVnigga
p52
I1
sVscared
p53
I1
sVsigns
p54
I1
sVricher
p55
I1
sVsee
p56
I3
sVshinin
p57
I2
sVfull
p58
I1
sVshes
p59
I1
sVhoes
p60
I6
sVclose
p61
I1
sVbusta
p62
I1
sVout
p63
I1
sVknees
p64
I1
sVmovin
p65
I1
sVpictures
p66
I1
sVexactly
p67
I1
sVboy
p68
I1
sVnewport
p69
I1
sVattitudes
p70
I1
sVplaya
p71
I1
sVdiamonds
p72
I2
sVgot
p73
I8
sVcause
p74
I1
sVhighway
p75
I1
sVbought
p76
I2
sVass
p77
I1
sVslangin
p78
I1
sVmillion
p79
I1
sVba
p80
I8
sVdo
p81
I1
sVcity
p82
I1
sVyoud
p83
I1
sVscreen
p84
I1
sVnever
p85
I3
sVridin
p86
I1
sVplex
p87
I2
sVjetsetters
p88
I1
sVput
p89
I1
sVgots
p90
I1
sVmafioso
p91
I1
sVthrow
p92
I1
sVsayin
p93
I1
sVbarettas
p94
I1
sVtitties
p95
I1
sVc
I1
sVfigured
p96
I1
sVmiss
p97
I1
sVtellers
p98
I1
sVcould
p99
I2
sVhollywood
p100
I1
sVsofas
p101
I1
sVeatin
p102
I1
sVgames
p103
I1
sVlookin
p104
I5
sVwhole
p105
I1
sVthink
p106
I1
sVmotherfucker
p107
I1
sVload
p108
I1
sVmajor
p109
I1
sVwhats
p110
I1
sVdont
p111
I1
sVsweet
p112
I1
sVmalcolm
p113
I1
sVmanage
p114
I1
sVscene
p115
I1
sVpop
p116
I1
sVyourself
p117
I1
sVhook
p118
I1
sVdone
p119
I2
sVbitch
p120
I6
sVcomin
p121
I4
sVcaligula
p122
I1
sVglitter
p123
I1
sVwan
p124
I2
sVtrunk
p125
I1
sVcrunk
p126
I1
sVgleam
p127
I1
sVfast
p128
I1
sVpaint
p129
I1
sVway
p130
I1
sVgim
p131
I1
sVtryin
p132
I5
sVmedalion
p133
I1
sVdiggin
p134
I1
sVchauffeurs
p135
I1
sVpretty
p136
I1
sVthat
p137
I2
sVdrugs
p138
I1
sVbitches
p139
I2
sVclimate
p140
I1
sVit
p141
I1
sVgrief
p142
I1
sVboys
p143
I2
sVlink
p144
I1
sVkarats
p145
I1
sVbringin
p146
I1
sVhaters
p147
I2
sVbout
p148
I1
sV96
p149
I2
sVrunnin
p150
I1
sVmega
p151
I1
sVsalad
p152
I1
sVniggas
p153
I1
sVwork
p154
I1
sVup
p155
I2
sVus
p156
I2
sVletters
p157
I1
sVdea
p158
I1
sVcrackers
p159
I1
sVpiece
p160
I1
sVdidnt
p161
I1
sVbet
p162
I3
sVhort
p163
I1
sVbreakin
p164
I1
sV10000
p165
I1
sVplayed
p166
I1
sVconfused
p167
I1
sVpieces
p168
I1
sVsteak
p169
I1
sVim
p170
I12
sVsomething
p171
I1
sVseen
p172
I1
sVskiddin
p173
I1
sVmoves
p174
I1
sVsaw
p175
I1
sVcheck
p176
I1
sVshit
p177
I1
sVsell
p178
I1
sVjackers
p179
I1
sVshirt
p180
I1
sVsit
p181
I2
sVna
p182
I2
sVmake
p183
I4
sVbackstroke
p184
I2
sVswisher
p185
I1
sVmobster
p186
I1
sV5
I1
sVluxury
p187
I1
sVplates
p188
I1
sVyou
p189
I1
sVhangin
p190
I1
sVtalkin
p191
I1
sVtried
p192
I1
sVworldwide
p193
I1
sVtighten
p194
I4
sVhotel
p195
I1
sVsmoke
p196
I1
sVprice
p197
I1
sVdrink
p198
I1
sVwinin
p199
I1
sVlobster
p200
I1
sVnoise
p201
I1
sVcoming
p202
I1
sVjealous
p203
I1
sVpat
p204
I1
sVsuck
p205
I1
sVlap
p206
I1
sVtapin
p207
I1
sVlane
p208
I1
sVskunk
p209
I1
sVbangin
p210
I1
sVbugs
p211
I1
sVflippin
p212
I2
sV2000
p213
I1
sVtruck
p214
I1
sVdinin
p215
I1
sVoneway
p216
I1
sVman
p217
I1
sVfresh
p218
I1
sVsmoked
p219
I1
sVstick
p220
I1
s.