(dp1
Vugk
p2
I1
sVshot
p3
I1
sVlyrics
p4
I2
sVsubstain
p5
I1
sVdependant
p6
I1
sVfront
p7
I2
sVdough
p8
I1
sVdie
p9
I1
sVgo
p10
I1
sVfear
p11
I1
sVstill
p12
I2
sVsaved
p13
I1
sVbrink
p14
I1
sVaint
p15
I7
sVcut
p16
I1
sVdepend
p17
I1
sVham
p18
I1
sVthinking
p19
I1
sVease
p20
I1
sVdick
p21
I1
sVeat
p22
I1
sVlyin
p23
I2
sVprophets
p24
I1
sVgoing
p25
I2
sVpays
p26
I1
sVfolks
p27
I1
sVjerky
p28
I1
sVstreetsll
p29
I1
sVsurprised
p30
I1
sVfool
p31
I1
sVpee
p32
I1
sVsomebody
p33
I2
sVsucking
p34
I1
sVyo
p35
I2
sVget
p36
I6
sVya
p37
I1
sVhopin
p38
I1
sVdope
p39
I1
sVsafe
p40
I1
sVcurb
p41
I1
sVgame
p42
I1
sVmade
p43
I1
sVevery
p44
I1
sVknow
p45
I4
sVlifemmmmmmmmmm
p46
I1
sVhands
p47
I1
sVfoot
p48
I1
sVone
p49
I3
sVbullshit
p50
I2
sVminute
p51
I1
sVcool
p52
I1
sVschool
p53
I1
sVmagic
p54
I1
sVlike
p55
I2
sVlost
p56
I1
sVeverytime
p57
I1
sVpositions
p58
I1
sV1996
p59
I1
sVtry
p60
I1
sVbad
p61
I2
sVhabits
p62
I1
sVphase
p63
I1
sVdealt
p64
I1
sVwent
p65
I2
sVaround
p66
I1
sVlayin
p67
I1
sVnames
p68
I1
sVnigga
p69
I3
sVtired
p70
I3
sVfucking
p71
I1
sVgoddamn
p72
I1
sVcomin
p73
I1
sVtreacherous
p74
I1
sVhilife
p75
I2
sValive
p76
I2
sVweed
p77
I1
sVsociety
p78
I1
sVsee
p79
I2
sVstreet
p80
I1
sVbare
p81
I1
sVus
p82
I1
sVhoes
p83
I1
sVtender
p84
I1
sVdawn
p85
I1
sVnoodles
p86
I1
sVgainable
p87
I1
sVwonder
p88
I1
sVgon
p89
I2
sVsleepin
p90
I1
sVways
p91
I1
sVsmirk
p92
I1
sVsince
p93
I1
sVtend
p94
I1
sVpulpit
p95
I1
sVgettin
p96
I4
sVwithout
p97
I1
sVgot
p98
I7
sVeazye
p99
I1
sVcause
p100
I6
sVtold
p101
I1
sVass
p102
I2
sVbe
p103
I1
sVfull
p104
I1
sVslangin
p105
I1
sVnever
p106
I2
sVcommitt
p107
I1
sVjob
p108
I1
sVdeath
p109
I1
sVcomplicated
p110
I1
sVsmokin
p111
I1
sVlasts
p112
I1
sVgrandma
p113
I1
sVgots
p114
I2
sVwanted
p115
I1
sVcome
p116
I2
sVon
p117
I2
sVputs
p118
I1
sVg
I1
sVdyin
p119
I1
sVjoke
p120
I1
sVcould
p121
I2
sVpunk
p122
I1
sVdays
p123
I1
sVedgar
p124
I1
sVwalkin
p125
I1
sVturn
p126
I1
sVamerican
p127
I1
sVlevels
p128
I1
sVfulltime
p129
I1
sVsmoke
p130
I2
sVpoverty
p131
I1
sVtheres
p132
I1
sVmotherfuckers
p133
I1
sVfuckin
p134
I2
sVfirst
p135
I1
sVfake
p136
I1
sVpistols
p137
I2
sVdont
p138
I4
sVfamily
p139
I2
sVpussy
p140
I1
sVimage
p141
I1
sVmarried
p142
I1
sVhearing
p143
I1
sVd
I1
sVwit
p144
I3
sVbitch
p145
I2
sVchurch
p146
I1
sVoutta
p147
I1
sVcocaine
p148
I1
sVboat
p149
I1
sVeverybody
p150
I1
sVlittle
p151
I1
sVdevil
p152
I1
sVyay
p153
I1
sVwould
p154
I1
sVspam
p155
I1
sVpeople
p156
I2
sVfuckers
p157
I1
sVturkey
p158
I1
sVobtainable
p159
I1
sVlive
p160
I2
sVdoubt
p161
I1
sVdamn
p162
I1
sVway
p163
I2
sVsurvive
p164
I1
sVwhite
p165
I1
sVtryin
p166
I4
sVtell
p167
I1
sVgives
p168
I1
sVfork
p169
I1
sVlife
p170
I7
sVselling
p171
I2
sVafford
p172
I1
sVgrabs
p173
I1
sVnobody
p174
I1
sVcant
p175
I2
sVfuck
p176
I2
sVraemon
p177
I1
sVhi
p178
I6
sVmaze
p179
I1
sV20000
p180
I1
sVbaby
p181
I1
sVprobably
p182
I1
sVtrue
p183
I1
sVfry
p184
I1
sVme
p185
I3
sVhundred
p186
I1
sVtossed
p187
I1
sVwore
p188
I1
sVniggas
p189
I10
sVwish
p190
I1
sVlifemmmmmmmmmmm
p191
I1
sVwork
p192
I1
sVflip
p193
I1
sVtellin
p194
I1
sVungodly
p195
I1
sVpour
p196
I1
sVoffended
p197
I1
sVnine
p198
I1
sVexist
p199
I1
sVcrackers
p200
I1
sVpiece
p201
I1
sVdidnt
p202
I1
sVage
p203
I1
sVpushin
p204
I1
sVive
p205
I1
sVcmon
p206
I1
sVfalse
p207
I1
sVchad
p208
I1
sVgive
p209
I1
sVpie
p210
I1
sVmind
p211
I2
sVit
p212
I4
sVsad
p213
I1
sVhigh
p214
I1
sVsometimes
p215
I1
sVsay
p216
I1
sVim
p217
I6
sVwant
p218
I2
sVthroat
p219
I1
sVhit
p220
I1
sVship
p221
I1
sVslab
p222
I1
sVshit
p223
I1
sVlivin
p224
I5
sVbeef
p225
I1
sVshirt
p226
I1
sVcorners
p227
I1
sVna
p228
I2
sVmake
p229
I4
sVbelong
p230
I1
sVcross
p231
I1
sV40
p232
I1
sVrubber
p233
I1
sVpreachers
p234
I1
sVedge
p235
I1
sVtake
p236
I2
sVholding
p237
I1
sVinstead
p238
I1
sVout
p239
I2
sVhustling
p240
I1
sVthinkin
p241
I1
sVweek
p242
I1
sVsittin
p243
I1
sVlookin
p244
I1
sVdusk
p245
I1
sVcrime
p246
I2
sVwhy
p247
I1
sVfelt
p248
I1
sVpaid
p249
I1
sVstay
p250
I2
sVpoke
p251
I1
sVstreets
p252
I1
sVfucked
p253
I1
sVreason
p254
I1
sVgrow
p255
I1
sVdied
p256
I1
sVman
p257
I2
sVlane
p258
I1
sVespecially
p259
I1
sVjohnson
p260
I1
sVki
p261
I1
sVledge
p262
I1
sVi10
p263
I1
sVdoe
p264
I1
sVfact
p265
I1
sVnobodys
p266
I1
sVdisturbed
p267
I1
sVtalk
p268
I1
sVmother
p269
I1
sVpush
p270
I1
sVknives
p271
I1
sVthe
p272
I1
sVthats
p273
I3
sVself
p274
I1
sVcame
p275
I2
sVleft
p276
I3
s.