(dp1
Vugk
p2
I1
sVmmmmmmmm
p3
I1
sVall
p4
I1
sVhandlin
p5
I1
sVgs
p6
I1
sVhelp
p7
I8
sVlyrics
p8
I2
sVya
p9
I4
sVrisk
p10
I1
sVbaby
p11
I2
sVyeeaaaaaaaahhhhyeaaha
p12
I1
sVsleep
p13
I1
sVgo
p14
I2
sVhell
p15
I1
sVstill
p16
I4
sVfeat
p17
I1
sVchildren
p18
I1
sVfifth
p19
I1
sVbunch
p20
I1
sVaint
p21
I5
sVlicks
p22
I1
sVthank
p23
I1
sVpray
p24
I2
sVthang
p25
I2
sVwoo
p26
I1
sVbust
p27
I1
sVenvironment
p28
I1
sVfeel
p29
I2
sVthankin
p30
I1
sVwood
p31
I1
sVgivin
p32
I2
sVchoose
p33
I1
sVwin
p34
I4
sVlord
p35
I21
sVfollowin
p36
I1
sVcool
p37
I2
sVmight
p38
I2
sVhope
p39
I3
sVta
p40
I2
sVreal
p41
I3
sVdo
p42
I3
sVhit
p43
I2
sVaround
p44
I3
sVget
p45
I6
sVread
p46
I1
sVbein
p47
I1
sVuhh
p48
I2
sVchilren
p49
I1
sVwoooorld
p50
I1
sVevery
p51
I2
sVknow
p52
I7
sVkiss
p53
I1
sVwealthy
p54
I2
sVaspirations
p55
I1
sVna
p56
I1
sVnow
p57
I5
sVbullshit
p58
I1
sVprojects
p59
I1
sVghetto
p60
I1
sVheaven
p61
I2
sVcrisp
p62
I1
sVd
I1
sVpimp
p63
I1
sVmanye
p64
I1
sVdie
p65
I3
sVlevel
p66
I1
sVmomma
p67
I1
sVnaaaaame
p68
I1
sVhmmmmmmmmmmm
p69
I1
sVbun
p70
I2
sVgamblin
p71
I1
sValways
p72
I3
sVkill
p73
I1
sVlaast
p74
I1
sVside
p75
I1
sVmean
p76
I1
sVem
p77
I2
sVright
p78
I13
sVus
p79
I2
sVdeal
p80
I1
sVpeople
p81
I6
sVhouse
p82
I1
sVstreets
p83
I6
sVback
p84
I2
sVbusslin
p85
I1
sVsee
p86
I1
sVniggaz
p87
I4
sVgoin
p88
I2
sVyep
p89
I1
sVdear
p90
I1
sVhome
p91
I2
sVgirl
p92
I1
sVbest
p93
I1
sVwonder
p94
I3
sVknees
p95
I1
sVgon
p96
I2
sVgod
p97
I1
sVsum
p98
I1
sVplease
p99
I2
sVreverend
p100
I1
sVpen
p101
I1
sVunderstood
p102
I1
sVgot
p103
I5
sVcrosscountry
p104
I1
sVdreamer
p105
I1
sVcause
p106
I9
sVuh
p107
I2
sVass
p108
I1
sVslangin
p109
I2
sVmmmmmm
p110
I1
sVchose
p111
I1
sVlettin
p112
I1
sVwan
p113
I1
sVweak
p114
I1
sVtiiiiiight
p115
I1
sVlose
p116
I4
sVscramblin
p117
I1
sVforgive
p118
I2
sVhere
p119
I2
sVlike
p120
I1
sVdisrespect
p121
I1
sVlet
p122
I1
sVpo
p123
I1
sVriskin
p124
I4
sVput
p125
I4
sVstrong
p126
I1
sVfaith
p127
I1
sVc
I1
sVbible
p128
I1
sVlast
p129
I16
sVg
I6
sVgetting
p130
I1
sVhealthy
p131
I2
sVill
p132
I1
sVhustlers
p133
I1
sVthing
p134
I1
sVfunky
p135
I1
sVgrain
p136
I1
sVsupposed
p137
I3
sVshife
p138
I2
sVmisused
p139
I1
sVwhole
p140
I1
sVthink
p141
I2
sVthats
p142
I3
sVcheese
p143
I1
sVraised
p144
I1
sVlove
p145
I4
sVdont
p146
I9
sVbricks
p147
I1
sVsweet
p148
I1
sVvain
p149
I1
sVdependin
p150
I1
sVcooome
p151
I1
sVmakin
p152
I1
sVwalk
p153
I2
sVask
p154
I1
sVswangers
p155
I1
sVdone
p156
I1
sVleast
p157
I1
sVwrap
p158
I2
sVapply
p159
I1
sVcouldnt
p160
I2
sVcocaine
p161
I1
sVnoooooowwwww
p162
I1
sVtomorrow
p163
I1
sVhood
p164
I1
sVnoooooowww
p165
I1
sVcity
p166
I1
sVlorrrrd
p167
I3
sVfast
p168
I14
sVwould
p169
I1
sVcaught
p170
I1
sVoverlook
p171
I1
sVlone
p172
I1
sVarms
p173
I2
sVlong
p174
I19
sVshowin
p175
I1
sVlive
p176
I5
sVmuch
p177
I1
sVthree
p178
I1
sVtell
p179
I1
sVway
p180
I1
sVmama
p181
I2
sVsurvive
p182
I3
sVhug
p183
I1
sVcondone
p184
I1
sVdreams
p185
I1
sVlowincome
p186
I1
sVtryna
p187
I2
sVlife
p188
I5
sVhard
p189
I3
sVpimpin
p190
I1
sVkeyyyyys
p191
I1
sVnobody
p192
I2
sVyeah
p193
I4
sVdeville
p194
I1
sVfrustration
p195
I1
sVhear
p196
I1
sVjuuuust
p197
I3
sVbug
p198
I1
sVme
p199
I12
sVmercy
p200
I1
sVfraud
p201
I1
sVtryin
p202
I1
sVborn
p203
I1
sVwish
p204
I2
sVinside
p205
I1
sVup
p206
I1
sVpayin
p207
I1
sVprayin
p208
I1
sVhustlin
p209
I3
sVdirty
p210
I3
sVcharlie
p211
I2
sVdaddy
p212
I1
sVdidnt
p213
I5
sVburbs
p214
I2
sVcatch
p215
I1
sVgive
p216
I4
sVwasnt
p217
I1
sVlived
p218
I2
sVfuck
p219
I1
sVdeep
p220
I1
sVsale
p221
I1
sVtonight
p222
I2
sVthug
p223
I1
sVcant
p224
I6
sVsometime
p225
I1
sVim
p226
I20
sVrent
p227
I1
sVplayin
p228
I1
sVanger
p229
I1
sVwished
p230
I2
sVohhhh
p231
I2
sVconspiracy
p232
I1
sVblues
p233
I1
sVshit
p234
I1
sVlivin
p235
I16
sVwilson
p236
I2
sVtheyll
p237
I1
sVmil
p238
I1
sVtrill
p239
I2
sVcorners
p240
I1
sVhmmmmmmmm
p241
I1
sVthings
p242
I1
sVmake
p243
I2
sVdrugs
p244
I2
sVneed
p245
I7
sVpac
p246
I1
sVbetter
p247
I2
sVcryin
p248
I1
sVplace
p249
I1
sVyou
p250
I2
sVwheel
p251
I1
sVplay
p252
I2
sVunless
p253
I1
sVoooooohhhhhhhhh
p254
I1
sVdoin
p255
I1
sVhang
p256
I3
sVthugs
p257
I2
sVstay
p258
I2
sVkeepin
p259
I1
sVwrong
p260
I2
sVsaid
p261
I1
sVfeds
p262
I1
sVkinda
p263
I1
sVyeaheeeeeeeeeeeeeeeeeeeeeeeeeeeeeeeeeeeeeeeeeeeeeeeeeeehhh
p264
I1
sVgrow
p265
I1
sVslang
p266
I1
sVfo
p267
I1
sVuhhhhh
p268
I1
sVlane
p269
I1
sVdealers
p270
I1
sVboys
p271
I1
sVbangin
p272
I1
sVnoooowwwwwwwwww
p273
I1
sVdog
p274
I1
sVwell
p275
I1
sVgame
p276
I4
sVpride
p277
I2
sVkeeps
p278
I1
sVunderstand
p279
I1
s.