(dp1
Vugk
p2
I1
sVlyrics
p3
I2
sVmoney
p4
I1
sVanyway
p5
I1
sVrest
p6
I1
sVbedroom
p7
I1
sVgo
p8
I3
sVstill
p9
I1
sVfine
p10
I2
sVaint
p11
I9
sVron
p12
I1
sVdick
p13
I25
sVbackstreets
p14
I1
sVbout
p15
I1
sVdicks
p16
I1
sVtexas
p17
I1
sVta
p18
I2
sVreal
p19
I2
sVdo
p20
I1
sVgood
p21
I2
sVyo
p22
I1
sVget
p23
I3
sVya
p24
I8
sVuhh
p25
I1
sVhahahahahaha
p26
I1
sVknow
p27
I4
sVskankyass
p28
I1
sVday
p29
I1
sVlike
p30
I3
sVpimp
p31
I2
sVcause
p32
I7
sVpole
p33
I1
sVtang
p34
I1
sVbad
p35
I26
sVstopped
p36
I1
sVeither
p37
I1
sVwent
p38
I2
sVmean
p39
I1
sVnigga
p40
I5
sVhouse
p41
I1
sVyeah
p42
I1
sVstreet
p43
I1
sVyknow
p44
I3
sVout
p45
I1
sVeven
p46
I3
sVknees
p47
I2
sVsaid
p48
I3
sVugly
p49
I1
sVgot
p50
I5
sVever
p51
I1
sVass
p52
I7
sVsold
p53
I1
sVnever
p54
I1
sVhere
p55
I1
sVput
p56
I3
sVbullllshit
p57
I1
sVc
I2
sVol
p58
I2
sVahead
p59
I1
sVcountry
p60
I1
sVill
p61
I1
sVwalkin
p62
I1
sVeatin
p63
I2
sVplace
p64
I1
sVaction
p65
I1
sVsouth
p66
I1
sVthats
p67
I2
sVown
p68
I1
sVwhats
p69
I1
sVdont
p70
I8
sVpussy
p71
I3
sVcrib
p72
I1
sVsatisfaction
p73
I1
sVhook
p74
I1
sVmomma
p75
I3
sVright
p76
I1
sVbitch
p77
I10
sVwan
p78
I2
sVhahahaha
p79
I1
sVstart
p80
I1
sVtryin
p81
I1
sVtype
p82
I1
sVtell
p83
I1
sVthat
p84
I2
sVstarted
p85
I1
sVbitches
p86
I1
sVhuh
p87
I1
sVtook
p88
I1
sVhear
p89
I1
sVho
p90
I5
sVbaby
p91
I1
sVha
p92
I1
sVeat
p93
I1
sVmust
p94
I1
sVb
I1
sVrappin
p95
I1
sVthis
p96
I1
sVheh
p97
I1
sVstraight
p98
I1
sVtrick
p99
I2
sVsuckin
p100
I4
sVratchet
p101
I1
sVdirty
p102
I1
sVchickenhead
p103
I1
sVcassssh
p104
I1
sVlick
p105
I1
sVoutta
p106
I1
sVbent
p107
I1
sVrode
p108
I1
sVfuck
p109
I4
sVkye
p110
I1
sVhoney
p111
I1
sVsay
p112
I1
sVim
p113
I37
sVneed
p114
I2
sVsaw
p115
I1
sVeveryday
p116
I1
sVshit
p117
I7
sVsellin
p118
I1
sVna
p119
I2
sVnah
p120
I2
sVpeace
p121
I1
sVcheck
p122
I1
sVmotherfuckin
p123
I5
sVhick
p124
I1
sVtalkin
p125
I2
sVplay
p126
I1
sVaww
p127
I1
sVburts
p128
I1
sVgon
p129
I1
sVmouth
p130
I2
sVfucked
p131
I1
sVsuck
p132
I23
sVman
p133
I1
sVsomethin
p134
I1
sVaverage
p135
I1
sVyoure
p136
I1
sVflow
p137
I1
sVrollin
p138
I1
sVface
p139
I2
sVfuckin
p140
I1
sVtime
p141
I1
sVchris
p142
I1
sVbun
p143
I1
sVtalk
p144
I1
s.