(dp1
Vugk
p2
I2
sVhouston
p3
I1
sVcooking
p4
I1
sVshot
p5
I1
sVlyrics
p6
I2
sVshow
p7
I1
sVmoney
p8
I2
sVsent
p9
I1
sVgun
p10
I1
sVpaper
p11
I1
sVgauge
p12
I1
sVcuts
p13
I5
sVking
p14
I1
sVcold
p15
I1
sVstill
p16
I1
sVfeat
p17
I1
sVfind
p18
I1
sVdown
p19
I1
sVdummies
p20
I1
sVaint
p21
I6
sVtrying
p22
I1
sVtx
p23
I1
sVimma
p24
I1
sVmuch
p25
I1
sVguts
p26
I2
sVyoung
p27
I1
sVbust
p28
I2
sVcrew
p29
I1
sVbetter
p30
I1
sVstreets
p31
I1
sVlets
p32
I1
sVgoing
p33
I1
sVgon
p34
I1
sVcrack
p35
I1
sVbout
p36
I1
sVlocal
p37
I1
sVtexas
p38
I8
sVtake
p39
I1
sVreal
p40
I1
sVhit
p41
I2
sVlivin
p42
I1
sVyo
p43
I7
sVget
p44
I2
sVbeat
p45
I1
sVbig
p46
I2
sVdope
p47
I10
sVsafe
p48
I1
sVwatch
p49
I1
sVfat
p50
I1
sVnext
p51
I1
sVfiends
p52
I2
sVnoids
p53
I1
sVknow
p54
I1
sVhalf
p55
I1
sVworld
p56
I1
sVblast
p57
I1
sVday
p58
I1
sVname
p59
I1
sVbrought
p60
I2
sVlike
p61
I3
sVlost
p62
I1
sVcause
p63
I7
sVclientele
p64
I1
sV16
p65
I1
sVbetta
p66
I1
sVbail
p67
I2
sVcalling
p68
I1
sVtry
p69
I3
sVarthur
p70
I1
sVstupid
p71
I2
sVcar
p72
I1
sVtrillest
p73
I1
sVuniversity
p74
I1
sVunloaded
p75
I1
sVmaking
p76
I1
sVcry
p77
I1
sVnigga
p78
I6
sVvilla
p79
I1
sVweight
p80
I1
sVslangin
p81
I1
sVhouse
p82
I1
sVscared
p83
I1
sVhard
p84
I1
sVback
p85
I2
sVdead
p86
I1
sVmuthafuckas
p87
I2
sVgo
p88
I1
sVsee
p89
I2
sVstreet
p90
I1
sVpicked
p91
I1
sVhome
p92
I4
sVlexus
p93
I1
sVreally
p94
I1
sVblue
p95
I2
sVdropping
p96
I1
sVtakin
p97
I1
sVposse
p98
I1
sVfingers
p99
I1
sVpump
p100
I1
sVclosed
p101
I1
sVcadillac
p102
I1
sVgot
p103
I5
sVyoull
p104
I1
sVchecks
p105
I1
sVbought
p106
I1
sVass
p107
I6
sVblow
p108
I1
sVrun
p109
I1
sVbold
p110
I1
sVmuthafucka
p111
I1
sVfree
p112
I1
sVstep
p113
I1
sVlet
p114
I1
sVpimp
p115
I1
sVtrunk
p116
I1
sVfuck
p117
I1
sVcome
p118
I4
sVlegit
p119
I1
sVscary
p120
I1
sVc
I2
sVfigured
p121
I1
sVlast
p122
I1
sVtriggers
p123
I1
sVcould
p124
I2
sVfightin
p125
I1
sVdrug
p126
I2
sVundercover
p127
I1
sVounce
p128
I1
sVcircuit
p129
I1
sVgotitgood
p130
I1
sVdre
p131
I1
sVmaker
p132
I1
sVroad
p133
I1
sVthats
p134
I1
sVload
p135
I1
sVnerve
p136
I1
sVnaughty
p137
I1
sVdont
p138
I7
sVpa
p139
I1
sVscene
p140
I1
sVfeet
p141
I1
sVask
p142
I1
sVmomma
p143
I1
sVbitch
p144
I6
sVtony
p145
I1
sVfiend
p146
I1
sVcouldnt
p147
I1
sVditch
p148
I2
sVopen
p149
I2
sVboat
p150
I1
sVguess
p151
I2
sVlong
p152
I1
sVlifes
p153
I1
sVclip
p154
I1
sVchrome
p155
I1
sVfast
p156
I1
sVwhos
p157
I1
sVtrigger
p158
I1
sVcall
p159
I1
sVwhite
p160
I2
sVbooming
p161
I1
sVmarkets
p162
I1
sVturnin
p163
I1
sVshell
p164
I1
sVsaid
p165
I1
sVrolling
p166
I1
sVreimburse
p167
I1
sVnobody
p168
I1
sVtook
p169
I1
sVsales
p170
I1
sVglamour
p171
I1
sVcops
p172
I1
sVunderstand
p173
I1
sVho
p174
I1
sVsmoking
p175
I1
sVbe
p176
I2
sV92
p177
I1
sVyayo
p178
I2
sVme
p179
I1
sVpull
p180
I1
sV12
p181
I1
sVjoin
p182
I1
sVturtles
p183
I1
sVniggas
p184
I3
sVswole
p185
I1
sVstraight
p186
I1
sVwork
p187
I1
sVattached
p188
I1
sVup
p189
I2
sVus
p190
I1
sVdick
p191
I1
sVyoungass
p192
I1
sVdirty
p193
I1
sVmeet
p194
I1
sV50s
p195
I1
sVtheres
p196
I1
sVblock
p197
I1
sVinch
p198
I1
sVconstant
p199
I1
sVfigure
p200
I1
sVgive
p201
I1
sVlongs
p202
I1
sVgraduating
p203
I1
sVtax
p204
I1
sVit
p205
I1
sVfaker
p206
I1
sVspent
p207
I1
sVcant
p208
I1
sVselling
p209
I1
sVim
p210
I3
sVstash
p211
I1
sVay
p212
I1
sVstole
p213
I1
sVcheck
p214
I1
sVshit
p215
I8
sVput
p216
I1
sVsell
p217
I5
sVthugs
p218
I1
sVend
p219
I1
sVtrill
p220
I3
sVhtown
p221
I1
sVmake
p222
I4
sVnuts
p223
I2
sVoh
p224
I1
sVport
p225
I1
sVmuthafuckin
p226
I5
sVguns
p227
I1
sVhos
p228
I2
sVexploded
p229
I1
sV9
I2
sVweek
p230
I1
sVeven
p231
I1
sVsweeper
p232
I1
sVbitches
p233
I1
sVbailing
p234
I1
sVtrack
p235
I1
sVust
p236
I2
sVshouldve
p237
I1
sVwelcome
p238
I1
sVslammer
p239
I1
sVstay
p240
I1
sVmontana
p241
I1
sVmoving
p242
I1
sVdust
p243
I2
sVpat
p244
I1
sVfinding
p245
I1
sVclass
p246
I1
sVjacked
p247
I1
sVshort
p248
I9
sVunload
p249
I1
sVlight
p250
I2
sVage
p251
I1
sVwell
p252
I1
sVsale
p253
I1
sVrollin
p254
I1
sVface
p255
I1
sVkillers
p256
I1
sVjail
p257
I2
sVfuckin
p258
I7
sVtime
p259
I2
sVworst
p260
I1
sVlaws
p261
I1
s.