(dp1
Vugk
p2
I1
sVstandin
p3
I1
sVsucker
p4
I1
sVlyrics
p5
I2
sVmoney
p6
I1
sVchild
p7
I1
sVyears
p8
I1
sVstoned
p9
I14
sVcold
p10
I3
sVwindshield
p11
I1
sVfeat
p12
I1
sVfind
p13
I1
sVdrinkin
p14
I1
sVslow
p15
I1
sVtill
p16
I1
sVimma
p17
I1
sVdick
p18
I3
sVclothesline
p19
I1
sVbetter
p20
I1
sVgranny
p21
I1
sVcrack
p22
I2
sVsnap
p23
I1
sV8
I1
sVbout
p24
I1
sVmight
p25
I1
sVtexas
p26
I1
sVmotherfuckin
p27
I1
sVfool
p28
I3
sVcase
p29
I1
sVclucker
p30
I1
sVuncles
p31
I3
sVget
p32
I6
sVbig
p33
I1
sVdope
p34
I1
sVbeggin
p35
I1
sVlunch
p36
I1
sVfiend
p37
I2
sVevery
p38
I4
sVknow
p39
I2
sVbasehead
p40
I1
sVnothin
p41
I1
sVblast
p42
I1
sVwipe
p43
I1
sV14
p44
I1
sVschool
p45
I1
sVlike
p46
I1
sVdie
p47
I1
sVclose
p48
I1
sVrocks
p49
I1
sVfattie
p50
I1
sVholdin
p51
I1
sVnight
p52
I2
sVaddicted
p53
I1
sVwent
p54
I1
sVdip
p55
I1
sVmean
p56
I1
sVnigga
p57
I1
sVhomeless
p58
I1
sVdeal
p59
I1
sVtired
p60
I1
sVfreebase
p61
I1
sVcrackle
p62
I1
sVyeah
p63
I1
sVcash
p64
I1
sVsee
p65
I2
sVshes
p66
I4
sVhome
p67
I1
sVgirl
p68
I1
sVfinna
p69
I1
sVsouth
p70
I1
sVmovin
p71
I1
sVstill
p72
I2
sVdaddy
p73
I1
sVlean
p74
I1
sVfucks
p75
I1
sVthats
p76
I1
sVpump
p77
I1
sVlord
p78
I12
sVgoes
p79
I2
sVgot
p80
I3
sVdating
p81
I1
sVcause
p82
I5
sVslugs
p83
I1
sVred
p84
I1
sVaint
p85
I1
sVfull
p86
I1
sVmonster
p87
I1
sVright
p88
I1
sVcha
p89
I1
sVgoddamn
p90
I1
sVleft
p91
I1
sVrock
p92
I1
sVmotherfucker
p93
I2
sVwater
p94
I1
sVwitcha
p95
I1
sVsmokin
p96
I1
sVpumpin
p97
I1
sVchange
p98
I1
sVstage
p99
I1
sVon
p100
I1
sVstone
p101
I2
sV38
p102
I1
sV32
p103
I1
sVcould
p104
I2
sVchoke
p105
I1
sVwalkin
p106
I1
sVfunky
p107
I1
sVstand
p108
I1
sVsmoke
p109
I2
sVlet
p110
I2
sVpullin
p111
I1
sVblock
p112
I1
sVfirst
p113
I1
sV6
I1
sVdippin
p114
I1
sVdont
p115
I3
sVmakin
p116
I1
sVpop
p117
I1
sVwit
p118
I2
sVanother
p119
I2
sVloaded
p120
I1
sVtrust
p121
I1
sVeverybody
p122
I1
sVcity
p123
I1
sVtakes
p124
I1
sVwould
p125
I1
sVhes
p126
I2
sVbeers
p127
I1
sVtop
p128
I1
sVcertify
p129
I1
sVsystem
p130
I1
sVfast
p131
I1
sVstart
p132
I1
sVlive
p133
I1
sVcall
p134
I1
sVembalming
p135
I1
sVtime
p136
I1
sVrollin
p137
I1
sVfry
p138
I1
sVtell
p139
I1
sVgives
p140
I1
sVtryna
p141
I1
sVeyes
p142
I1
sVshell
p143
I1
sVbuck
p144
I2
sVdrugs
p145
I1
sVpurse
p146
I1
sVnobody
p147
I1
sVgas
p148
I1
sVit
p149
I3
sVglass
p150
I1
sVkids
p151
I2
sVuncle
p152
I1
sVbroke
p153
I1
sVbull
p154
I1
sVcatch
p155
I1
sVhold
p156
I1
sV11
p157
I1
sVpull
p158
I1
sV13
p159
I1
sVlook
p160
I1
sVwet
p161
I1
sVup
p162
I1
sVtellin
p163
I1
sVsuckin
p164
I2
sVmr
p165
I2
sVpiece
p166
I1
sVill
p167
I1
sVbet
p168
I1
sVtoilet
p169
I1
sVstink
p170
I1
sVjunkee
p171
I12
sVtaste
p172
I1
sVchip
p173
I1
sVmind
p174
I1
sVfuck
p175
I2
sVdash
p176
I1
sVcant
p177
I2
sVim
p178
I12
sVat
p179
I1
sVgeekin
p180
I2
sVgirlfriend
p181
I1
sVtells
p182
I1
sVshit
p183
I2
sVredder
p184
I1
sVsellin
p185
I1
sVlil
p186
I2
sVmake
p187
I3
sVsix
p188
I1
sVbowl
p189
I1
sVstayed
p190
I1
sVeveryday
p191
I1
sVtight
p192
I2
sVhigh
p193
I1
sVtake
p194
I3
sVsick
p195
I1
sVhopin
p196
I1
sVgreen
p197
I1
sVused
p198
I1
sVdime
p199
I1
sVhuh
p200
I1
sVteeth
p201
I1
sVme
p202
I2
sVfluid
p203
I1
sVmouth
p204
I1
sVfucked
p205
I3
sVgoin
p206
I1
sVa
I2
sVsteady
p207
I2
sVanybody
p208
I1
sVtoke
p209
I1
sVface
p210
I1
sVaunt
p211
I1
sVfuckin
p212
I1
sVkeeps
p213
I1
sVtameka
p214
I1
sVfiendin
p215
I1
sVsmoked
p216
I1
sVself
p217
I1
sVtypical
p218
I1
s.