(dp1
Vugk
p2
I1
sVshot
p3
I1
sVlyrics
p4
I2
sVwhoever
p5
I1
sVyea
p6
I2
sVdick
p7
I1
sVbrotha
p8
I1
sVtop
p9
I1
sVsteve
p10
I1
sVbring
p11
I1
sVpaper
p12
I2
sVdough
p13
I1
sVdisperse
p14
I1
sVbandits
p15
I1
sVgo
p16
I2
sVhell
p17
I6
sVcold
p18
I2
sVfeat
p19
I1
sVaint
p20
I9
sV20
p21
I1
sVgivin
p22
I2
sVzone
p23
I1
sVcall
p24
I2
sVblooded
p25
I1
sVless
p26
I1
sVcrawla
p27
I1
sVyoung
p28
I2
sVday
p29
I1
sVchances
p30
I1
sVblack
p31
I1
sVdat
p32
I1
sVbout
p33
I4
sVbread
p34
I2
sVride
p35
I1
sVsmart
p36
I1
sVgave
p37
I4
sVreal
p38
I1
sVshoot
p39
I1
sVgood
p40
I6
sVhit
p41
I1
sVaround
p42
I1
sVyo
p43
I10
sVget
p44
I7
sVya
p45
I7
sVburna
p46
I1
sVdope
p47
I3
sVswore
p48
I4
sVsunny
p49
I1
sVhavin
p50
I1
sVbreak
p51
I1
sVgame
p52
I1
sVevery
p53
I1
sVknow
p54
I2
sVpress
p55
I1
sVusing
p56
I1
sVkilled
p57
I1
sVcool
p58
I4
sVschool
p59
I1
sVchoppa
p60
I1
sVlike
p61
I9
sVdie
p62
I1
sVfrazier
p63
I1
sVgettin
p64
I5
sVcandy
p65
I1
sVrocks
p66
I1
sVleave
p67
I2
sVinvestigate
p68
I1
sVlose
p69
I1
sVsmall
p70
I1
sVrappin
p71
I2
sVbam
p72
I1
sVsteal
p73
I1
sVside
p74
I1
sVclap
p75
I1
sVbitch
p76
I4
sVem
p77
I1
sVnigga
p78
I10
sVlasers
p79
I1
sVrepremanded
p80
I1
sVhouse
p81
I1
sVstreets
p82
I1
sVback
p83
I27
sVsecond
p84
I1
sVtaught
p85
I2
sVconnect
p86
I1
sVlawyer
p87
I4
sVfollow
p88
I1
sVplayin
p89
I2
sVgirl
p90
I1
sVclick
p91
I4
sVspider
p92
I1
sVmovin
p93
I1
sVgon
p94
I1
sVballa
p95
I1
sVtakin
p96
I20
sVthats
p97
I1
sVcell
p98
I1
sVre
p99
I1
sVenough
p100
I2
sVclasses
p101
I1
sVeverything
p102
I1
sVgot
p103
I12
sVcause
p104
I2
sVuh
p105
I5
sVass
p106
I8
sVslangin
p107
I1
sVshut
p108
I1
sVfull
p109
I1
sVcoated
p110
I1
sVlove
p111
I1
sVolder
p112
I1
sVrock
p113
I2
sVvicious
p114
I1
sVstrictly
p115
I2
sVfocused
p116
I1
sVgraza
p117
I1
sVput
p118
I1
sV101
p119
I1
sVcome
p120
I3
sVthrow
p121
I1
sVcertified
p122
I1
sVboy
p123
I3
sVhits
p124
I1
sVkids
p125
I1
sVlifestyle
p126
I1
sVg
I1
sVoh
p127
I1
sVcoulda
p128
I4
sVbreakin
p129
I1
sVwrong
p130
I5
sVkeep
p131
I1
sVhustlers
p132
I1
sVsoldier
p133
I1
sVplace
p134
I2
sVstand
p135
I1
sVlookin
p136
I1
sV1008
p137
I1
sVnaw
p138
I4
sVwhole
p139
I3
sVthink
p140
I1
sVfuckin
p141
I2
sVfirst
p142
I1
sVmajor
p143
I1
sVown
p144
I1
sVhardl
p145
I1
sVdont
p146
I5
sVfelons
p147
I1
sVpussy
p148
I1
sVdown
p149
I1
sVright
p150
I1
sVclack
p151
I4
sVrespect
p152
I1
sVcocaine
p153
I1
sVopen
p154
I1
sVtomorrow
p155
I1
sVhood
p156
I26
sVspeak
p157
I1
sVfire
p158
I1
sVpasses
p159
I1
sVfed
p160
I4
sVlong
p161
I1
sVchecked
p162
I1
sVthang
p163
I1
sVher
p164
I1
sVglocks
p165
I1
sVballas
p166
I1
sVcaught
p167
I1
sVtrenches
p168
I1
sVname
p169
I1
sVconvicted
p170
I1
sVasses
p171
I1
sVcompromise
p172
I1
sVlow
p173
I2
sVhustlin
p174
I2
sV6
I4
sVshow
p175
I1
sVdamn
p176
I4
sVgoin
p177
I4
sVyappin
p178
I1
sVtoday
p179
I1
sVflat
p180
I5
sVhead
p181
I5
sVglock
p182
I1
sVlot
p183
I2
sVkillas
p184
I1
sVthat
p185
I4
sVclub
p186
I4
sVgs
p187
I1
sVc
I1
sVamongst
p188
I1
sVit
p189
I2
sVkilla
p190
I1
sVboys
p191
I1
sVheat
p192
I1
sVbackwards
p193
I1
sVhear
p194
I1
sVbull
p195
I1
sVtowns
p196
I1
sVhold
p197
I1
sVgrams
p198
I1
sVme
p199
I2
sV10
p200
I5
sVnone
p201
I2
sVmothafucka
p202
I4
sVignit
p203
I1
sVround
p204
I1
sVniggas
p205
I16
sVcar
p206
I1
sVstraight
p207
I1
sVwork
p208
I1
sVrat
p209
I4
sVmatter
p210
I1
sVnear
p211
I2
sVain
p212
I1
sVdirty
p213
I1
sVaight
p214
I4
sVsnitches
p215
I1
sVstages
p216
I1
sVoffender
p217
I1
sVsay
p218
I2
sVtheres
p219
I2
sVmonths
p220
I4
sVdealers
p221
I1
sVenhanced
p222
I1
sVtryna
p223
I1
sVlock
p224
I1
sVslim
p225
I1
sVmind
p226
I2
sVfuck
p227
I4
sValley
p228
I1
sVtonight
p229
I2
sVmiddle
p230
I1
sVcant
p231
I1
sVim
p232
I14
sVpromised
p233
I1
sVwant
p234
I1
sVhome
p235
I4
sVneed
p236
I3
sVcrossin
p237
I1
sVworst
p238
I1
sVshit
p239
I7
sVta
p240
I1
sVchop
p241
I1
sVhoe
p242
I1
sVshirt
p243
I1
sVtrill
p244
I1
sVmake
p245
I1
sVmothafuckas
p246
I1
sVsame
p247
I1
sVfingaz
p248
I2
sVchanged
p249
I1
sVtake
p250
I2
sVrewind
p251
I1
sVfingas
p252
I1
sVgames
p253
I1
sVcounterfeit
p254
I1
sVcanaries
p255
I1
sVpagers
p256
I1
sVteachin
p257
I1
sVpicture
p258
I1
sVthug
p259
I1
sVbitches
p260
I1
sVsee
p261
I3
sVkeys
p262
I1
sVstop
p263
I1
sVdoin
p264
I1
sVdrink
p265
I2
sVspot
p266
I1
sVyoungsters
p267
I1
sValert
p268
I1
sVtalk
p269
I2
sVgrinders
p270
I1
sVmouth
p271
I1
sVmad
p272
I1
sVsnitch
p273
I2
sVaware
p274
I1
sVpool
p275
I2
sVman
p276
I1
sVsomethin
p277
I4
sVneck
p278
I1
sVphone
p279
I1
sVcame
p280
I1
sVyoure
p281
I3
sVlife
p282
I1
sVthangs
p283
I1
sVtha
p284
I4
sVtime
p285
I2
sVat
p286
I1
sVbun
p287
I1
sVparole
p288
I1
sVmic
p289
I1
sVfact
p290
I1
sVslacks
p291
I1
s.