(dp1
Vugk
p2
I1
sVchicks
p3
I2
sVtrilltype
p4
I1
sVsimp
p5
I2
sVforget
p6
I1
sVlyrics
p7
I2
sVv12
p8
I1
sVmoney
p9
I1
sVbring
p10
I1
sVnodheaded
p11
I1
sVsleep
p12
I1
sVparked
p13
I1
sVjellyroll
p14
I1
sVfellas
p15
I1
sVstill
p16
I1
sVtakin
p17
I2
sVaint
p18
I1
sVcell
p19
I1
sVfit
p20
I1
sVthang
p21
I2
sVdancin
p22
I1
sVoutside
p23
I1
sVlate
p24
I1
sVguls
p25
I3
sVblack
p26
I1
sVskip
p27
I1
sVpride
p28
I1
sVfin
p29
I1
sVride
p30
I1
sVhater
p31
I1
sVreal
p32
I2
sVgood
p33
I2
sVget
p34
I3
sVbig
p35
I1
sVuhh
p36
I2
sVbreak
p37
I2
sVflint
p38
I1
sVsnake
p39
I1
sVkiss
p40
I1
sVdr
p41
I1
sVday
p42
I1
sVroom
p43
I1
sVpimmmmp
p44
I1
sVlike
p45
I2
sVlost
p46
I1
sVjames
p47
I1
sVcool
p48
I1
sVgettin
p49
I1
sVbrother
p50
I1
sVleave
p51
I1
sVslide
p52
I1
sVtouchin
p53
I1
sVholdin
p54
I1
sVcrotch
p55
I1
sVnight
p56
I1
sVquick
p57
I1
sVchick
p58
I3
sVsoft
p59
I2
sVundercover
p60
I1
sVem
p61
I1
sVmissus
p62
I1
sVright
p63
I1
sVbooty
p64
I1
sVbump
p65
I1
sVliquor
p66
I1
sVtoys
p67
I1
sVback
p68
I2
sVsee
p69
I1
sVsure
p70
I1
sVplayin
p71
I1
sVnaked
p72
I1
sVwhat
p73
I1
sVhide
p74
I1
sVfine
p75
I1
sVpoison
p76
I1
sVonna
p77
I1
sVenough
p78
I1
sVplaya
p79
I2
sVdiamonds
p80
I1
sVgot
p81
I4
sVtips
p82
I1
sVcause
p83
I1
sVred
p84
I1
sVfull
p85
I2
sVguess
p86
I1
sVhere
p87
I1
sVbutts
p88
I1
sVlet
p89
I5
sVpimp
p90
I1
sVput
p91
I1
sVgots
p92
I1
sVcome
p93
I1
sVshoulda
p94
I1
sVchange
p95
I1
sVstage
p96
I1
sVdefinition
p97
I1
sVc
I1
sVboast
p98
I1
sVkeep
p99
I5
sVcinnamon
p100
I1
sVlookin
p101
I2
sVfaces
p102
I1
sVunh
p103
I3
sVeight
p104
I1
sVsouth
p105
I1
sVfirst
p106
I2
sValll
p107
I1
sVdont
p108
I2
sVwin
p109
I1
sVmakin
p110
I3
sVyoung
p111
I1
sVgentlemens
p112
I1
sVnigga
p113
I2
sVdone
p114
I2
sVcomin
p115
I1
sVmiss
p116
I1
sVwan
p117
I2
sVlittle
p118
I1
sVbasis
p119
I1
sVchrome
p120
I1
sVsecret
p121
I1
sVstuck
p122
I1
sVlive
p123
I2
sVcall
p124
I2
sVfeelgood
p125
I1
sVchip
p126
I1
sVboy
p127
I1
sVposter
p128
I1
sVyou
p129
I1
sVphone
p130
I1
sVbaby
p131
I1
sVhold
p132
I1
sVtrue
p133
I1
sVlimpin
p134
I1
sVtryin
p135
I1
sVsly
p136
I1
sVinside
p137
I1
sVwork
p138
I1
sVup
p139
I1
sVwill
p140
I1
sVdem
p141
I1
sVflo
p142
I2
sVta
p143
I2
sVbucked
p144
I1
sVdslangin
p145
I1
sVand
p146
I2
sVgrip
p147
I1
sVfigure
p148
I1
sVlook
p149
I1
sVpro
p150
I1
sVbenz
p151
I1
sVmind
p152
I1
sVit
p153
I2
sVtonight
p154
I1
sVpushed
p155
I1
sVim
p156
I8
sVbend
p157
I1
sVpimmmmmp
p158
I1
sVclose
p159
I1
sVcheck
p160
I1
sVbeds
p161
I1
sVsippin
p162
I1
sVin
p163
I1
sVna
p164
I2
sVmake
p165
I2
sVsitting
p166
I1
sVaside
p167
I1
sVhot
p168
I2
sVpac
p169
I1
sVtwerk
p170
I1
sVtake
p171
I9
sVvenom
p172
I1
sVsposed
p173
I1
sVhallucinogens
p174
I1
sVsin
p175
I1
sVfeminine
p176
I1
sVused
p177
I2
sVboppers
p178
I2
sVtried
p179
I1
sVagain
p180
I1
sVvictoria
p181
I1
sVdelight
p182
I1
sVmouth
p183
I1
sVlay
p184
I1
sVlaw
p185
I1
sVfriends
p186
I1
sVclass
p187
I2
sVdied
p188
I1
sVman
p189
I3
sVjones
p190
I1
sVsomethin
p191
I2
sVoff
p192
I5
sVboys
p193
I2
sVi
I1
sVdirect
p194
I1
sVtricks
p195
I1
sVswangin
p196
I1
sVrollin
p197
I1
sVshakin
p198
I1
sVpipe
p199
I1
sVswollen
p200
I1
sVthats
p201
I1
sVkickin
p202
I1
sVcame
p203
I1
s.