(dp1
Voperations
p2
I1
sVsummer
p3
I1
sVlyrics
p4
I2
sVshow
p5
I1
sVyea
p6
I1
sVsound
p7
I1
sVgranny
p8
I1
sVfocus
p9
I1
sVfather\u2019s
p10
I1
sVfour
p11
I1
sVviolent
p12
I1
sVever
p13
I1
sVwho\u2019d
p14
I1
sVcds
p15
I1
sVtouch
p16
I1
sVfear
p17
I1
sVstill
p18
I1
sVhate
p19
I3
sVyou\u2019d
p20
I1
sVbombing
p21
I1
sVhills
p22
I1
sVfit
p23
I1
sVtv
p24
I1
sVhated
p25
I2
sVexplain
p26
I1
sVit\u2019s
p27
I6
sVseems
p28
I1
sVsuits
p29
I1
sVfeel
p30
I1
sVgoing
p31
I3
sVblack
p32
I1
sVspirals
p33
I1
sVhope
p34
I1
sVrica
p35
I1
sVstarted
p36
I2
sVdo
p37
I1
sVdominant
p38
I1
sVaround
p39
I1
sVgovernment
p40
I1
sVdefies
p41
I1
sVdam
p42
I1
sVsurvival
p43
I1
sVlaughed
p44
I1
sVstop
p45
I1
sVconnects
p46
I1
sVdidn\u2019t
p47
I3
sVdark
p48
I1
sVme
p49
I1
sVknow
p50
I7
sVgot
p51
I2
sVschools
p52
I1
sVnow
p53
I1
sVday
p54
I1
sVdreams
p55
I1
sVbook\u2019s
p56
I1
sVinsurrection\u2019s
p57
I1
sVschool
p58
I1
sVlike
p59
I2
sVcount
p60
I1
sValways
p61
I1
sVbrother
p62
I1
sVcalling
p63
I1
sVbad
p64
I1
sVstupid
p65
I1
sVcommon
p66
I1
sVnight
p67
I1
sVwent
p68
I3
sVtold
p69
I2
sVcells
p70
I1
sVhelps
p71
I1
sVright
p72
I2
sVtired
p73
I1
sVtea
p74
I1
sVhard
p75
I1
sVback
p76
I1
sVyou\u2019re
p77
I1
sVignorin\u2019
p78
I1
sVsee
p79
I3
sVbooks
p80
I1
sVgave
p81
I1
sVchristian
p82
I1
sVempire
p83
I1
sVmutherfuckers
p84
I1
sVreally
p85
I7
sVviral
p86
I1
sVgon
p87
I2
sVhide
p88
I1
sVlotta
p89
I1
sVspace
p90
I1
sVgiving
p91
I1
sVrecorded
p92
I1
sVinside
p93
I1
sVcall\u2019s
p94
I1
sVtime\u2019ll
p95
I1
sVeverything
p96
I1
sVacting
p97
I1
sVasking
p98
I1
sVhacked
p99
I1
sVbetween
p100
I1
sVprobably
p101
I2
sVcause
p102
I1
sVcompliment
p103
I1
sVeither
p104
I1
sVbody
p105
I1
sVfelt
p106
I1
sVjobs
p107
I1
sVlupe
p108
I1
sVnever
p109
I7
sVwater
p110
I1
sVtracks
p111
I1
sVcome
p112
I2
sVboy
p113
I1
sVmale
p114
I1
sVnightcall
p115
I1
sVleaves
p116
I1
sVdays
p117
I1
sVkeep
p118
I1
sVturn
p119
I1
sVamerican
p120
I2
sVstand
p121
I1
sVact
p122
I1
sVcorps
p123
I1
sVthink
p124
I1
sVpoint
p125
I1
sVhero
p126
I1
sVfeatures
p127
I1
sVva
p128
I1
sVthey\u2019ll
p129
I1
sVhad
p130
I1
sVwashington
p131
I1
sVperiod
p132
I1
sVna
p133
I2
sVdrier
p134
I1
sVturning
p135
I1
sVanother
p136
I1
sVfake
p137
I1
sVspeak
p138
I1
sVeverybody
p139
I1
sVwould
p140
I1
sVwe\u2019d
p141
I1
sVrivals
p142
I1
sVmuch
p143
I2
sVdon\u2019t
p144
I3
sVway
p145
I2
sVgorgeous
p146
I1
sVmysterious
p147
I1
sVwhite
p148
I1
sVtell
p149
I2
sVmore
p150
I1
sVlot
p151
I1
sVfire
p152
I1
sVrubble
p153
I1
sVnaive
p154
I1
sVimpress
p155
I1
sVtook
p156
I2
sVthere\u2019s
p157
I1
sVphone
p158
I1
sVhear
p159
I1
sVopposites
p160
I2
sVhole
p161
I1
sViii
p162
I2
sVthey\u2019re
p163
I1
sVtown
p164
I1
sVaccount
p165
I1
sVmade
p166
I2
sVthis
p167
I2
sVain\u2019t
p168
I1
sVzero
p169
I1
sVus
p170
I5
sVwar
p171
I2
sVsilly
p172
I1
sVpetition
p173
I1
sVloves
p174
I1
sVlisten
p175
I1
sVagree
p176
I1
sVcontrol
p177
I1
sVgone
p178
I1
sVoutta
p179
I1
sVgive
p180
I1
sVeverywhere
p181
I1
sVcondition
p182
I1
sVrunaround
p183
I1
sVhonestness
p184
I1
sVtalking
p185
I1
sVexist
p186
I1
sVsomething
p187
I4
sVwant
p188
I2
sVsense
p189
I2
sVneed
p190
I1
sVbloodless
p191
I1
sVsaw
p192
I1
sVshit
p193
I1
sVfunny
p194
I1
sVterrorist
p195
I2
sVthings
p196
I2
sVmake
p197
I2
sVsame
p198
I1
sVdad
p199
I1
sVi\u2019m
p200
I4
sVread
p201
I1
sVreject
p202
I1
sVunderground
p203
I1
sVyou
p204
I1
sVcouple
p205
I2
sVhopeless
p206
I1
sVpoor
p207
I1
sVthat\u2019s
p208
I2
sVbelievers
p209
I1
sVwatch
p210
I1
sVknew
p211
I1
sVsaid
p212
I6
sVmoving
p213
I1
sVguys
p214
I1
sVcosta
p215
I1
sVi\u2019ll
p216
I1
sVkept
p217
I1
sVremember
p218
I1
sVsaddest
p219
I1
sVrules
p220
I1
sVta
p221
I1
sVlater
p222
I1
sVwell
p223
I1
sVdrive
p224
I1
sVfighting
p225
I1
sVthought
p226
I2
sVcontact
p227
I1
sVpension
p228
I1
sVfiasco
p229
I1
sVfurious
p230
I1
sVserious
p231
I1
sVhello
p232
I1
sVcame
p233
I2
sVleft
p234
I1
s.