(dp1
Vgospels
p2
I1
sVjordans
p3
I1
sVrebels
p4
I1
sVlyrics
p5
I2
sVmarvel
p6
I1
sVdance
p7
I1
sVmoney
p8
I1
sVsoon
p9
I1
sV\u2019round
p10
I1
sVmanilla
p11
I1
sVprotest
p12
I1
sVembassy
p13
I1
sVhuman
p14
I1
sVleft
p15
I1
sVgo
p16
I1
sVearth
p17
I1
sVyes
p18
I2
sVbaldwin
p19
I1
sVfind
p20
I1
sVbunch
p21
I3
sVaint
p22
I2
sVreminiscent
p23
I1
sVsuicide
p24
I1
sVemaciated
p25
I1
sVtv
p26
I1
sVwith
p27
I1
sVit\u2019s
p28
I2
sVmask
p29
I1
sVcrime
p30
I1
sVto
p31
I1
sVtears
p32
I1
sVprojects
p33
I1
sVrich
p34
I1
sVstable
p35
I1
sVcity
p36
I1
sVhope
p37
I2
sVta
p38
I1
sVghana
p39
I1
sVstarving
p40
I1
sVhit
p41
I1
sVaround
p42
I5
sVget
p43
I1
sVi\u2019m
p44
I1
sVbig
p45
I2
sVcouple
p46
I1
sVpray
p47
I1
sVwatch
p48
I1
sVdidn\u2019t
p49
I1
sVbound
p50
I1
sVfinding
p51
I1
sVbaghdad
p52
I1
sVevery
p53
I1
sVknow
p54
I1
sVfall
p55
I1
sVgifts
p56
I1
sVhighly
p57
I1
sVday
p58
I1
sVdream
p59
I2
sVinsert
p60
I1
sVheaven
p61
I1
sVlike
p62
I3
sVmothers
p63
I1
sVdid
p64
I3
sVshy
p65
I1
sVtyrant
p66
I1
sVmichael
p67
I1
sVdetroit
p68
I1
sVdinosaur
p69
I1
sVbad
p70
I1
sVtruth
p71
I1
sVmartin
p72
I1
sVsmall
p73
I1
sVx
I1
sVgrab
p74
I1
sVgiving
p75
I1
sVstraight
p76
I1
sVbone
p77
I1
sVcalendar
p78
I1
sVset
p79
I1
sVhell
p80
I1
sVvilla
p81
I1
sVshort
p82
I1
sVarrested
p83
I1
sVextremes
p84
I1
sVsign
p85
I1
sVhair
p86
I1
sVculture
p87
I1
sVsee
p88
I1
sVkatrina
p89
I1
sVvideo
p90
I1
sVconnect
p91
I1
sVyear
p92
I1
sVgirl
p93
I1
sVfreud
p94
I1
sVamerica\u2019s
p95
I2
sVparcel
p96
I1
sVreally
p97
I2
sVneo
p98
I1
sVoakland
p99
I1
sVjackson
p100
I1
sVpurple
p101
I1
sVcash
p102
I1
sVyou\u2019re
p103
I1
sVpaquino
p104
I1
sVthriller
p105
I1
sVeverything
p106
I1
sVstate
p107
I1
sVgoes
p108
I1
sVinternet
p109
I1
sVgot
p110
I2
sVchest
p111
I1
sVcause
p112
I4
sVain\u2019t
p113
I3
sVmath
p114
I1
sVpants
p115
I1
sVbody
p116
I1
sVcatwalk
p117
I1
sVcolumbus
p118
I1
sVreporting
p119
I1
sVhash
p120
I1
sVeverything\u2019s
p121
I1
sVlupe
p122
I1
sVmillion
p123
I1
sVfree
p124
I3
sVdeath
p125
I2
sVpoverty
p126
I2
sVnowhere
p127
I1
sVjets
p128
I1
sVdboy
p129
I1
sVdefinition
p130
I1
sVkids
p131
I1
sVlast
p132
I1
sVhostile
p133
I1
sVfreddy
p134
I1
sVone
p135
I1
sVfreedom
p136
I3
sVsioux
p137
I1
sVside
p138
I2
sVangeles
p139
I1
sVturn
p140
I1
sVineffective
p141
I1
sVplanned
p142
I1
sVmixed
p143
I1
sVwhole
p144
I1
sVsouth
p145
I1
sVblood
p146
I1
sVblind
p147
I1
sVhither
p148
I1
sVdepart
p149
I1
sVgarbage
p150
I1
sVcan
p151
I1
sVfeel
p152
I1
sVmalcolm
p153
I1
sVafrica
p154
I1
sVnonsense
p155
I2
sVcrucifixes
p156
I1
sVgod\u2019s
p157
I1
sVlaugh
p158
I1
sVwither
p159
I1
sVhear
p160
I1
sVcocaine
p161
I1
sVfema
p162
I1
sVkrueger
p163
I1
sVeverybody
p164
I2
sVpouring
p165
I1
sVridge
p166
I1
sVracism
p167
I1
sVfast
p168
I1
sVsunday
p169
I1
sVcontinental
p170
I1
sVlos
p171
I1
sVlive
p172
I2
sVtreat
p173
I1
sVway
p174
I3
sVtime
p175
I1
sVprivilege
p176
I1
sVwhite
p177
I2
sVwar
p178
I1
sVfriend
p179
I1
sVobsolescence
p180
I1
sVbreathe
p181
I1
sVvanilla
p182
I1
sVlife
p183
I1
sVsmithers
p184
I1
sVnaaa\u2026
p185
I1
sVratatat
p186
I1
sVsag
p187
I1
sVcoke
p188
I1
sV6
I1
sVgas
p189
I1
sVchocolate
p190
I1
sVtrail
p191
I1
sVland
p192
I1
sVbeers
p193
I1
sVcentral
p194
I1
sVtowns
p195
I1
sVear
p196
I1
sVunnecessaryness
p197
I1
sVraising
p198
I1
sVba\u2019ath
p199
I1
sVhigh
p200
I1
sVkeeping
p201
I1
sVword
p202
I1
sVgarbageman
p203
I1
sVniggas
p204
I2
sVfulfilling
p205
I1
sVwish
p206
I1
sVcells
p207
I1
sVsex
p208
I1
sVlist
p209
I1
sVus
p210
I1
sVchandler
p211
I1
sVmiddle
p212
I1
sVmonopolies
p213
I1
sVdaft
p214
I1
sVwhat\u2019s
p215
I1
sVteachers
p216
I1
sVmr
p217
I3
sVfollowing
p218
I1
sVproblem
p219
I1
sVsimilar
p220
I1
sVexample
p221
I1
sVmotherfuckin\u2019
p222
I1
sVheart
p223
I2
sVflavor
p224
I1
sVcasino
p225
I1
sVtoss
p226
I1
sVis
p227
I2
sVeverywhere
p228
I1
sVmind
p229
I1
sVclassrooms
p230
I1
sVdash
p231
I1
sVshame
p232
I1
sVsay
p233
I8
sVtag
p234
I1
sVwant
p235
I1
sVheels
p236
I1
sVspa
p237
I1
sVbreakfast
p238
I1
sVmeth
p239
I1
sVstripper
p240
I1
sVprosperity
p241
I1
sVshout
p242
I1
sVrefereeing
p243
I1
sVpay
p244
I1
sVmake
p245
I1
sVpeace
p246
I3
sVtip
p247
I1
sVdamage
p248
I1
sVpine
p249
I1
sVrules
p250
I1
sVneed
p251
I1
sVparts
p252
I1
sV5
I1
sVtake
p253
I1
sVbabies
p254
I1
sV9
I1
sVyou
p255
I1
sVhustling
p256
I1
sVpoor
p257
I1
sVboiled
p258
I1
sVslave
p259
I1
sVthat\u2019s
p260
I1
sVseparate
p261
I1
sVmodels
p262
I1
sVcadillac
p263
I1
sVpreacher\u2019s
p264
I1
sVfiasco
p265
I1
sVhorn
p266
I1
sVsong
p267
I1
sVstay
p268
I1
sVtrailers
p269
I1
sVbirthday
p270
I1
sVmad
p271
I1
sVblowing
p272
I1
sVhandbag
p273
I1
sVcroissants
p274
I1
sVethics
p275
I1
sVclass
p276
I1
sVmanifested
p277
I1
sVman
p278
I4
sVghost
p279
I2
sVpedophilia
p280
I1
sVburns
p281
I1
sVbombers
p282
I1
sVespecially
p283
I1
sVnostrils
p284
I1
sVcandles
p285
I1
sVrequest
p286
I1
sVfighting
p287
I1
sVjacket
p288
I1
sVlakota
p289
I1
sVchief
p290
I1
sVpart
p291
I1
sVjail
p292
I1
sVabsurd
p293
I1
sVsandbags
p294
I1
sVnecklace
p295
I1
sVawake
p296
I1
sVfirst
p297
I1
sVcorporate
p298
I1
sVwine
p299
I1
s.