(dp1
Vmexican
p2
I1
sVlyrics
p3
I2
sVtombs
p4
I1
sVattaching
p5
I1
sVlands
p6
I1
sVmurals
p7
I1
sVshot
p8
I1
sVstill
p9
I1
sVcauses
p10
I1
sVmarching
p11
I1
sVdeath
p12
I1
sVpolice
p13
I2
sVconsciousness
p14
I1
sVretirin
p15
I1
sVshrines
p16
I1
sVpensions
p17
I1
sVbetter
p18
I1
sVtears
p19
I1
sVwatchmen
p20
I1
sVsing
p21
I1
sVcarton
p22
I1
sVafros
p23
I1
sVgave
p24
I1
sVevening
p25
I1
sVfood
p26
I2
sVdessert
p27
I1
sVbein
p28
I1
sVdissected
p29
I1
sVbear
p30
I1
sVbaghdad
p31
I1
sVwhatever
p32
I1
sVtanks
p33
I1
sVhands
p34
I2
sVnot
p35
I1
sVbank
p36
I1
sVliberia
p37
I1
sVschool
p38
I1
sVname
p39
I1
sVcorners
p40
I1
sVrocks
p41
I1
sVmartin
p42
I1
sVcease
p43
I1
sVrekia
p44
I1
sVside
p45
I1
sVchangin
p46
I1
sVrevolution
p47
I1
sVsays
p48
I2
sVmental
p49
I1
sVtired
p50
I1
sVsterilization
p51
I1
sVcrow
p52
I1
sVliquor
p53
I2
sV67
p54
I1
sVmalice
p55
I1
sVblurred
p56
I1
sVsecond
p57
I1
sVdevices
p58
I1
sVsnatched
p59
I1
sVcombining
p60
I1
sVtrendy
p61
I1
sVillinois
p62
I1
sVblues
p63
I1
sVpills
p64
I1
sVpeople
p65
I1
sVstands
p66
I1
sVchicago
p67
I1
sVgiving
p68
I1
sVnormal
p69
I1
sVfox
p70
I1
sVliberty
p71
I1
sVmedicine
p72
I1
sVnew
p73
I2
sVcause
p74
I3
sVbird
p75
I1
sVsalute
p76
I1
sVwomb
p77
I1
sVexplosive
p78
I1
sVnature
p79
I1
sVlupe
p80
I1
sVfelony
p81
I1
sVcorn
p82
I1
sVnever
p83
I1
sVcut
p84
I1
sVwear
p85
I1
sVhoodie
p86
I1
sVrefuses
p87
I1
sVnews
p88
I1
sVreferring
p89
I1
sVvaginas
p90
I1
sVfreedom
p91
I2
sVhes
p92
I1
sVkeep
p93
I2
sVsweat
p94
I1
sVmisery
p95
I1
sVsyria
p96
I1
sVblock
p97
I1
sVhirin
p98
I1
sVjim
p99
I1
sVprotests
p100
I1
sVburning
p101
I1
sVegypt
p102
I1
sVcommunity
p103
I1
sVyoung
p104
I1
sVstretched
p105
I1
sVchurch
p106
I1
sVcarry
p107
I1
sVprobation
p108
I1
sVwan
p109
I1
sVdiagnosed
p110
I1
sVteddy
p111
I1
sVwest
p112
I2
sVcreate
p113
I1
sVbatons
p114
I1
sVgirls
p115
I1
sVtwo
p116
I1
sVclass
p117
I1
sVoccupying
p118
I1
sVoccupy
p119
I1
sVtrayvon
p120
I1
sVrock
p121
I1
sVshopping
p122
I1
sVboyd
p123
I1
sVclinics
p124
I1
sVemmit
p125
I1
sVbecoming
p126
I1
sVgas
p127
I1
sVback
p128
I1
sVnobodys
p129
I1
sVweeks
p130
I1
sVhoodies
p131
I1
sVfly
p132
I1
sVcaged
p133
I1
sVsoul
p134
I1
sVstores
p135
I1
sVhope
p136
I1
sVage
p137
I1
sVsay
p138
I1
sVlater
p139
I1
sVwell
p140
I1
sVstealing
p141
I1
sVpews
p142
I1
sVlocks
p143
I1
sVtshirt
p144
I1
sVintro
p145
I2
sVgraffiti
p146
I1
sVprayer
p147
I1
sVbedstuy
p148
I1
sVtimes
p149
I1
sVrugs
p150
I1
sVhijabs
p151
I1
sVsellin
p152
I1
sVna
p153
I1
sVthinkin
p154
I1
sVfirin
p155
I1
sVayesha
p156
I2
sVtill
p157
I1
sVposter
p158
I1
sVhigher
p159
I1
sVused
p160
I1
sVtemporary
p161
I1
sVsings
p162
I1
sVsocial
p163
I1
sVmasks
p164
I1
sVbullets
p165
I1
sVblood
p166
I1
sVnumb
p167
I1
sVservices
p168
I1
sVtorches
p169
I1
sVdesert
p170
I1
sVconsumed
p171
I1
sVinglewood
p172
I1
sVlines
p173
I1
sVacademic
p174
I1
sVcarrying
p175
I1
sVgreen
p176
I1
sVbottle
p177
I1
sVfiasco
p178
I1
sVretardation
p179
I1
sVjustify
p180
I1
s.