(dp1
Vreplied
p2
I1
sVpeace
p3
I1
sVhelp
p4
I1
sVlyrics
p5
I2
sVambulance
p6
I1
sVmoments
p7
I1
sVkeep
p8
I1
sVhands
p9
I1
sVbrain
p10
I1
sVclinic
p11
I1
sVhadiya
p12
I1
sVstill
p13
I1
sVsaved
p14
I1
sVaint
p15
I2
sVaccepted
p16
I1
sVslow
p17
I1
sVslot
p18
I1
sVfather
p19
I2
sVteaching
p20
I1
sVbout
p21
I1
sVsmart
p22
I1
sVgave
p23
I1
sVpaying
p24
I1
sVmercy
p25
I1
sVya
p26
I8
sVsmarter
p27
I1
sVdenied
p28
I1
sVimparted
p29
I1
sVevery
p30
I2
sVknow
p31
I1
sVwords
p32
I1
sVsouthside
p33
I1
sVworld
p34
I2
sVsixteen
p35
I1
sVbigger
p36
I4
sVschool
p37
I1
sVlike
p38
I1
sVharbor
p39
I1
sValways
p40
I1
sVgettin
p41
I1
sVflipped
p42
I1
sVwatched
p43
I1
sVsteps
p44
I1
sVshots
p45
I1
sVdie
p46
I1
sVwent
p47
I1
sVbond
p48
I1
sVtwelve
p49
I1
sVart
p50
I1
sVbleeding
p51
I1
sVfathers
p52
I1
sVhard
p53
I2
sValive
p54
I1
sVbooks
p55
I1
sVgirl
p56
I2
sVbest
p57
I1
sVreally
p58
I1
sVeven
p59
I2
sVchicago
p60
I1
sVquickly
p61
I1
sVoutside
p62
I1
sV23rd
p63
I1
sVgot
p64
I2
sVreading
p65
I1
sVcause
p66
I2
sVacross
p67
I1
sVass
p68
I1
sVsharks
p69
I1
sVeating
p70
I1
sVrims
p71
I1
sVlupe
p72
I1
sVfree
p73
I1
sVreason
p74
I1
sVaquarium
p75
I1
sVnovember
p76
I1
sVwanted
p77
I1
sVkitchen
p78
I1
sVwoofers
p79
I1
sVbumped
p80
I1
sVdaughter
p81
I1
sVdidnt
p82
I1
sVcould
p83
I5
sVmonths
p84
I1
sVleaving
p85
I1
sVthing
p86
I1
sVbet
p87
I1
sVarrived
p88
I1
sVwhole
p89
I1
sVfirst
p90
I2
sVreside
p91
I1
sVkinda
p92
I1
sVyoud
p93
I1
sVcommitment
p94
I1
sVcrib
p95
I1
sVyourself
p96
I1
sVcomplied
p97
I1
sVhood
p98
I1
sVlittle
p99
I1
sVvan
p100
I1
sVlap
p101
I1
sVmuseum
p102
I1
sVthere
p103
I1
sVfast
p104
I1
sVawkwardly
p105
I1
sVran
p106
I1
sVlive
p107
I4
sVcall
p108
I1
sVsurvive
p109
I1
sVhardly
p110
I1
sVtell
p111
I1
sVdoor
p112
I1
sVdeeper
p113
I1
sVstarted
p114
I1
sVoffered
p115
I1
sVnobody
p116
I1
sVpark
p117
I1
sVtook
p118
I1
sVrealized
p119
I1
sVbreaths
p120
I1
sVlord
p121
I1
sVbaby
p122
I1
sVbelieve
p123
I1
sVapplied
p124
I1
sVking
p125
I1
sVstabilized
p126
I1
sVtank
p127
I1
sVheard
p128
I1
sVcar
p129
I2
sVinside
p130
I1
sVwork
p131
I1
sVup
p132
I2
sVvalue
p133
I1
sVtaught
p134
I1
sVachieve
p135
I1
sVdoctorate
p136
I1
sVdaddy
p137
I1
sVteased
p138
I1
sVgunfire
p139
I1
sVcoolest
p140
I1
sVseven
p141
I1
sVwang
p142
I1
sVwasnt
p143
I1
sVdescribe
p144
I1
sVdeep
p145
I1
sVhigh
p146
I1
sVplanetarium
p147
I1
sVsomething
p148
I1
sVsense
p149
I1
sVneed
p150
I1
sVseen
p151
I1
sVmartyr
p152
I1
sVsaw
p153
I2
sVfading
p154
I1
sVdifferent
p155
I1
sVfloor
p156
I1
sVsix
p157
I1
sVstayed
p158
I1
sVregions
p159
I1
sVfield
p160
I1
sVtwentytwo
p161
I1
sVspecial
p162
I1
sVsick
p163
I1
sVbig
p164
I1
sVyou
p165
I2
sVneutron
p166
I1
sVthough
p167
I1
sVknew
p168
I3
sVmoment
p169
I1
sVstarin
p170
I1
sVbullets
p171
I1
sVjonylah
p172
I2
sVfiasco
p173
I1
sVweekend
p174
I1
sVgrow
p175
I2
sVman
p176
I1
sVforever
p177
I5
sVin
p178
I1
sVmedical
p179
I1
sVproud
p180
I1
sVroughly
p181
I1
sVlooked
p182
I1
sVmother
p183
I1
sVeverything
p184
I1
sVthats
p185
I2
sVscholarship
p186
I1
s.