(dp1
Vsmokin
p2
I1
sVcincinnati
p3
I1
sVlyrics
p4
I3
sVwalmarts
p5
I1
sVpianos
p6
I1
sVsouls
p7
I1
sVdose
p8
I1
sVisnt
p9
I1
sVoverdose
p10
I1
sVgo
p11
I2
sVstill
p12
I1
sVeyes
p13
I1
sVfind
p14
I1
sVaint
p15
I1
sVstyle
p16
I1
sVbusy
p17
I1
sVamerikills
p18
I1
sVflood
p19
I1
sVlining
p20
I1
sVfernando
p21
I1
sVanswered
p22
I1
sVlets
p23
I1
sVcivilization
p24
I1
sVblack
p25
I1
sVsamples
p26
I1
sVaround
p27
I1
sVmyth
p28
I1
sVget
p29
I1
sVya
p30
I2
sVpractice
p31
I1
sVintimidation
p32
I1
sVwave
p33
I1
sVhands
p34
I1
sVshadow
p35
I1
sVsilver
p36
I1
sVparrow
p37
I1
sVwont
p38
I1
sVuttering
p39
I1
sVlike
p40
I4
sVdig
p41
I1
sVlist
p42
I1
sV50
p43
I1
sVleave
p44
I1
sVthots
p45
I1
sVsettle
p46
I1
sVarrow
p47
I1
sVdance
p48
I1
sVgrab
p49
I1
sVtold
p50
I1
sVem
p51
I1
sVnigga
p52
I1
sVold
p53
I1
sVbrita
p54
I1
sVhouse
p55
I1
sVyeah
p56
I1
sVrivers
p57
I1
sVmotorboat
p58
I1
sVsee
p59
I2
sVsea
p60
I1
sVboas
p61
I1
sVhaaaan
p62
I1
sVport
p63
I1
sVout
p64
I1
sVeven
p65
I1
sVliving
p66
I1
sVchikafalashios
p67
I1
sVliterally
p68
I1
sVcorpse
p69
I1
sVsince
p70
I1
sVfingers
p71
I1
sVpancakes
p72
I1
sVmiles
p73
I1
sVenvelopes
p74
I1
sVbutterin
p75
I1
sVprogress
p76
I1
sVwkrp
p77
I1
sVleader
p78
I1
sVpiss
p79
I1
sVgrowls
p80
I1
sVscrolls
p81
I1
sVassociate
p82
I1
sVlupe
p83
I1
sVlakes
p84
I1
sVbroken
p85
I1
sVlet
p86
I1
sVhyannis
p87
I1
sVplague
p88
I1
sVplots
p89
I1
sV100
p90
I1
sVfrancis
p91
I1
sVreceived
p92
I1
sVkids
p93
I1
sVquills
p94
I1
sVstalagmite
p95
I1
sVleaves
p96
I1
sVtitanic
p97
I1
sVamericas
p98
I1
sVwalkin
p99
I1
sVwheels
p100
I1
sVintroduced
p101
I1
sVloud
p102
I1
sVshots
p103
I1
sVthats
p104
I1
sVfeed
p105
I1
sVdials
p106
I1
sVcrib
p107
I1
sVwalk
p108
I2
sV60
p109
I1
sVlettuce
p110
I1
sVsober
p111
I1
sVkings
p112
I2
sVbubonic
p113
I1
sVmiss
p114
I1
sVart
p115
I1
sVheads
p116
I1
sVproceed
p117
I3
sVglocks
p118
I1
sVperished
p119
I1
sVcannock
p120
I1
sVquestion
p121
I1
sVtwo
p122
I1
sVstation
p123
I1
sVmusic
p124
I1
sVdon\u2019t
p125
I1
sVhandshakes
p126
I1
sVvalley
p127
I1
sVheels
p128
I1
sVstomach
p129
I1
sVspit
p130
I1
sVclub
p131
I1
sVhuh
p132
I1
sVford
p133
I1
sVphone
p134
I1
sVhear
p135
I1
sVchild
p136
I1
sVlast
p137
I2
sVhold
p138
I1
sVvindaloo
p139
I1
sVgrace
p140
I1
sVrunnin
p141
I1
sVscarab
p142
I1
sVguild
p143
I1
sVwearin
p144
I1
sVcoppola\u2019s
p145
I1
sVinside
p146
I2
sVbill
p147
I1
sVsalats
p148
I1
sVcant
p149
I1
sVcat
p150
I1
sVpatients
p151
I1
sVwild
p152
I1
sVmoonlit
p153
I1
sVdrops
p154
I1
sVmargin
p155
I1
sVexample
p156
I1
sVsills
p157
I1
sVchops
p158
I1
sVive
p159
I1
sVcrazy
p160
I1
sVques
p161
I1
sVoutta
p162
I1
sVsan
p163
I1
sVdownfall
p164
I1
sVprocess
p165
I1
sVrode
p166
I1
sVit
p167
I2
sVyachts
p168
I1
sVhigh
p169
I1
sVbones
p170
I1
sVrat
p171
I1
sVmates
p172
I1
sVim
p173
I1
sVthug
p174
I1
sVrally
p175
I1
sVface
p176
I1
sVgarden
p177
I1
sVloakin
p178
I1
sVopen
p179
I1
sVmake
p180
I2
sVlactates
p181
I1
sVcrowns
p182
I1
sVtill
p183
I1
sVhot
p184
I1
sVcomplex
p185
I1
sVshirk
p186
I1
sVbegin
p187
I1
sVmay
p188
I1
sVgas
p189
I1
sVopenin
p190
I1
sVpharaoh
p191
I1
sVpair
p192
I4
sVmarrow
p193
I1
sVhaann
p194
I1
sVloaded
p195
I1
sVman
p196
I1
sVsomethin
p197
I1
sVland
p198
I2
sVcalls
p199
I1
sVstilts
p200
I1
sVclear
p201
I1
sVrollin
p202
I1
sVblunder
p203
I1
sVperish
p204
I1
sVfiasco
p205
I1
sVpush
p206
I1
sVtall
p207
I1
sVlocalists
p208
I1
sVnah
p209
I1
s.