(dp1
Vsouls
p2
I1
sVsnip
p3
I1
sVprotest
p4
I1
sVhate
p5
I1
sVrow
p6
I1
sVrights
p7
I1
sVgold
p8
I2
sVtv
p9
I1
sVswat
p10
I1
sVpermanently
p11
I2
sVterror
p12
I1
sVlord
p13
I1
sVsovereignty
p14
I1
sVsent
p15
I1
sVta
p16
I1
sVme
p17
I1
sVstring
p18
I2
sVprepaid
p19
I1
sVend
p20
I1
sVjaco
p21
I1
sVputting
p22
I1
sVschool
p23
I1
sVdig
p24
I1
sVtabletops
p25
I1
sVtry
p26
I1
sVmm
p27
I1
sVteam
p28
I2
sVsmall
p29
I1
sVforce
p30
I1
sVcrow
p31
I3
sVmalice
p32
I1
sVboots
p33
I1
sVpreacher
p34
I1
sVrate
p35
I2
sVerrors
p36
I1
sVrazorwired
p37
I1
sVcell
p38
I1
sVlights
p39
I1
sVnew
p40
I7
sVstaff
p41
I1
sVsweaters
p42
I1
sVtold
p43
I1
sVfull
p44
I1
sVsuge
p45
I1
sVnever
p46
I2
sVanswers
p47
I1
sVmet
p48
I1
sVstrong
p49
I1
sVbox
p50
I2
sVboy
p51
I1
sVbible
p52
I1
sVteeth
p53
I1
sVshift
p54
I1
sVpick
p55
I1
sVthats
p56
I7
sVshovel
p57
I1
sVlove
p58
I1
sVpunching
p59
I1
sVarmed
p60
I1
sVfed
p61
I1
sVzip
p62
I1
sVtwo
p63
I1
sVcall
p64
I4
sVcalm
p65
I1
sV6
I2
sVstrike
p66
I2
sVtell
p67
I1
sVwicked
p68
I1
sVtester
p69
I1
sVpropellers
p70
I1
sVit
p71
I1
sVglass
p72
I1
sVhabitually
p73
I1
sVrigid
p74
I1
sVrabbit
p75
I1
sVhole
p76
I1
sVhold
p77
I2
sVfly
p78
I1
sVwouldnt
p79
I1
sVguarde
p80
I1
sVniggas
p81
I13
sVtunnel
p82
I2
sVride
p83
I1
sVsoul
p84
I1
sVguards
p85
I1
sVcould
p86
I2
sVcontrol
p87
I3
sVclaim
p88
I1
sVcrazy
p89
I1
sVraps
p90
I1
sVlock
p91
I1
sVfuck
p92
I1
sVaccept
p93
I2
sVboycott
p94
I1
sVdegenerate
p95
I1
sVswung
p96
I1
sVcourt
p97
I1
sVbreaking
p98
I1
sV1
I4
sVgate
p99
I1
sVmay
p100
I2
sVwatch
p101
I2
sVrubyencrusted
p102
I1
sVdinosaurs
p103
I1
sVwrong
p104
I1
sVwaves
p105
I1
sVdate
p106
I1
sVmonitoring
p107
I1
sVlaw
p108
I1
sVman
p109
I3
sVrefuse
p110
I2
sVrollie
p111
I1
sVmaybe
p112
I1
sVjail
p113
I2
sVroad
p114
I1
sVafrican
p115
I1
sVwing
p116
I1
sVrifles
p117
I1
sVhelp
p118
I3
sVmission
p119
I1
sVyears
p120
I1
sVthrough
p121
I2
sVhell
p122
I1
sVcold
p123
I1
sVpolice
p124
I3
sVthank
p125
I2
sVselves
p126
I1
sVjim
p127
I3
sVwriting
p128
I1
sVbetter
p129
I4
sVls
p130
I1
sVorange
p131
I1
sVmight
p132
I4
sVphone
p133
I1
sV3
I1
sVfood
p134
I1
sVkiller
p135
I1
sVrecords
p136
I1
sVhands
p137
I1
sVnow
p138
I2
sVcage
p139
I1
sVdown
p140
I2
sVbowling
p141
I1
sVmichaels
p142
I1
sVside
p143
I1
sVem
p144
I4
sVcorrectional
p145
I1
sVwoo
p146
I1
sVhard
p147
I1
sVunlock
p148
I1
sVbooks
p149
I1
sVfist
p150
I1
sVyear
p151
I1
sVout
p152
I5
sVliving
p153
I2
sVgon
p154
I2
sVgod
p155
I4
sVlooking
p156
I13
sVmess
p157
I1
sV7
I2
sVgot
p158
I7
sVget
p159
I10
sVreceiving
p160
I2
sVcause
p161
I2
sVass
p162
I2
sVworking
p163
I2
sVfree
p164
I2
sVput
p165
I1
sVrehabilitate
p166
I1
sVyard
p167
I1
sVshelves
p168
I1
sVprofessions
p169
I1
sVdays
p170
I1
sVtimes
p171
I1
sVconversation
p172
I2
sVunborn
p173
I1
sV5th
p174
I1
sVfeed
p175
I1
sVappeals
p176
I1
sVdont
p177
I1
sVnumber
p178
I3
sVone
p179
I2
sVfeet
p180
I1
sVanother
p181
I1
sVties
p182
I1
sVcorporations
p183
I1
sVvisions
p184
I1
sVhots
p185
I2
sVtop
p186
I1
sVsystem
p187
I1
sVinmate
p188
I1
sV2
I5
sVtoo
p189
I1
sVhundred
p190
I1
sVnooses
p191
I1
sVeyes
p192
I1
sVdreadlocks
p193
I1
sVcops
p194
I2
sVmural
p195
I1
sVconsult
p196
I1
sVneck
p197
I1
sVking
p198
I2
sVdouble
p199
I2
sVrecording
p200
I1
sVlight
p201
I1
sVsnitches
p202
I1
sVrobocop
p203
I1
sVwasnt
p204
I1
sVsay
p205
I1
sVneed
p206
I2
sVayesha
p207
I1
sVsell
p208
I2
sVtake
p209
I2
sVdoors
p210
I1
sVplay
p211
I1
sVelectric
p212
I1
sVthough
p213
I1
sVreach
p214
I1
sVleave
p215
I1
sVplan
p216
I1
sVsheets
p217
I1
sVprisoner
p218
I5
sVclass
p219
I1
sVdoc
p220
I1
sVsale
p221
I1
sVface
p222
I1
sVfiasco
p223
I1
sVsalt
p224
I2
sVbomb
p225
I1
sVkite
p226
I2
sVlyrics
p227
I2
sVhunger
p228
I1
sVvisitor
p229
I2
sVhelicoptering
p230
I1
sVfeat
p231
I1
sVfind
p232
I2
sVshoes
p233
I1
sVaint
p234
I3
sVtaps
p235
I1
sVdick
p236
I1
sVwritten
p237
I1
sVgoing
p238
I2
sVfolks
p239
I1
sVwatching
p240
I4
sVhope
p241
I1
sV10
p242
I1
sVbeat
p243
I1
sVstop
p244
I1
sVcoast
p245
I1
sVjailhouse
p246
I1
sVtheyself
p247
I1
sVtrade
p248
I1
sVwhats
p249
I1
sVbar
p250
I2
sVtwice
p251
I1
sVgloves
p252
I1
sVrelease
p253
I1
sVbars
p254
I1
sVset
p255
I2
sVsee
p256
I3
sVdamnation
p257
I1
sVhoes
p258
I2
sVsubject
p259
I1
sVcloset
p260
I1
sVaway
p261
I5
sVstate
p262
I1
sVscore
p263
I1
sVvarious
p264
I1
sVfinger
p265
I2
sVcorrectly
p266
I1
sVapproach
p267
I1
sVgarde
p268
I1
sVbrink
p269
I1
sVsitout
p270
I1
sVlupe
p271
I1
sVsold
p272
I1
sVwear
p273
I1
sVkey
p274
I4
sVklansman
p275
I1
sVkitchen
p276
I1
sVcop
p277
I2
sVcos
p278
I1
sVlast
p279
I1
sVcot
p280
I2
sVquiet
p281
I1
sVhe\u2019ll
p282
I1
sVwhole
p283
I3
sVrehabilitated
p284
I1
sVzeke
p285
I1
sVbunkin
p286
I1
sVco
p287
I1
sVsweep
p288
I1
sVkings
p289
I2
sVlate
p290
I1
sVthree
p291
I1
sVpc
p292
I1
sVmuch
p293
I1
sVdamn
p294
I1
sVtreat
p295
I1
sVcollected
p296
I1
sVfry
p297
I1
sVempty
p298
I2
sVodessa
p299
I1
sVlife
p300
I5
sVlived
p301
I1
sVflight
p302
I1
sVspit
p303
I1
sVsound
p304
I1
sVlook
p305
I1
sVcaged
p306
I1
sVtrick
p307
I1
sVsmart
p308
I1
sVbalance
p309
I2
sVsecurus
p310
I2
sVmya
p311
I1
sVim
p312
I6
sVid
p313
I2
sVopen
p314
I1
sVmake
p315
I2
sVbowl
p316
I1
sVpac
p317
I1
sVslammed
p318
I1
sVkeys
p319
I1
sVhang
p320
I1
sVwarden
p321
I1
sVjealous
p322
I1
sVsix
p323
I1
sVkeep
p324
I1
sVcenter
p325
I1
sVcharges
p326
I4
sVyoure
p327
I3
sVthought
p328
I1
sVwithout
p329
I1
sVmolester
p330
I1
sVmislaid
p331
I1
sVleft
p332
I1
sVyogi
p333
I1
sVsegregate
p334
I1
sVquotes
p335
I2
sVusing
p336
I2
sVyet
p337
I1
sVcaptured
p338
I1
sVdeath
p339
I1
sVcuffs
p340
I1
sVlets
p341
I2
sVprison
p342
I3
sVkick
p343
I1
sVopt
p344
I1
sVaround
p345
I1
sVknock
p346
I1
sVmop
p347
I1
sVprotesters
p348
I1
sVwives
p349
I1
sVgame
p350
I1
sVknow
p351
I1
sVpress
p352
I8
sVworld
p353
I2
sVaccepted
p354
I1
sVwings
p355
I1
sVloss
p356
I1
sVlike
p357
I15
sVchairs
p358
I1
sVaccelerating
p359
I1
sVcollect
p360
I1
sVnose
p361
I2
sVtwelve
p362
I1
sVnigga
p363
I2
sVold
p364
I11
sVole
p365
I1
sVscared
p366
I2
sVback
p367
I1
sVlibrary
p368
I1
sVpalm
p369
I1
sVhome
p370
I2
sVlead
p371
I2
sVtube
p372
I1
sVpen
p373
I2
sVeither
p374
I1
sVrapping
p375
I1
sVuse
p376
I1
sVrefused
p377
I1
sVpressure
p378
I1
sVstep
p379
I1
sVthrow
p380
I3
sVwould
p381
I4
sVbgf
p382
I1
sVgetting
p383
I2
sVob
p384
I1
sVseeds
p385
I1
sVsoundin
p386
I1
sVblock
p387
I3
sVletters
p388
I1
sVletter
p389
I1
sVfacility
p390
I2
sVafroblack
p391
I1
sVguard
p392
I1
sVweather
p393
I1
sVrolls
p394
I1
sVwan
p395
I2
sVcaviar
p396
I1
sVpages
p397
I1
sVhed
p398
I1
sVstart
p399
I2
sVstars
p400
I1
sVsuit
p401
I1
sVmusic
p402
I2
sVwar
p403
I1
sVshank
p404
I2
sVneedles
p405
I1
sVcrank
p406
I1
sVremote
p407
I1
sVtrying
p408
I1
sVpull
p409
I2
sVmade
p410
I2
sVcells
p411
I2
sVus
p412
I8
sVtreasure
p413
I1
sVun
p414
I2
sVdirty
p415
I1
sVleathers
p416
I1
sVfaggot
p417
I1
sVgone
p418
I1
sVab
p419
I1
sVpreaching
p420
I1
sVam
p421
I1
sVdeep
p422
I2
sVbeats
p423
I1
sVmoors
p424
I1
sVright
p425
I1
sVtogether
p426
I1
sVay
p427
I1
sVshit
p428
I2
sVthugs
p429
I1
sVdying
p430
I1
sVna
p431
I3
sVswords
p432
I2
sVtil
p433
I1
sVtin
p434
I1
sVstripping
p435
I1
sVsick
p436
I3
sVpapers
p437
I1
sVnu
p438
I1
sVwelcome
p439
I1
sVvisits
p440
I1
sVstay
p441
I2
sVtown
p442
I1
sVscores
p443
I1
sVmusicis
p444
I1
sVmeals
p445
I1
sVlane
p446
I1
sVland
p447
I1
sVspades
p448
I1
sVfor
p449
I1
sVcalls
p450
I2
sVwife
p451
I1
sVmask
p452
I1
sVdyed
p453
I1
sVhella
p454
I1
sVtime
p455
I1
sVeverywhere
p456
I1
sVparole
p457
I1
s.