(dp1
Vlyrics
p2
I2
sVludacris
p3
I2
sVrants
p4
I1
sVfall
p5
I1
sVinvent
p6
I1
sVyears
p7
I1
sVrecycled
p8
I1
sV1\u2032s
p9
I1
sVdough
p10
I1
sVgo
p11
I1
sVyes
p12
I1
sVstill
p13
I2
sVbefore
p14
I1
sVaint
p15
I3
sVslow
p16
I1
sVpray
p17
I1
sVexplain
p18
I1
sVit\u2019s
p19
I1
sVenough
p20
I1
sVwinning
p21
I1
sVbetter
p22
I1
sVshouting
p23
I1
sVverse
p24
I1
sVgoing
p25
I1
sVpillsbury
p26
I1
sVfirst
p27
I1
sVstyles
p28
I1
sVya\u2019ll
p29
I1
sVhit
p30
I1
sVaround
p31
I1
sVget
p32
I6
sVi\u2019m
p33
I5
sVbig
p34
I2
sVcouple
p35
I1
sVwatch
p36
I1
sVburn
p37
I1
sVrecords
p38
I1
sVgame
p39
I2
sVevery
p40
I1
sVknow
p41
I2
sVgot
p42
I3
sVfront
p43
I1
sVdifference
p44
I1
sVroaches
p45
I1
sVday
p46
I1
sVlike
p47
I3
sVashtray
p48
I1
sVeven
p49
I1
sV16
p50
I1
sVrapper
p51
I1
sVsofter
p52
I1
sVwho\u2019s
p53
I1
sVtruth
p54
I2
sVchick
p55
I1
sVwent
p56
I1
sVsteal
p57
I1
sVbitch
p58
I4
sVinsane
p59
I1
sVcan\u2019t
p60
I1
sVkill
p61
I1
sVnigga
p62
I3
sVpassin\u2019
p63
I1
sVfired
p64
I1
sVfucking
p65
I2
sVtwitter
p66
I1
sVkane
p67
I1
sVback
p68
I2
sVpast
p69
I1
sVsee
p70
I1
sVblowing
p71
I1
sVcloning
p72
I1
sVhoes
p73
I2
sVcadets
p74
I1
sVsaid
p75
I1
sVsince
p76
I1
sVresearch
p77
I1
sVfans
p78
I1
sVbogus
p79
I1
sVnothing\u2019s
p80
I1
sVmosquito
p81
I1
sVnew
p82
I1
sVtold
p83
I1
sVass
p84
I1
sVnoise
p85
I1
sVsold
p86
I1
sVmakeup
p87
I1
sVweak
p88
I1
sVlittle
p89
I1
sVmuthafucka
p90
I1
sVlet
p91
I1
sVaddress
p92
I1
sVput
p93
I1
sVlegend
p94
I1
sVboy
p95
I4
sVlast
p96
I1
sVsigned
p97
I1
sVahead
p98
I1
sVtimes
p99
I1
sVnats
p100
I1
sVadmit
p101
I2
sVsmoke
p102
I1
sVreal
p103
I1
sVpuff
p104
I2
sVthats
p105
I1
sVnerve
p106
I2
sVwasting
p107
I1
sVpussy
p108
I1
sVnumber
p109
I1
sVnames
p110
I1
sVspeak
p111
I1
sVplatinum
p112
I2
sVuse
p113
I1
sVrhymes
p114
I1
sVlieutenants
p115
I1
sVnext
p116
I1
sVstart
p117
I1
sVduplicate
p118
I1
sVdon\u2019t
p119
I3
sVpassed
p120
I1
sV6
I1
sVbad\u201d
p121
I1
sVmanufacture
p122
I1
sVdoor
p123
I1
sVway
p124
I1
sVspit
p125
I1
sVexpose
p126
I1
sVfuck
p127
I2
sVline
p128
I2
sVpresent
p129
I1
sV11
p130
I1
sVmade
p131
I1
sVroom
p132
I1
sVniggas
p133
I4
sVcoward
p134
I1
sVgassing
p135
I1
sVy\u2019all
p136
I2
sVfuture
p137
I1
sVwhat\u2019s
p138
I1
sVreport
p139
I1
sVproblem
p140
I1
sVdaddy
p141
I1
sVminutes
p142
I1
sVclaim
p143
I1
sVoutta
p144
I1
sVgive
p145
I1
sVluda\u2019s
p146
I1
sVstealing
p147
I1
sVtax
p148
I1
sVit
p149
I2
sV\u201cmy
p150
I1
sVsay
p151
I2
sVburied
p152
I1
sVrap
p153
I1
sVcounting
p154
I1
sVfame
p155
I1
sVshit
p156
I2
sVcounterfeit
p157
I1
sVsir
p158
I2
sVdifferent
p159
I1
sVhoe
p160
I1
sV\u2018em
p161
I2
sVmake
p162
I4
sVya
p163
I6
sV5
I1
sVboom
p164
I3
sVcannon
p165
I1
sVstomp
p166
I1
sVmedals
p167
I1
sVweek
p168
I1
sVyou\u2019s
p169
I2
sVused
p170
I1
sVmay
p171
I1
sVrappers
p172
I2
sVflows
p173
I2
sVmouth
p174
I1
sVnever
p175
I1
sVpioneers
p176
I1
sVman
p177
I1
sVyeah
p178
I1
sVclear
p179
I1
sVsometimes
p180
I1
sVface
p181
I1
sVjacket
p182
I1
sVbracket
p183
I1
sVformation
p184
I1
sVlying
p185
I1
sVbada
p186
I3
sVtime
p187
I2
sVdisrespecting
p188
I1
sVcame
p189
I1
s.