(dp1
Vgone
p2
I1
sVladies
p3
I1
sVtalked
p4
I1
sVlove
p5
I3
sVlyrics
p6
I2
sVludacris
p7
I1
sVfeel
p8
I1
sVrubbing
p9
I1
sVtop
p10
I1
sVturned
p11
I1
sVback
p12
I1
sVone
p13
I2
sVsee
p14
I4
sVim
p15
I3
sVbitch
p16
I1
sVmean
p17
I1
sVgo
p18
I1
sVgirl
p19
I1
sVactually
p20
I1
sVfeat
p21
I1
sVthinks
p22
I1
sVwhip
p23
I1
sVaint
p24
I1
sVparking
p25
I1
sVmaserati
p26
I1
sVsince
p27
I1
sVher
p28
I3
sVmother
p29
I1
sVtrip
p30
I1
sVeverythang
p31
I1
sVmake
p32
I1
sVplayed
p33
I1
sVcuz
p34
I2
sVinterlude
p35
I2
sVthat
p36
I2
sVsplit
p37
I1
sVhop
p38
I1
sVinterior
p39
I1
sVgot
p40
I2
sVbout
p41
I1
sVrides
p42
I1
sVinferior
p43
I1
sVmane
p44
I3
sVused
p45
I1
sVpretty
p46
I1
sVacuras
p47
I1
sVtrack
p48
I1
sVnever
p49
I1
sVstressing
p50
I1
sVlot
p51
I1
sVnice
p52
I1
sVjealous
p53
I1
sVtrouble
p54
I1
sVtrying
p55
I1
sVcome
p56
I2
sVget
p57
I1
sVme
p58
I2
sVdrop
p59
I1
sVlike
p60
I1
sVeverytime
p61
I1
sVwhenever
p62
I1
sVcar
p63
I2
sVride
p64
I1
sVgetting
p65
I1
sVdays
p66
I1
sVcalling
p67
I1
sVtry
p68
I1
sVmiles
p69
I1
sVeither
p70
I1
sVsidekick
p71
I1
sVmany
p72
I1
sVwild
p73
I1
sVargue
p74
I1
sVpainting
p75
I1
sVthink
p76
I1
sVbodies
p77
I1
sVthats
p78
I1
s.