(dp1
Vneighbors
p2
I1
sVlyrics
p3
I2
sVludacris
p4
I2
sVdance
p5
I1
sVpennies
p6
I1
sVtop
p7
I1
sVquarters
p8
I1
sVcatch
p9
I2
sVkill
p10
I1
sVgo
p11
I2
sVrange
p12
I1
sVchicken
p13
I1
sVmilk
p14
I1
sVdown
p15
I1
sVground
p16
I3
sVblow
p17
I1
sVflowers
p18
I1
sVyoull
p19
I1
sVchips
p20
I1
sVdick
p21
I1
sVshakin
p22
I1
sVsend
p23
I2
sVcrime
p24
I1
sVservey
p25
I1
sVnickels
p26
I1
sVbrauds
p27
I1
sVblack
p28
I1
sVsmell
p29
I1
sVbout
p30
I1
sVsave
p31
I1
sVworth
p32
I1
sVkick
p33
I3
sVtake
p34
I2
sVplate
p35
I1
sVaround
p36
I1
sVget
p37
I2
sVbabble
p38
I1
sVconversations
p39
I1
sVpractice
p40
I1
sVrhyme
p41
I1
sVbreak
p42
I1
sVfeels
p43
I1
sVvegas
p44
I1
sVwords
p45
I1
sVhands
p46
I1
sVsatellites
p47
I1
sVstunt
p48
I1
sVnow
p49
I1
sVbullets
p50
I1
sVpies
p51
I1
sVplaystations
p52
I1
sVfortune
p53
I1
sVlike
p54
I6
sVindespensable
p55
I1
sVpounds
p56
I1
sVplayin
p57
I1
sVturns
p58
I1
sVcry
p59
I3
sVchuck
p60
I1
sVtheyre
p61
I2
sVdeals
p62
I1
sVsteps
p63
I1
sVya
p64
I1
sVlose
p65
I1
sVsmall
p66
I1
sVsteak
p67
I1
sVround
p68
I2
sVyall
p69
I1
sVdimes
p70
I1
sVflick
p71
I1
sVcookies
p72
I1
sVhunt
p73
I1
sVsays
p74
I1
sVweight
p75
I1
sVpeople
p76
I1
sVscared
p77
I1
sVfeathers
p78
I1
sVback
p79
I1
sVtvs
p80
I1
sVwebber
p81
I1
sVsee
p82
I3
sVgrowth
p83
I1
sVscrabble
p84
I1
sVperfect
p85
I1
sVhome
p86
I2
sVrocks
p87
I1
sVblue
p88
I1
sVsaid
p89
I1
sVreboot
p90
I1
sVstops
p91
I1
sVcrush
p92
I1
sVgrown
p93
I1
sVvanna
p94
I1
sVit
p95
I1
sVgot
p96
I4
sVcause
p97
I2
sVguns
p98
I1
sVbought
p99
I1
sVass
p100
I5
sVaint
p101
I1
sVsixteen
p102
I1
sVfull
p103
I1
sVrun
p104
I1
sVcars
p105
I1
sVsold
p106
I1
sVeven
p107
I2
sVdome
p108
I1
sVpunks
p109
I1
sVwitch
p110
I1
sVmashed
p111
I1
sVyards
p112
I1
sVput
p113
I2
sVpicking
p114
I1
sVcome
p115
I2
sVbox
p116
I1
sVcondoms
p117
I1
sVdecks
p118
I1
sVwouldnt
p119
I1
sVoh
p120
I6
sVill
p121
I3
sVchoke
p122
I1
sVflake
p123
I1
sVflipped
p124
I1
sVflicking
p125
I1
sVlength
p126
I1
sVbok
p127
I3
sVsmoke
p128
I1
sVrecessatation
p129
I1
sVswallow
p130
I1
sVmakes
p131
I1
sVbite
p132
I1
sVfirst
p133
I1
sVsticking
p134
I1
sVem
p135
I5
sVitll
p136
I1
sVlove
p137
I1
sVoverpass
p138
I1
sVpot
p139
I1
sVhollow
p140
I1
sVstop
p141
I1
sVagents
p142
I1
sVduck
p143
I2
sVrounds
p144
I1
sVbicker
p145
I1
sVbeef
p146
I1
sVrookies
p147
I1
sVfifty
p148
I2
sVcaught
p149
I1
sVtwo
p150
I1
sVflat
p151
I1
sVcowards
p152
I1
sVlost
p153
I1
sVstation
p154
I1
sVheadpotatoes
p155
I1
sVmama
p156
I1
sVwhite
p157
I1
sVbreathe
p158
I1
sVcurtains
p159
I1
sVhead
p160
I1
sVbougars
p161
I1
sVjacks
p162
I1
sVfire
p163
I1
sVpeons
p164
I1
sVhurt
p165
I1
sVlaptops
p166
I1
sVcops
p167
I2
sVpuss
p168
I1
sVlives
p169
I1
sVslap
p170
I1
sVbeat
p171
I1
sVlast
p172
I1
sVhole
p173
I1
sVsqueeze
p174
I1
sVstairs
p175
I1
sVdribble
p176
I1
sVwomen
p177
I1
sVshoot
p178
I2
sVking
p179
I1
sVrush
p180
I1
sVballs
p181
I1
sVhour
p182
I1
sVniggas
p183
I3
sVpout
p184
I1
sVdouble
p185
I1
sVflip
p186
I1
sVreup
p187
I1
sVpatients
p188
I1
sVcould
p189
I1
sVsweeter
p190
I1
sVmr
p191
I1
sVcards
p192
I1
sVmaking
p193
I1
sVvending
p194
I1
sVgave
p195
I1
sVcalled
p196
I2
sVdelete
p197
I1
sVluda
p198
I1
sVheart
p199
I1
sVvest
p200
I1
sVgather
p201
I1
sVfucka
p202
I2
sVgive
p203
I1
sVsac
p204
I1
sVfuck
p205
I2
sVrip
p206
I1
sVcant
p207
I1
sVim
p208
I10
sVdrug
p209
I1
sVwant
p210
I2
sVclose
p211
I1
sVshooting
p212
I1
sVgrrreat
p213
I1
sVdoctor
p214
I1
sVeatin
p215
I1
sVmachine
p216
I1
sVtight
p217
I1
sVchest
p218
I1
sVbelly
p219
I1
sVbabies
p220
I3
sVbig
p221
I2
sVnew
p222
I1
sVblunt
p223
I1
sVyoure
p224
I2
sVwheel
p225
I1
sVfrostin
p226
I1
sVskinned
p227
I1
sVwatch
p228
I1
sVwho
p229
I1
sVeighty
p230
I1
sVmutha
p231
I2
sVspinnin
p232
I1
sVtown
p233
I1
sVmouth
p234
I1
sVchris
p235
I1
sVambidextrous
p236
I1
sVfunerals
p237
I1
sVman
p238
I1
sVjacked
p239
I1
sVsmoked
p240
I1
sVdealers
p241
I1
sVos
p242
I1
sVheaded
p243
I1
sVno
p244
I1
sVpucker
p245
I1
sVhungry
p246
I1
sVface
p247
I4
sVtale
p248
I1
sVrome
p249
I1
sVgreen
p250
I1
sVbullseye
p251
I1
sVclean
p252
I1
sVteeth
p253
I1
sVfresh
p254
I2
sVthats
p255
I1
sVdream
p256
I1
sVleft
p257
I1
s.