(dp1
Vpenis
p2
I1
sVskin
p3
I1
sVgo
p4
I1
sVauc
p5
I1
sVporno
p6
I1
sVbuddy
p7
I2
sVhideout
p8
I1
sVme
p9
I1
sVfat
p10
I2
sVbubbles
p11
I1
sVbbody
p12
I1
sVcondition
p13
I1
sVknockin
p14
I1
sVskills
p15
I1
sVgettin
p16
I3
sVtry
p17
I2
sVconvenience
p18
I1
sVcatastrophes
p19
I1
sVhittin
p20
I2
sVdutys
p21
I1
sVdip
p22
I2
sVcookies
p23
I1
sVbooty
p24
I2
sVtired
p25
I1
sVbonin
p26
I1
sVboots
p27
I1
sVgator
p28
I1
sVvideo
p29
I1
sVfellatio
p30
I1
sVswishers
p31
I1
sVblouse
p32
I1
sVcheverolet
p33
I1
sVchicago
p34
I1
sV19th
p35
I1
sVfreaks
p36
I1
sVfreaky
p37
I5
sVtold
p38
I1
sVkama
p39
I1
sVmen
p40
I2
sVlet
p41
I2
sVsmokin
p42
I1
sVrubbers
p43
I2
sVcoochie
p44
I1
sVfantasies
p45
I1
sVkids
p46
I1
sVwomen
p47
I3
sVdro
p48
I1
sVpick
p49
I1
sVlocomotion
p50
I1
sVpullin
p51
I1
sVpillow
p52
I1
sVthats
p53
I2
sVsheila
p54
I1
sVlove
p55
I11
sVfamily
p56
I1
sVfulfillin
p57
I1
sVstrapped
p58
I1
sVtwo
p59
I1
sVsplash
p60
I1
sVcall
p61
I1
sV6
I1
sVtell
p62
I2
sVtoday
p63
I1
sVstutter
p64
I1
sVbaby
p65
I1
sVdaddys
p66
I1
sVmust
p67
I1
sVtown
p68
I1
sVbunnies
p69
I1
sVstoppin
p70
I1
sVhour
p71
I1
sVplayer
p72
I1
sVride
p73
I1
sVniggaz
p74
I1
sVdem
p75
I1
sVflo
p76
I1
sVmr
p77
I2
sVluda
p78
I1
sVready
p79
I1
sVtap
p80
I2
sVfigure
p81
I2
sVgive
p82
I2
sVfuck
p83
I1
sVpieces
p84
I1
sVhigh
p85
I1
sVtwista
p86
I2
sVtan
p87
I1
sVtimes
p88
I1
sVpink
p89
I1
sVsip
p90
I1
sVhookin
p91
I1
sVsix
p92
I1
sVrippin
p93
I1
sVhot
p94
I3
sVstir
p95
I1
sVokay
p96
I1
sVwatch
p97
I1
sVlong
p98
I2
sVlac
p99
I1
sVmad
p100
I1
sVeighth
p101
I1
sVlight
p102
I1
sVrollin
p103
I1
sVthangs
p104
I5
sVswollen
p105
I1
sVthinkin
p106
I1
sVchicks
p107
I2
sVproducer
p108
I1
sVludacris
p109
I3
sVrooty
p110
I1
sVhell
p111
I1
sVstill
p112
I2
sVgalaxy
p113
I1
sVstyle
p114
I1
sVthang
p115
I2
sVchasin
p116
I1
sVmattress
p117
I1
sVbigfoots
p118
I1
sVbout
p119
I2
sVcoffee
p120
I1
sVgood
p121
I1
sVyo
p122
I8
sVya
p123
I1
sVuhh
p124
I3
sVfeelin
p125
I3
sV5995
p126
I1
sVeherr
p127
I2
sVbang
p128
I2
sVadrenaline
p129
I1
sVtickles
p130
I1
sVhalf
p131
I1
sVday
p132
I1
sVbread
p133
I1
sVname
p134
I1
sVappalonia
p135
I1
sVrock
p136
I1
sVem
p137
I8
sVgoogoo
p138
I1
sVtrooper
p139
I1
sVbump
p140
I1
sVhouse
p141
I1
sVhard
p142
I1
sVyeah
p143
I1
sVskins
p144
I1
sVjagged
p145
I2
sVgirl
p146
I4
sVuhuh
p147
I1
sVreally
p148
I1
sVleave
p149
I1
sVgon
p150
I2
sVmotel
p151
I1
sVstayin
p152
I1
sVgot
p153
I6
sVcause
p154
I2
sVass
p155
I2
sVnegligee
p156
I1
sVlittle
p157
I1
sVgots
p158
I1
sVcare
p159
I1
sVkeep
p160
I1
sVmotherfuckers
p161
I1
sVsouth
p162
I2
sVdont
p163
I4
sVwash
p164
I1
sVbitch
p165
I1
sVanother
p166
I1
sVcomin
p167
I1
sVthick
p168
I1
sVflickin
p169
I1
sVcris
p170
I1
sVwishin
p171
I1
sVkillin
p172
I2
sVtop
p173
I1
sVgirls
p174
I1
sVpinned
p175
I1
sVtoo
p176
I1
sVstorm
p177
I1
sVwrapped
p178
I1
sVlegs
p179
I1
sVstore
p180
I1
sVlisten
p181
I1
sVcutty
p182
I1
sVeyes
p183
I1
sVthat
p184
I1
sVgetcha
p185
I2
sVbrains
p186
I1
sVshorty
p187
I1
sVking
p188
I1
sVbed
p189
I1
sVshower
p190
I1
sVsilly
p191
I1
sVoutdoors
p192
I1
sVmagillicuddy
p193
I1
sVfruity
p194
I2
sVshowers
p195
I1
sVneed
p196
I1
sVtake
p197
I3
sVbootys
p198
I1
sVmagnum
p199
I1
sVthug
p200
I1
sVdubs
p201
I1
sVinsanity
p202
I1
sVregular
p203
I1
sVmouth
p204
I1
sVclass
p205
I1
sVohwhooooooo
p206
I1
sVlater
p207
I2
sVbustin
p208
I1
sVjalapenos
p209
I1
sVclean
p210
I1
sVnotch
p211
I1
sVtooty
p212
I1
sVgain
p213
I1
sVhandlin
p214
I1
sVlyrics
p215
I2
sVstuffin
p216
I1
sVgoonie
p217
I1
sVsession
p218
I1
sVradio
p219
I1
sVfeat
p220
I1
sVthicker
p221
I1
sVaint
p222
I1
sVratio
p223
I1
sVmusic
p224
I1
sVdick
p225
I2
sVsugar
p226
I2
sVbuttons
p227
I1
sVdisgust
p228
I1
sVhope
p229
I2
sVdo
p230
I1
sVhit
p231
I2
sVget
p232
I10
sVbeat
p233
I1
sVstop
p234
I1
sVbefo
p235
I1
sVmorning
p236
I1
sVbag
p237
I2
sVstuff
p238
I1
sVgrab
p239
I1
sVhoes
p240
I2
sVbest
p241
I1
sVwonder
p242
I1
sVslapped
p243
I1
sVfinger
p244
I1
sVprada
p245
I1
sVprobably
p246
I1
sVyoull
p247
I1
sVwatchin
p248
I1
sVnever
p249
I2
sVlover
p250
I1
sVdroptops
p251
I1
sVcome
p252
I4
sVkitchen
p253
I1
sVbrown
p254
I1
sVbreakin
p255
I1
sVwitcha
p256
I1
sVswallow
p257
I1
sVloaf
p258
I1
sVmajesty
p259
I1
sVmakin
p260
I1
sVpop
p261
I1
sVwalk
p262
I1
sVplatinum
p263
I1
sVwest
p264
I1
sVcent
p265
I1
sVclutchin
p266
I1
sVcrushin
p267
I1
sVcaddy
p268
I1
sVhatin
p269
I1
sVcatch
p270
I1
sVrunnin
p271
I1
sVbackrubs
p272
I1
sVlook
p273
I2
sVrope
p274
I1
sVdrippin
p275
I1
sVbathtub
p276
I1
sVseven
p277
I1
sVpurse
p278
I1
sVit
p279
I3
sVlust
p280
I1
sVmiddle
p281
I1
sVim
p282
I14
sVheels
p283
I1
sVdirtyass
p284
I1
sVhelmet
p285
I1
sVbottles
p286
I1
sVwookies
p287
I1
sVpay
p288
I1
sVmake
p289
I1
sVsame
p290
I1
sVmotherfuckin
p291
I1
sVbig
p292
I1
sVweek
p293
I1
sVaskin
p294
I1
sVsmoke
p295
I1
sVagain
p296
I1
sVphazon
p297
I1
sVbumpin
p298
I1
sVlickin
p299
I2
sVbutter
p300
I1
sVbreak
p301
I1
sVoff
p302
I1
sVyoure
p303
I1
sVwell
p304
I1
sVmagical
p305
I1
sVnothin
p306
I2
sVedge
p307
I2
sVscummy
p308
I1
sVflesh
p309
I1
sVmoney
p310
I1
sVaroma
p311
I1
sVtouch
p312
I1
sVprince
p313
I1
sVcut
p314
I10
sVwed
p315
I1
sVroyal
p316
I1
sVcrack
p317
I1
sVcum
p318
I1
sVeast
p319
I1
sVkick
p320
I2
sVaround
p321
I1
sVspectacular
p322
I1
sVhopin
p323
I1
sVlovin
p324
I1
sVkkkk
p325
I3
sVgame
p326
I3
sVfive
p327
I1
sVknow
p328
I1
sVworld
p329
I1
sVvanity
p330
I1
sVwhatchu
p331
I1
sVlike
p332
I5
sVtwowayin
p333
I1
sVthighs
p334
I1
sVnight
p335
I1
sVsoft
p336
I2
sVnigga
p337
I1
sVback
p338
I4
sVshes
p339
I1
sVescape
p340
I1
sVproper
p341
I1
sVpickles
p342
I1
sVlotta
p343
I1
sVpurple
p344
I1
sVbuddha
p345
I1
sVwillin
p346
I1
sVrun
p347
I1
sVskeet
p348
I1
sVbusiness
p349
I1
sVfatty
p350
I2
sVpeep
p351
I1
sVoh
p352
I1
sVrange
p353
I1
sVthreesome
p354
I1
sVwhats
p355
I1
sVahh
p356
I2
sVtallywhacker
p357
I1
sVwan
p358
I3
sVfast
p359
I1
sVrecruiter
p360
I1
sVspots
p361
I1
sVcats
p362
I1
sVway
p363
I1
sVcausin
p364
I1
sVgin
p365
I1
sVbubble
p366
I2
sVhead
p367
I1
sVbutters
p368
I1
sVho
p369
I1
sVanythang
p370
I1
sVrush
p371
I1
sVmade
p372
I1
sVdingaling
p373
I1
sVup
p374
I6
sVplanet
p375
I1
sVpuddy
p376
I1
sVtickin
p377
I1
sVwakin
p378
I1
sVfreak
p379
I1
sVtwist
p380
I1
sVbodyrockin
p381
I1
sVcheck
p382
I2
sVshit
p383
I1
sVholla
p384
I1
sVmaybe
p385
I1
sVna
p386
I3
sVother
p387
I1
sVsick
p388
I1
sVsmell
p389
I1
sVwonderin
p390
I1
sVsutra
p391
I1
sVstrokin
p392
I1
sVmodels
p393
I1
sVstay
p394
I1
sVdrag
p395
I1
sVkinda
p396
I1
sVgoin
p397
I1
sVe
I1
sVtogether
p398
I1
sVtime
p399
I1
sVpush
p400
I1
sVfresh
p401
I2
sVpokin
p402
I1
s.