(dp1
Vweiners
p2
I1
sVbozack
p3
I1
sVshot
p4
I2
sVlyrics
p5
I2
sVludacris
p6
I4
sVfood
p7
I1
sVmoney
p8
I1
sVgo
p9
I1
sVhell
p10
I1
sVstill
p11
I1
sVhate
p12
I1
sVblow
p13
I1
sVcut
p14
I1
sVtight
p15
I1
sVjaw
p16
I1
sVmasses
p17
I1
sVswitched
p18
I3
sVlaid
p19
I1
sVsugar
p20
I1
sVfade
p21
I1
sVbomb
p22
I1
sVhanks
p23
I1
sVsave
p24
I1
sVbeotch
p25
I1
sVkick
p26
I1
sVtake
p27
I2
sVfool
p28
I3
sVroad
p29
I1
sVaround
p30
I1
sVyo
p31
I5
sVget
p32
I8
sVya
p33
I2
sVbig
p34
I1
sVdope
p35
I1
sVshagadelic
p36
I1
sVwatch
p37
I2
sVwave
p38
I1
sVgame
p39
I5
sVknow
p40
I2
sVhalf
p41
I1
sVfront
p42
I1
sVbank
p43
I1
sVmagic
p44
I1
sVlike
p45
I11
sVlost
p46
I2
sVkennedy
p47
I1
sVdrop
p48
I1
sVmiracle
p49
I1
sVashes
p50
I2
sVtruth
p51
I1
sVrock
p52
I1
sVpools
p53
I1
sVwent
p54
I1
sVpage
p55
I2
sVyall
p56
I4
sVmean
p57
I1
sVvirginity
p58
I1
sVupper
p59
I1
sVnigga
p60
I2
sVtired
p61
I1
sVhumans
p62
I1
sVback
p63
I1
sVbooks
p64
I1
sVlobster
p65
I1
sVniggaz
p66
I1
sVhoes
p67
I2
sVfail
p68
I1
sVclick
p69
I1
sVwhip
p70
I1
sVcigars
p71
I1
sVeven
p72
I1
sVsuckin
p73
I1
sVpurple
p74
I1
sVchillin
p75
I1
sVpros
p76
I1
sVkeys
p77
I1
sVenough
p78
I2
sVskinded
p79
I1
sVwhats
p80
I3
sVgot
p81
I5
sVelectric
p82
I1
sVchange
p83
I1
sVcause
p84
I2
sVred
p85
I1
sVass
p86
I2
sVnikki
p87
I1
sVshut
p88
I1
sVfranks
p89
I1
sVobey
p90
I1
sVright
p91
I2
sVcity
p92
I1
sVgut
p93
I1
sVlem
p94
I1
sVtracks
p95
I1
sVinhale
p96
I1
sVlet
p97
I1
sVduckin
p98
I1
sVchoked
p99
I1
sVinvented
p100
I1
sVcome
p101
I2
sVlyrical
p102
I1
sVchlorine
p103
I1
sVboy
p104
I1
sVflames
p105
I1
sVmany
p106
I2
sVill
p107
I1
sVsteam
p108
I1
sVturn
p109
I2
sVeatin
p110
I1
sVdro
p111
I1
sVhighlights
p112
I1
sVstank
p113
I2
sVblock
p114
I1
sVthats
p115
I3
sVdick
p116
I1
sVlove
p117
I2
sVdont
p118
I1
sVcolor
p119
I1
sVdude
p120
I1
sVformat
p121
I1
sVyoud
p122
I1
sVjeans
p123
I1
sVwalk
p124
I1
sVput
p125
I3
sVwit
p126
I1
sVdone
p127
I1
sV69
p128
I1
sVrange
p129
I1
sVtools
p130
I1
sVwan
p131
I1
sVrows
p132
I1
sVproceed
p133
I1
sVbeef
p134
I1
sVrookies
p135
I1
sVhip
p136
I1
sVtop
p137
I1
sVnight
p138
I1
sVej
p139
I1
sVgift
p140
I1
sVfast
p141
I1
sVanyone
p142
I1
sVstart
p143
I3
sVlive
p144
I2
sVmuch
p145
I1
sVtreat
p146
I1
sVtom
p147
I1
sVshow
p148
I1
sVthreaten
p149
I1
sVkid
p150
I1
sVtell
p151
I1
sVlife
p152
I1
sVrearrange
p153
I1
sVmind
p154
I1
sVcoke
p155
I1
sVkoolaid
p156
I1
sVbroke
p157
I1
sVprobably
p158
I1
sVstartin
p159
I1
sVwomen
p160
I1
sVme
p161
I1
sVhennessey
p162
I1
sVchromed
p163
I1
sVride
p164
I1
sVbed
p165
I1
sVrecord
p166
I1
sVdank
p167
I1
sVdirty
p168
I1
sVjoke
p169
I1
sVarrive
p170
I2
sVcock
p171
I1
sVbooth
p172
I1
sVbeautiful
p173
I1
sVive
p174
I1
sVgive
p175
I1
sVpass
p176
I1
sVorganized
p177
I1
sVjewels
p178
I1
sVhigh
p179
I2
sVim
p180
I3
sVat
p181
I1
sVstoves
p182
I1
sVflight
p183
I1
sVshrimp
p184
I1
sVsaw
p185
I1
sVrugs
p186
I1
sVshit
p187
I2
sVparty
p188
I1
sVdifferent
p189
I1
sVhoe
p190
I1
sVcombination
p191
I1
sVfloormats
p192
I1
sVna
p193
I1
sVholds
p194
I1
sVnuts
p195
I1
sVh20
p196
I1
sVrules
p197
I1
sVstrange
p198
I1
sVlip
p199
I1
sVnaw
p200
I1
sVimposters
p201
I1
sVsmell
p202
I1
sVblue
p203
I1
sVsmoke
p204
I1
sVtrace
p205
I1
sVstudents
p206
I1
sVbroad
p207
I1
sVpaid
p208
I1
sVstay
p209
I2
sVshores
p210
I1
sVmouth
p211
I1
sVsuck
p212
I1
sVman
p213
I2
sVfuckin
p214
I1
sVlight
p215
I1
sVremedy
p216
I1
sVocean
p217
I1
sVcooked
p218
I1
sVbarred
p219
I1
sVsomen
p220
I1
sVgreen
p221
I1
sVsouth
p222
I1
sVclean
p223
I1
sVthings
p224
I1
sVdos
p225
I1
sVsmoked
p226
I1
s.