(dp1
Vlyrics
p2
I2
sVludacris
p3
I1
sVmoneys
p4
I1
sVkong
p5
I1
sVfour
p6
I1
sVbring
p7
I1
sVshoe
p8
I2
sVhell
p9
I9
sVmcdonalds
p10
I1
sVfeat
p11
I1
sVdown
p12
I1
sVkutcher
p13
I1
sVaint
p14
I20
sVswag
p15
I1
sVchain
p16
I1
sVringin
p17
I1
sVshow
p18
I1
sVbetter
p19
I3
sVtheme
p20
I1
sVblack
p21
I1
sVfanta
p22
I1
sVhit
p23
I1
sVget
p24
I1
sVdope
p25
I1
sVwatch
p26
I1
sVworst
p27
I1
sVparked
p28
I1
sVday
p29
I1
sVname
p30
I1
sVknock
p31
I1
sVlike
p32
I8
sVtrucks
p33
I1
sValways
p34
I1
sVdrop
p35
I2
sVlose
p36
I1
sVsmall
p37
I1
sVchick
p38
I1
sVups
p39
I1
sVclothes
p40
I2
sVbody
p41
I1
sVnigga
p42
I1
sVbooty
p43
I1
sVbentley
p44
I1
sVexposed
p45
I1
sVthrowing
p46
I1
sVtea
p47
I1
sVstreets
p48
I1
sVback
p49
I2
sVowner
p50
I1
sVsee
p51
I3
sVstreet
p52
I4
sV24s
p53
I1
sVwife
p54
I1
sV80
p55
I1
sVbest
p56
I1
sVout
p57
I3
sVblue
p58
I1
sVsaid
p59
I1
sVbotton
p60
I1
sVcloset
p61
I1
sVice
p62
I1
sVlooking
p63
I1
sVlights
p64
I1
sVchainz
p65
I1
sVgot
p66
I3
sVforth
p67
I1
sVass
p68
I1
sVjury
p69
I1
sVrims
p70
I1
sVnever
p71
I1
sVdome
p72
I1
sVjs
p73
I1
sVquick
p74
I3
sVpackages
p75
I1
sVbox
p76
I1
sVboy
p77
I1
sVgetting
p78
I2
sVresidence
p79
I1
sVroute
p80
I1
sVrajon
p81
I1
sVmakes
p82
I1
sVammo
p83
I1
sVthats
p84
I2
sVduty
p85
I1
sVrondo
p86
I1
sVcolor
p87
I1
sVranger
p88
I1
sVyoud
p89
I3
sVone
p90
I18
sVbrought
p91
I1
sVfucked
p92
I1
sVbitch
p93
I1
sVduck
p94
I3
sVhear
p95
I1
sVtonto
p96
I1
sVblunts
p97
I1
sVsize
p98
I1
sVwan
p99
I9
sVcough
p100
I1
sVmikes
p101
I1
sVevery
p102
I1
sVworking
p103
I1
sVparaphernalia
p104
I1
sVtop
p105
I1
sVnight
p106
I1
sVthree
p107
I2
sVlong
p108
I1
sVstrip
p109
I1
sV2
I1
sVcall
p110
I1
sVway
p111
I1
sVvehicle
p112
I1
sVtype
p113
I1
sVhead
p114
I2
sVclub
p115
I2
sVbus
p116
I1
sVmenk
p117
I2
sVboys
p118
I1
sVgrands
p119
I1
sVeverywhere
p120
I1
sVho
p121
I1
sVatlanta
p122
I1
sVwith
p123
I9
sVfly
p124
I1
sVking
p125
I1
sVcanceled
p126
I1
sVsyrup
p127
I1
sVcap
p128
I1
sVnine
p129
I1
sVshift
p130
I1
sVsmurf
p131
I1
sVpulling
p132
I1
sVfeeling
p133
I1
sVgone
p134
I1
sVfreak
p135
I2
sVthatll
p136
I1
sVak
p137
I1
sVfuck
p138
I9
sVtalking
p139
I1
sVim
p140
I8
sVgirlfriend
p141
I1
sVbucks
p142
I2
sVpong
p143
I1
sVgrind
p144
I1
sVphantom
p145
I1
sVna
p146
I9
sVnah
p147
I9
sVsong
p148
I1
sVping
p149
I1
sVbutcher
p150
I1
sVmix
p151
I1
sVanswer
p152
I1
sVgat
p153
I2
sVhey
p154
I1
sVwelcome
p155
I1
sVpapa
p156
I1
sVterra
p157
I2
sVronald
p158
I1
sVmoving
p159
I1
sVtwo
p160
I1
sVashton
p161
I1
sVpair
p162
I1
sVpresident
p163
I1
sVpull
p164
I1
sVcellphone
p165
I1
sVbaritone
p166
I1
sVringtone
p167
I1
sVcoat
p168
I1
sVstash
p169
I1
sVdouble
p170
I1
sVtime
p171
I1
sVfresh
p172
I1
sVmake
p173
I1
sVfact
p174
I1
s.