(dp1
Vlyrics
p2
I2
sVludacris
p3
I1
sVaint
p4
I4
sVmicd
p5
I1
sVthumb
p6
I1
sVshow
p7
I1
sVcuz
p8
I1
sVdodson
p9
I1
sVtweefin
p10
I1
sVhope
p11
I1
sVhappened
p12
I1
sVhip
p13
I1
sVthem
p14
I1
sVsomebody
p15
I1
sVsick
p16
I1
sVmeanwhile
p17
I1
sVya
p18
I1
sVfive
p19
I1
sVjack
p20
I2
sVwiser
p21
I1
sVworld
p22
I1
sVgoing
p23
I1
sVlike
p24
I2
sVgettin
p25
I1
sVrapper
p26
I1
sVleave
p27
I1
sVstartin
p28
I1
sValltime
p29
I1
sVfairy
p30
I1
sVyall
p31
I1
sVapproaching
p32
I1
sVem
p33
I1
sVspiritual
p34
I1
sVnigga
p35
I1
sVey
p36
I1
sValbum
p37
I1
sVsaid
p38
I1
sVlooking
p39
I1
sVgoes
p40
I1
sVgot
p41
I2
sVknife
p42
I1
sVass
p43
I1
sVquit
p44
I1
sVhealing
p45
I3
sVadvisor
p46
I1
sVcome
p47
I1
sVlyrical
p48
I3
sVscary
p49
I1
sVauction
p50
I1
sVmany
p51
I1
sVill
p52
I2
sVfavorite
p53
I1
sVkeep
p54
I1
sVsensitive
p55
I1
sVstand
p56
I1
sVpillow
p57
I1
sVpussy
p58
I1
sVantidote
p59
I1
sVwhatever
p60
I1
sVfeelings
p61
I1
sVmomma
p62
I1
sVinitiative
p63
I1
sVcouldnt
p64
I1
sVeverybody
p65
I1
sVstrapped
p66
I1
sVlittle
p67
I1
sVeye
p68
I2
sValligator
p69
I1
sVdaniels
p70
I1
sVstart
p71
I2
sVmuch
p72
I1
sVjane
p73
I1
sVtell
p74
I1
sVlife
p75
I1
sVknockoff
p76
I1
sVhold
p77
I1
sVrappin
p78
I1
sVniggas
p79
I1
sVup
p80
I3
sVmary
p81
I1
sVuh
p82
I1
sVmr
p83
I1
sVthuggin
p84
I1
sVproblem
p85
I1
sVminutes
p86
I1
sVfuck
p87
I1
sVfaker
p88
I1
sVhigh
p89
I1
sVsay
p90
I1
sVim
p91
I4
sVpit
p92
I1
sVshit
p93
I4
sVsell
p94
I1
sVlil
p95
I1
sVcrowdsurfin
p96
I1
sVmake
p97
I1
sVantoine
p98
I1
sVnote
p99
I1
sVfar
p100
I1
sVhot
p101
I1
sVransom
p102
I1
sVtake
p103
I1
sVhop
p104
I1
sVeven
p105
I2
sVkidnapping
p106
I1
sVrappers
p107
I2
sVflows
p108
I1
sVhand
p109
I1
sVman
p110
I2
sVskydive
p111
I1
sVland
p112
I1
sVwell
p113
I1
sVdog
p114
I1
sVtooth
p115
I1
s.