(dp1
Vlyrics
p2
I2
sVludacris
p3
I2
sVover
p4
I1
sVverses
p5
I2
sVbridges
p6
I1
sVdeath
p7
I1
sVsleeps
p8
I1
sVsentence
p9
I1
sVfans
p10
I1
sVverse
p11
I1
sVrelevance
p12
I1
sVworth
p13
I1
sVbridge
p14
I1
sVplate
p15
I1
sVgood
p16
I1
sVsomebody
p17
I1
sVyo
p18
I1
sVget
p19
I3
sVposterize
p20
I1
sVones
p21
I3
sVevery
p22
I1
sVknow
p23
I1
sVone
p24
I1
sVhim
p25
I1
sVever
p26
I1
sVrapper
p27
I1
sVbad
p28
I1
sVdie
p29
I1
sVem
p30
I2
sVbars
p31
I1
sVpeople
p32
I2
sVcolder
p33
I1
sVyeah
p34
I1
sVelegant
p35
I1
sVsee
p36
I2
sVpass
p37
I1
sVcurse
p38
I1
sVways
p39
I1
sVaway
p40
I1
sVwashed
p41
I1
sVemotions
p42
I1
sVmay
p43
I1
sVbehind
p44
I2
sVgoes
p45
I1
sVnew
p46
I2
sVdozin
p47
I1
sVcause
p48
I3
sVguns
p49
I1
sVtold
p50
I1
sVspecialist
p51
I1
sVpun
p52
I1
sVburn
p53
I2
sVdunkin
p54
I1
sVproblems
p55
I1
sVnever
p56
I3
sVlotion
p57
I1
sVstep
p58
I1
sVput
p59
I1
sVcousin
p60
I1
sVmoisturizer
p61
I1
sVbeginning
p62
I2
sVthrow
p63
I1
sVgreat
p64
I1
sVahead
p65
I1
sVcould
p66
I1
sVfavorite
p67
I1
sVkeep
p68
I1
sVdrama
p69
I1
sVyoull
p70
I1
sVlookin
p71
I1
sVfuckin
p72
I1
sVwhats
p73
I1
sVdont
p74
I2
sVpoint
p75
I1
sVowe
p76
I1
sVrelate
p77
I1
sVahh
p78
I1
sVnumber
p79
I1
sVwalk
p80
I1
sVowner
p81
I1
sVrespect
p82
I1
sVdestroys
p83
I1
sVstretch
p84
I1
sVcreate
p85
I1
sVunequivocal
p86
I1
sVquestion
p87
I2
sVtwisted
p88
I1
sVlyrical
p89
I1
sVway
p90
I1
sVlife
p91
I3
sVfuck
p92
I1
sVpart
p93
I1
sVwake
p94
I1
sVindustrys
p95
I1
sVmade
p96
I1
sVlocked
p97
I1
sVdryin
p98
I1
sVvalue
p99
I1
sVoffended
p100
I2
sVhardest
p101
I1
sVriddance
p102
I1
sVluda
p103
I2
sVheart
p104
I1
sVgive
p105
I1
sVit
p106
I1
sVsay
p107
I1
sVintro
p108
I2
sVim
p109
I5
sVrap
p110
I1
sVready
p111
I2
sVshit
p112
I1
sVthings
p113
I3
sVcross
p114
I1
sVmotherfuckin
p115
I1
sVdestroy
p116
I1
sVyou
p117
I2
sVintelligent
p118
I1
sVextended
p119
I1
sVintended
p120
I1
sVcritics
p121
I1
sVsouthern
p122
I1
sVloyalty
p123
I2
sVhand
p124
I1
sVbeast
p125
I1
sVhiphop
p126
I1
sVsaid
p127
I1
sVlonger
p128
I1
sVlight
p129
I1
sVperson
p130
I1
sVloyal
p131
I1
sVcomes
p132
I1
sVtime
p133
I1
sVpush
p134
I1
sVspittin
p135
I1
s.