(dp1
Vha
p2
I1
sVlyrics
p3
I2
sVludacris
p4
I1
sVmoney
p5
I1
sVastronomical
p6
I1
sVbright
p7
I1
sVsigns
p8
I1
sVfollow
p9
I1
sVstill
p10
I1
sVfeat
p11
I1
sVfind
p12
I2
sVdreamer
p13
I1
sVcrush
p14
I1
sVbelieve
p15
I1
sVwomans
p16
I1
sVimma
p17
I1
sVease
p18
I1
sVhunger
p19
I1
sVunsigned
p20
I1
sVday
p21
I1
sVlate
p22
I1
sVflights
p23
I1
sVattracted
p24
I1
sVsurfs
p25
I1
sVover
p26
I2
sVfly
p27
I1
sVthem
p28
I1
sVwoman
p29
I1
sVdoors
p30
I1
sVfar
p31
I1
sVbig
p32
I1
sVstop
p33
I1
sVevery
p34
I2
sVhalf
p35
I1
sVturbulence
p36
I1
sVburnt
p37
I1
sVrealize
p38
I1
sVdreams
p39
I1
sVdistraction
p40
I1
sVarticles
p41
I1
sVclouds
p42
I1
sVsuccess
p43
I1
sVperforming
p44
I1
sVturnt
p45
I1
sVbecome
p46
I2
sVvision
p47
I1
sVwinded
p48
I1
sVyeah
p49
I2
sVfrequency
p50
I1
sVusher
p51
I1
sVconnect
p52
I1
sVblinded
p53
I1
sVwonder
p54
I1
sVbeginnings
p55
I1
sVgod
p56
I1
sVdecision
p57
I1
sVlooking
p58
I1
sVlights
p59
I1
sVpassion
p60
I1
sVnew
p61
I1
sVyoull
p62
I3
sVshows
p63
I1
sVpower
p64
I1
sVnever
p65
I3
sVpassangers
p66
I1
sVstep
p67
I1
sVstruggle
p68
I2
sVkey
p69
I1
sVlosing
p70
I1
sVhiding
p71
I1
sVdays
p72
I1
sVludaverse
p73
I1
sVplus
p74
I1
sVdone
p75
I1
sVthats
p76
I1
sVcontrol
p77
I1
sVdont
p78
I1
sVone
p79
I1
sVmomma
p80
I1
sVnon
p81
I1
sVanother
p82
I1
sVsober
p83
I1
sVopen
p84
I2
sVabdominal
p85
I1
sVsilent
p86
I1
sVworking
p87
I2
sVlong
p88
I5
sVneeded
p89
I2
sVmusic
p90
I2
sVobservations
p91
I1
sVstars
p92
I1
sVmaster
p93
I1
sVdots
p94
I1
sVtryna
p95
I2
sVhead
p96
I1
sVfire
p97
I1
sVtoasting
p98
I1
sVelse
p99
I1
sVbaby
p100
I1
sVworked
p101
I1
sVhaters
p102
I1
sVpilot
p103
I1
sVme
p104
I3
sVpull
p105
I1
sVlook
p106
I2
sVride
p107
I1
sVup
p108
I5
sVskirts
p109
I1
sVbeautiful
p110
I1
sVheart
p111
I1
sVfights
p112
I1
sVwealth
p113
I1
sVlife
p114
I1
sVconstellations
p115
I1
sVimagination
p116
I1
sVsay
p117
I1
sVsomeone
p118
I1
sVim
p119
I8
sVconcentration
p120
I1
sVid
p121
I1
sVnights
p122
I1
sVrather
p123
I1
sVthings
p124
I1
sVmic
p125
I1
sVwrite
p126
I1
sVtill
p127
I1
sVtake
p128
I1
sVastrological
p129
I1
sVgets
p130
I2
sVpanic
p131
I1
sVhigher
p132
I1
sVtrace
p133
I1
sVcritics
p134
I1
sVrappers
p135
I1
sVfelt
p136
I1
sVstay
p137
I1
sVattration
p138
I1
sVhasnt
p139
I1
sVwaves
p140
I1
sVtune
p141
I1
sVdestiny
p142
I1
sVstress
p143
I1
sVtil
p144
I1
sVinvest
p145
I1
sVsteady
p146
I1
sVdaily
p147
I1
sVchronicles
p148
I1
sVthoughs
p149
I1
sVfirst
p150
I3
sVdream
p151
I1
sVcuz
p152
I1
s.