(dp1
Vlyrics
p2
I2
sVludacris
p3
I1
sVbrrrrpowpow
p4
I1
sVtouch
p5
I3
sVcorner
p6
I1
sVdarkest
p7
I1
sVfeat
p8
I1
sVmilk
p9
I1
sVima
p10
I3
sVslow
p11
I1
sVgold
p12
I1
sVpump
p13
I1
sVbust
p14
I1
sVlets
p15
I5
sVblack
p16
I2
sVdeepest
p17
I1
sVwet
p18
I1
sVcum
p19
I1
sVhit
p20
I1
sVyo
p21
I1
sVget
p22
I2
sVya
p23
I1
sVknow
p24
I1
sVhands
p25
I1
sVworld
p26
I2
sVlike
p27
I6
sVlost
p28
I1
sVcause
p29
I2
sVgettin
p30
I5
sVgun
p31
I1
sVnaked
p32
I4
sVbad
p33
I1
sVfilled
p34
I1
sVcashmere
p35
I1
sVpow
p36
I2
sVbitch
p37
I1
sVem
p38
I1
sVbody
p39
I1
sVnigga
p40
I2
sVkhalifa
p41
I1
sVnut
p42
I1
sVyeah
p43
I1
sVhair
p44
I1
sVgo
p45
I1
sVtellin
p46
I1
sVbusta
p47
I1
sVmarley
p48
I1
sVwhip
p49
I1
sVreally
p50
I1
sVeven
p51
I1
sVforrest
p52
I1
sVmelt
p53
I1
sVrotten
p54
I1
sVgot
p55
I2
sVspeak
p56
I1
sVyoull
p57
I1
sVwhipped
p58
I2
sVass
p59
I5
sVrun
p60
I3
sVlettin
p61
I2
sVnever
p62
I3
sVmolly
p63
I1
sVsprung
p64
I1
sVwater
p65
I1
sVcome
p66
I1
sVthrow
p67
I1
sVtitties
p68
I1
sVg
I1
sVoh
p69
I1
sVsecrets
p70
I1
sVmany
p71
I1
sVcould
p72
I1
sVwherever
p73
I1
sVtimes
p74
I1
sVyuh
p75
I1
sVgump
p76
I1
sVjeremih
p77
I1
sVpillow
p78
I1
sVfuckin
p79
I1
sVfantastic
p80
I1
sVlove
p81
I1
sVdont
p82
I4
sVpussy
p83
I1
sVpop
p84
I2
sVbrush
p85
I1
sVwiz
p86
I1
sVbelt
p87
I1
sVwan
p88
I1
sV1s
p89
I1
sVwapow
p90
I1
sVgirls
p91
I3
sVplastic
p92
I1
sVmuch
p93
I1
sVwants
p94
I1
sVlungs
p95
I1
sVdrugs
p96
I1
sVback
p97
I1
sVeverywhere
p98
I1
sVbaby
p99
I1
sVbout
p100
I1
sVcount
p101
I1
sVbrrrmy
p102
I1
sVrush
p103
I1
sVcar
p104
I1
sVmo
p105
I3
sVcant
p106
I2
sVbed
p107
I1
sVcat
p108
I2
sVleashes
p109
I1
sVflo
p110
I1
sVspoiled
p111
I1
sVfun
p112
I1
sVluda
p113
I1
sVturned
p114
I1
sVdeep
p115
I2
sVpieces
p116
I1
sVtonight
p117
I2
sVsay
p118
I3
sVim
p119
I3
sVwant
p120
I1
sVneed
p121
I2
sVshit
p122
I3
sVagain
p123
I3
sVend
p124
I2
sVna
p125
I1
sVmake
p126
I3
sVcouch
p127
I1
sVtil
p128
I1
sVbeat
p129
I1
sVhot
p130
I1
sVtake
p131
I1
sVparty
p132
I12
sVgets
p133
I1
sVclub
p134
I1
sVgoin
p135
I1
sVcounter
p136
I1
sVbustin
p137
I1
sVface
p138
I1
sVthought
p139
I1
sVtime
p140
I1
sVyours
p141
I1
sVcame
p142
I2
s.