(dp1
Vshop
p2
I2
sVposse
p3
I1
sVlyrics
p4
I2
sVludacris
p5
I1
sVkeep
p6
I1
sVretire
p7
I1
sVdollar
p8
I1
sVfour
p9
I1
sVthanks
p10
I1
sVsigns
p11
I1
sVcorner
p12
I2
sVlabel
p13
I1
sVtakin
p14
I1
sVground
p15
I1
sVima
p16
I3
sVretirement
p17
I1
sVballer
p18
I1
sVsayin
p19
I5
sVmusic
p20
I1
sVtv
p21
I1
sVdick
p22
I1
sVcuz
p23
I5
sVbetter
p24
I1
sVspoken
p25
I1
sVlets
p26
I1
sVjam
p27
I1
sVeast
p28
I1
sVmidwest
p29
I1
sVkick
p30
I1
sVta
p31
I3
sVhip
p32
I1
sVcallin
p33
I1
sVhit
p34
I1
sVaround
p35
I3
sVyo
p36
I1
sVget
p37
I4
sVya
p38
I5
sVpumpin
p39
I1
sVdope
p40
I1
sVrhyme
p41
I1
sVshots
p42
I1
sVcoast
p43
I2
sVuntouchable
p44
I1
sVgame
p45
I1
sVspittin
p46
I2
sVknow
p47
I6
sVhurtin
p48
I1
sVworld
p49
I1
sVone
p50
I1
sVfools
p51
I1
sVbouta
p52
I1
sVname
p53
I1
sVlike
p54
I1
sVmothers
p55
I1
sVdie
p56
I1
sVgettin
p57
I3
sVarrested
p58
I1
sVexplode
p59
I1
sVtwice
p60
I1
sVbad
p61
I1
sVbombs
p62
I1
sVrock
p63
I1
sVquick
p64
I1
sVnerves
p65
I1
sVtold
p66
I1
sVround
p67
I1
sVyall
p68
I1
sVpreach
p69
I1
sVem
p70
I6
sVnigga
p71
I2
sVhat
p72
I1
sVweight
p73
I1
sVpeople
p74
I1
sVhouse
p75
I1
sVnational
p76
I1
sVcomin
p77
I1
sVyeah
p78
I2
sVdead
p79
I1
sVsee
p80
I1
sVlouder
p81
I1
sVus
p82
I1
sVstill
p83
I1
sVkings
p84
I1
sVplayin
p85
I1
sVproducers
p86
I1
sVn
I1
sVfolk
p87
I1
sVwonder
p88
I1
sVeven
p89
I1
sVsaid
p90
I2
sVbroad
p91
I1
sVtried
p92
I2
sVeverytime
p93
I1
sVhooked
p94
I1
sVcreative
p95
I1
sVcd
p96
I1
sVfans
p97
I1
sVtingle
p98
I1
sVmultiply
p99
I1
sVskreets
p100
I2
sVrb
p101
I1
sVgot
p102
I10
sVhold
p103
I1
sVsouthuntil
p104
I1
sVdoin
p105
I1
sVshows
p106
I2
sVbody
p107
I1
sVtruth
p108
I1
sVstyles
p109
I1
sVhang
p110
I1
sVmillion
p111
I1
sVmotherfucker
p112
I1
sVrules
p113
I2
sVbroken
p114
I2
sVsingin
p115
I1
sVlet
p116
I2
sVgots
p117
I1
sVcome
p118
I1
sVlyrical
p119
I1
sVkitchen
p120
I1
sVwalk
p121
I1
sVboy
p122
I3
sVdrum
p123
I1
sVtriggers
p124
I1
sVill
p125
I1
sVchoke
p126
I1
sVo
I1
sVtimes
p127
I2
sVwalkin
p128
I1
sVthing
p129
I3
sVswear
p130
I1
sVstand
p131
I3
sVreal
p132
I1
sVdopest
p133
I2
sVpullin
p134
I1
sVthink
p135
I1
sVsouth
p136
I1
sVking
p137
I1
sVbitty
p138
I1
sVdont
p139
I3
sVfamily
p140
I1
sVdanger
p141
I1
sVfeel
p142
I1
sVnonstoppin
p143
I1
sVmakin
p144
I1
sVhey
p145
I1
sVwash
p146
I1
sVwit
p147
I3
sVanother
p148
I2
sVsing
p149
I1
sVperpetrators
p150
I1
sVhood
p151
I3
sVeverybody
p152
I1
sVwan
p153
I3
sVlittle
p154
I4
sVglisten
p155
I1
sVwest
p156
I1
sVgirls
p157
I1
sVtwo
p158
I2
sVcall
p159
I2
sVway
p160
I3
sVthru
p161
I1
sVwhite
p162
I1
sVkid
p163
I1
sVindependant
p164
I1
sVlisten
p165
I2
sVshine
p166
I1
sVpimpin
p167
I1
sVspit
p168
I2
sVenough
p169
I1
sVbarber
p170
I1
sVtook
p171
I1
sVcant
p172
I2
sVit
p173
I1
sVboys
p174
I1
sVverse
p175
I1
sVhear
p176
I2
sVdef
p177
I1
sVbiatch
p178
I1
sValbums
p179
I1
sVlevel
p180
I1
sVwith
p181
I1
sVwomen
p182
I1
sVrunnin
p183
I1
sVhomes
p184
I1
sVmade
p185
I1
sVdumpin
p186
I1
sVcar
p187
I1
sVup
p188
I1
sVniggaz
p189
I1
sVtell
p190
I5
sVrecord
p191
I1
sVdroppin
p192
I1
sVtickin
p193
I1
sVdirty
p194
I1
sVcake
p195
I1
sVfried
p196
I2
sVatl
p197
I1
sVsay
p198
I1
sVhistory
p199
I1
sVgone
p200
I1
sVcmon
p201
I2
sVoutta
p202
I3
sVrecognize
p203
I1
sVis
p204
I1
sVmind
p205
I1
sVteenagers
p206
I1
sVtonight
p207
I1
sVheard
p208
I3
sVsingle
p209
I1
sVintro
p210
I2
sVim
p211
I16
sVshawty
p212
I2
sVwant
p213
I6
sVans
p214
I1
sVturn
p215
I1
sVshit
p216
I1
sVhigh
p217
I1
sVcartel
p218
I1
sVbeats
p219
I1
sVincredible
p220
I1
sVna
p221
I3
sVmake
p222
I3
sVpeace
p223
I4
sVnuts
p224
I1
sVsubliminal
p225
I1
sVtill
p226
I1
sVhot
p227
I1
sVpad
p228
I1
sVhop
p229
I1
sVvenom
p230
I1
sVputtin
p231
I1
sVroll
p232
I1
sVdisturbin
p233
I4
sVbrothers
p234
I1
sVclosest
p235
I1
sVthough
p236
I1
sVduck
p237
I1
sVrappers
p238
I1
sVkeeps
p239
I1
sVsouthern
p240
I2
sVflows
p241
I1
sVooh
p242
I1
sVtalk
p243
I1
sVmouth
p244
I1
sVblood
p245
I1
sVsspine
p246
I1
sVsistas
p247
I1
sVsisters
p248
I1
sVsuck
p249
I1
sVwave
p250
I1
sVpoptart
p251
I1
sVman
p252
I1
sVsomethin
p253
I1
sVstereo
p254
I1
sVcops
p255
I1
sVlawd
p256
I1
sVproud
p257
I1
sVlines
p258
I2
sVtogether
p259
I2
sVoriginal
p260
I1
sVfucked
p261
I1
sVflippin
p262
I1
sVdawgs
p263
I1
sVflags
p264
I1
sVblock
p265
I4
sVtime
p266
I2
sVcounted
p267
I1
sVtha
p268
I3
s.