(dp1
Vstandin
p2
I1
sVfussin
p3
I1
sVlyrics
p4
I2
sVludacris
p5
I1
sVbabycakes
p6
I1
sVunite
p7
I1
sVfacts
p8
I1
sVfollow
p9
I1
sVfeat
p10
I1
sVfind
p11
I1
sVaint
p12
I1
sVstyle
p13
I1
sVslow
p14
I1
sVbetter
p15
I1
sVsomethin
p16
I1
sVactin
p17
I1
sVbout
p18
I3
sVta
p19
I2
sVcoffee
p20
I1
sVya
p21
I1
sVda
p22
I1
sVsweets
p23
I1
sVgame
p24
I1
sVevery
p25
I1
sVknow
p26
I3
sVkiss
p27
I1
sVhands
p28
I1
sVworld
p29
I1
sVnasty
p30
I1
sVmissionary
p31
I1
sVlike
p32
I1
sVdoggy
p33
I1
sVname
p34
I1
sVfreaky
p35
I1
sVbad
p36
I1
sVstuff
p37
I1
sVholdin
p38
I1
sVnight
p39
I1
sVquick
p40
I1
sVgrab
p41
I1
sVyall
p42
I2
sVbabyface
p43
I1
sVem
p44
I4
sVshed
p45
I1
sVright
p46
I3
sVdicktionary
p47
I1
sVback
p48
I1
sVsmackin
p49
I1
sVgo
p50
I1
sVshes
p51
I3
sVfingertips
p52
I1
sVgirl
p53
I1
sVsandy
p54
I1
sVcandlelight
p55
I1
sVbroad
p56
I1
sVspendin
p57
I1
sVwhile
p58
I1
sVmoon
p59
I1
sVgot
p60
I3
sVbeating
p61
I1
sVcause
p62
I2
sVwhipped
p63
I1
sVass
p64
I1
sVjabberjaws
p65
I1
sVwaterfalls
p66
I2
sVvisionaries
p67
I1
sVblame
p68
I1
sVlet
p69
I1
sVthrow
p70
I1
sVlast
p71
I1
sVfavorite
p72
I1
sVkeep
p73
I2
sVturn
p74
I1
sVeatin
p75
I1
sVplus
p76
I1
sVflick
p77
I1
sVlove
p78
I13
sVdont
p79
I3
sVfamily
p80
I1
sVfeel
p81
I1
sVmakin
p82
I1
sVsack
p83
I1
sVone
p84
I3
sVna
p85
I1
sVnigga
p86
I1
sVframes
p87
I1
sVcussin
p88
I1
sVring
p89
I1
sVwan
p90
I1
sVsake
p91
I1
sVlickin
p92
I1
sVropes
p93
I1
sVgive
p94
I1
sVfast
p95
I1
sVfight
p96
I1
sVpearl
p97
I1
sVsplash
p98
I2
sVcall
p99
I3
sVlow
p100
I1
sVlot
p101
I1
sVcupids
p102
I1
sVtryin
p103
I1
sVtell
p104
I1
sVtoe
p105
I1
sVhead
p106
I1
sVbuy
p107
I1
sVrelax
p108
I1
sVgrabbin
p109
I1
sVnobody
p110
I1
sVhear
p111
I2
sVstick
p112
I1
sVscratches
p113
I1
sVdrum
p114
I1
sVglad
p115
I1
sVme
p116
I13
sVballs
p117
I1
sVmeee
p118
I13
sVhandcuffs
p119
I1
sVattached
p120
I1
sVstraighten
p121
I1
sVgucci
p122
I1
sVfroggy
p123
I1
sVwild
p124
I1
sVmeet
p125
I1
sVfiner
p126
I1
sVladys
p127
I1
sVtheres
p128
I1
sVup
p129
I2
sVwrap
p130
I1
sVfights
p131
I1
sVrammed
p132
I1
sVfuck
p133
I14
sVsay
p134
I13
sVdiamond
p135
I1
sVim
p136
I2
sVnothin
p137
I1
sVwant
p138
I4
sVohhhh
p139
I12
sVshit
p140
I1
sVneeds
p141
I1
sVdinners
p142
I1
sVthings
p143
I1
sVmake
p144
I14
sVsame
p145
I1
sVahold
p146
I1
sVtie
p147
I1
sVnice
p148
I1
sVdesigner
p149
I1
sVpain
p150
I1
sVplans
p151
I1
sVhand
p152
I1
sVsheets
p153
I1
sVmack
p154
I1
sVfo
p155
I1
sVpurchase
p156
I1
sVgrands
p157
I1
sVlight
p158
I1
sVyoure
p159
I1
sVdrive
p160
I1
sVtogether
p161
I1
sVscream
p162
I1
sVorgasms
p163
I1
sVexs
p164
I1
sVsun
p165
I1
sVhearts
p166
I1
sVstrings
p167
I1
sVcame
p168
I1
s.