(dp1
Vwhattup
p2
I1
sVoutfit
p3
I1
sVshoes
p4
I2
sVlyrics
p5
I2
sVludacris
p6
I1
sVmoney
p7
I1
sVhaircut
p8
I1
sVchillin
p9
I1
sVcruised
p10
I1
sVbring
p11
I1
sVshape
p12
I1
sVgd
p13
I1
sVsinnin
p14
I1
sVgo
p15
I2
sVna
p16
I4
sVfeat
p17
I1
sVforget
p18
I1
sVaint
p19
I6
sVlit
p20
I1
sVporno
p21
I1
sVbiz
p22
I1
sVhomage
p23
I1
sVburnt
p24
I1
sVwatch
p25
I1
sVless
p26
I1
sVfloss
p27
I1
sVbust
p28
I1
sV818
p29
I1
sVlets
p30
I3
sVsuppot
p31
I1
sVtouched
p32
I1
sVgrill
p33
I1
sVelevation
p34
I1
sVrobb
p35
I1
sVta
p36
I2
sVsteel
p37
I1
sVgood
p38
I2
sVdj
p39
I1
sVaround
p40
I2
sVyo
p41
I2
sVget
p42
I8
sVfar
p43
I1
sVdowns
p44
I1
sVsunny
p45
I1
sVtrees
p46
I1
sVfeelin
p47
I3
sVbreak
p48
I2
sVshoot
p49
I1
sVhomo
p50
I1
sVevery
p51
I1
sVknow
p52
I2
sVthrowed
p53
I1
sVnow
p54
I1
sVspur
p55
I4
sVday
p56
I2
sVcelebrate
p57
I1
sVmeat
p58
I1
sVtrippin
p59
I1
sVseagrams
p60
I1
sVbar
p61
I1
sVlike
p62
I8
sVlost
p63
I1
sVcause
p64
I3
sVgettin
p65
I1
sVcornrows
p66
I1
sVbag
p67
I2
sVbad
p68
I1
sVstupid
p69
I1
sVnight
p70
I1
sVquick
p71
I1
sVround
p72
I2
sVyall
p73
I1
sVmean
p74
I2
sVem
p75
I2
sVcost
p76
I1
sVmental
p77
I1
sVten
p78
I1
sVwoulda
p79
I2
sVthrowin
p80
I1
sVmighta
p81
I1
sVback
p82
I2
sValive
p83
I1
sVup
p84
I2
sVhair
p85
I1
sVclickclack
p86
I1
sVdawg
p87
I1
sVshes
p88
I1
sVhoes
p89
I1
sVgirl
p90
I1
sVyknahmean
p91
I1
sVdrinks
p92
I1
sVeven
p93
I1
sVspruce
p94
I1
sVgon
p95
I8
sVrecord
p96
I1
sVhouse
p97
I1
sVjumped
p98
I1
sVjump
p99
I1
sVwrong
p100
I1
sVwoo
p101
I1
sVriiiiight
p102
I1
sVbuddha
p103
I1
sVwithout
p104
I1
sVgot
p105
I7
sVlearned
p106
I1
sVever
p107
I1
sVdental
p108
I1
sVfreed
p109
I1
sVima
p110
I1
sVdrink
p111
I1
sVpower
p112
I1
sVsag
p113
I1
sVloose
p114
I2
sVuse
p115
I1
sVquite
p116
I1
sVlosed
p117
I1
sVlet
p118
I1
sVask
p119
I1
sVnews
p120
I1
sVboss
p121
I1
sVcome
p122
I2
sVthrow
p123
I1
sVcare
p124
I2
sVcalifornye
p125
I1
sVkipper
p126
I1
sVher
p127
I1
sVknowin
p128
I1
sVmuhfucka
p129
I1
sVcompton
p130
I1
sVput
p131
I2
sVdays
p132
I3
sVkeep
p133
I2
sVangeles
p134
I1
sVlicked
p135
I1
sVseeds
p136
I1
sVneed
p137
I1
sVlookin
p138
I1
sVwitcha
p139
I1
sVhead
p140
I1
sVsupport
p141
I1
sVblock
p142
I2
sValready
p143
I1
sVsee
p144
I1
sVdont
p145
I1
sVgarbage
p146
I1
sVfeel
p147
I1
sVwonder
p148
I1
sVapt
p149
I1
sVone
p150
I2
sVstop
p151
I2
sVpair
p152
I1
sVmomma
p153
I1
sVanother
p154
I1
sVpicnic
p155
I1
sVstraight
p156
I1
sVhood
p157
I1
sVcris
p158
I1
sVwan
p159
I1
sVlittle
p160
I1
sVwould
p161
I1
sVshow
p162
I1
sVtop
p163
I1
sVattack
p164
I1
sVlos
p165
I1
sVsecret
p166
I1
sVarabian
p167
I1
sVcall
p168
I3
sVtherefore
p169
I1
sVway
p170
I2
sVeverythings
p171
I2
sVspinnin
p172
I1
sVblowed
p173
I1
sVman
p174
I2
sVbullshittin
p175
I1
sVquik
p176
I1
sVlife
p177
I2
sVzipped
p178
I1
sVmind
p179
I1
sVtool
p180
I1
sV6
I1
sVrepot
p181
I1
sVvolume
p182
I2
sVboys
p183
I1
sVfinished
p184
I1
sVkids
p185
I1
sVchild
p186
I1
sVbaby
p187
I1
sVeat
p188
I2
sVrunnin
p189
I2
sVtonight
p190
I3
sVkind
p191
I1
sVlook
p192
I1
sVhour
p193
I1
sVjuice
p194
I1
sVcar
p195
I4
sVmo
p196
I2
sVmtv
p197
I1
sVcant
p198
I3
sVshower
p199
I1
sVwhiskey
p200
I1
sVsour
p201
I1
sVcats
p202
I1
sVpowers
p203
I1
sVcalled
p204
I1
sVluda
p205
I1
sVgone
p206
I1
sVshare
p207
I1
sVit
p208
I2
sVjewels
p209
I1
sVtwist
p210
I1
sVay
p211
I1
sVsay
p212
I1
sVim
p213
I8
sVyknahmtalkinbout
p214
I1
sVready
p215
I1
sVhandle
p216
I1
sVrid
p217
I1
sVerybody
p218
I1
sVworld
p219
I2
sVgrown
p220
I1
sVthought
p221
I1
sVsip
p222
I1
sVpay
p223
I1
sVbumpy
p224
I1
sVgrinnin
p225
I1
sVrememberin
p226
I1
sVnote
p227
I2
sVhot
p228
I1
sVpermed
p229
I1
sV5
I1
sVtake
p230
I1
sVparty
p231
I3
sVfools
p232
I1
sVreally
p233
I1
sVbein
p234
I2
sVplay
p235
I1
sVused
p236
I2
sVbrothers
p237
I1
sVtipsy
p238
I1
sVnormal
p239
I1
sVcadillac
p240
I2
sVshroom
p241
I1
sVfelt
p242
I1
sVpaid
p243
I2
sVstay
p244
I1
sVmario
p245
I1
sVmoment
p246
I4
sVsippin
p247
I1
sVmouth
p248
I1
sVplan
p249
I1
sVdate
p250
I1
sVfo
p251
I1
sVsomethin
p252
I2
sVpaycheck
p253
I1
sVkept
p254
I1
sVstraps
p255
I1
sVwell
p256
I2
sVnothin
p257
I1
sVthink
p258
I1
sVfreeway
p259
I1
sVflippin
p260
I1
sVswitch
p261
I1
sVbreeze
p262
I1
sVtruck
p263
I1
sVtime
p264
I1
sValright
p265
I2
sVfresh
p266
I2
sVtruce
p267
I1
sVscrap
p268
I1
s.