(dp1
Vneighbors
p2
I1
sVsaying
p3
I1
sVbrrrrddd
p4
I1
sVshot
p5
I2
sVlyrics
p6
I2
sVludacris
p7
I2
sVbring
p8
I1
sVgang
p9
I1
sVshake
p10
I1
sVgo
p11
I1
sVlove
p12
I1
sVcold
p13
I1
sVfeat
p14
I1
sVaint
p15
I2
sVdandruff
p16
I1
sVsayin
p17
I1
sVlootless
p18
I1
sVless
p19
I1
sVlake
p20
I1
sVto
p21
I8
sVblack
p22
I2
sVrick
p23
I1
sVrich
p24
I1
sV8
I1
sVbout
p25
I5
sVmixture
p26
I1
sVsomebody
p27
I1
sVyo
p28
I1
sVget
p29
I8
sVya
p30
I5
sVbig
p31
I1
sVwatch
p32
I1
sVpocket
p33
I1
sVscrilla
p34
I1
sVgame
p35
I1
sVbiz
p36
I1
sVhalf
p37
I2
sVworld
p38
I3
sVdt
p39
I1
sVblast
p40
I1
sVticker
p41
I1
sVday
p42
I1
sVwont
p43
I1
sVlike
p44
I5
sVjames
p45
I1
sVdrop
p46
I1
sVtoast
p47
I1
sVreload
p48
I1
sVbad
p49
I3
sVtrap
p50
I1
sVtruth
p51
I1
sVwhip
p52
I1
sVsmall
p53
I3
sVfound
p54
I1
sVquarter
p55
I1
sVsoft
p56
I1
sVyall
p57
I1
sVsho
p58
I1
sVem
p59
I5
sVass
p60
I2
sVnigga
p61
I5
sVdollarless
p62
I1
sVhouse
p63
I1
sVyeah
p64
I2
sVtempered
p65
I1
sVnorfclk
p66
I2
sVlips
p67
I1
sVstreet
p68
I1
sVneva
p69
I1
sVbegun
p70
I1
sVhoes
p71
I1
sVdisturbing
p72
I1
sVcreep
p73
I1
sVwhat
p74
I1
sVplayaz
p75
I1
sVtemper
p76
I1
sVgiving
p77
I1
sVleak
p78
I1
sVscrap
p79
I1
sVsince
p80
I1
sVplease
p81
I1
sVshoties
p82
I1
sV3
I2
sVuhhuhh
p83
I1
sV7
I1
sVnew
p84
I1
sVever
p85
I1
sVred
p86
I1
sVpiss
p87
I1
sVbody
p88
I1
sVclipper
p89
I1
sVwe
p90
I1
sVfull
p91
I1
sVeating
p92
I1
sVgot
p93
I1
sVhahaha
p94
I1
sVlaker
p95
I1
sVquite
p96
I1
sVdeliver
p97
I1
sVbisquick
p98
I1
sVput
p99
I2
sVwants
p100
I1
sVboss
p101
I1
sVzipper
p102
I1
sVproblem
p103
I1
sVsace
p104
I1
sVkapaow
p105
I2
sVbox
p106
I1
sVstone
p107
I1
sVol
p108
I6
sVanything
p109
I1
sVgetting
p110
I1
sVack
p111
I1
sVill
p112
I3
sVotha
p113
I1
sVkeep
p114
I1
sVboi
p115
I3
sVstand
p116
I1
sVact
p117
I1
sVblat
p118
I1
sVbullets
p119
I1
sVwhole
p120
I1
sVthink
p121
I1
sVshiver
p122
I1
sVdick
p123
I2
sVwhats
p124
I1
sVdont
p125
I4
sVdots
p126
I1
sVclique
p127
I1
sVjeans
p128
I1
sVone
p129
I1
sVwit
p130
I3
sVbitch
p131
I7
sVparties
p132
I1
sVcouldnt
p133
I8
sVhood
p134
I1
sVcha
p135
I2
sVher
p136
I2
sVletting
p137
I1
sVsplat
p138
I1
sVstart
p139
I1
sV2
I1
sVdamn
p140
I2
sVchinchilla
p141
I1
sVway
p142
I2
sVbrick
p143
I1
sVtell
p144
I1
sVback
p145
I4
sVintroducing
p146
I1
sVblaow
p147
I3
sVpimpin
p148
I1
sVshank
p149
I1
sVthat
p150
I1
sVstarted
p151
I1
sVmuffle
p152
I1
sVpondering
p153
I1
sVfuck
p154
I12
sVkilla
p155
I1
sVheat
p156
I1
sVbidness
p157
I1
sVhear
p158
I1
sVstick
p159
I2
sVbigga
p160
I1
sVcircle
p161
I1
sVme
p162
I9
sVpull
p163
I1
sVmulti
p164
I1
sVlooting
p165
I1
sVoh
p166
I4
sVflip
p167
I1
sVn
I1
sVclips
p168
I3
sVfigga
p169
I1
sVdem
p170
I2
sVplanes
p171
I1
sVloot
p172
I1
sVdrops
p173
I1
sVdollars
p174
I2
sVsay
p175
I1
sVluda
p176
I1
sVgone
p177
I1
sVclip
p178
I2
sVgive
p179
I2
sVis
p180
I1
sVit
p181
I2
sVrip
p182
I1
sVsleeping
p183
I1
sVtalking
p184
I10
sVcant
p185
I2
sVgood
p186
I1
sVim
p187
I6
sVsomething
p188
I1
sVcrash
p189
I1
sVshit
p190
I1
sVmonitoring
p191
I1
sVnoises
p192
I1
sVlil
p193
I1
sVthings
p194
I1
sV44
p195
I1
sVpeace
p196
I1
sVcross
p197
I1
sVgats
p198
I1
sV1
I1
sVmembes
p199
I1
sVnaw
p200
I8
sVsee
p201
I1
sVinch
p202
I1
sVtalkin
p203
I1
sVmilla
p204
I1
sVnice
p205
I1
sVextended
p206
I1
sVriver
p207
I1
sVcoming
p208
I1
sVstop
p209
I2
sVdrift
p210
I1
sVmuch
p211
I2
sVmouth
p212
I1
sVblood
p213
I1
sVsnitch
p214
I1
sVrealer
p215
I1
sVdolla
p216
I4
sVgrave
p217
I1
sVappear
p218
I1
sVshort
p219
I1
sVoff
p220
I2
sVhighness
p221
I1
sVunload
p222
I1
sVloud
p223
I1
sVproposed
p224
I1
sVbang
p225
I1
sVplaying
p226
I1
sVyounasayin
p227
I1
sVchattahoochee
p228
I1
sVtaking
p229
I1
sVquicker
p230
I1
sVmake
p231
I2
sVtha
p232
I1
s.