(dp1
Vjockin
p2
I1
sVchicks
p3
I1
sVlyrics
p4
I2
sVludacris
p5
I2
sVyea
p6
I1
sVnap
p7
I1
sVmove
p8
I1
sVhot
p9
I1
sVchillin
p10
I1
sVbaby
p11
I4
sVjuicyyyyy
p12
I1
sVleft
p13
I1
sVgo
p14
I1
sVgossip
p15
I1
sValonzo
p16
I1
sVfeat
p17
I1
sVbit
p18
I1
sVblow
p19
I1
sVcut
p20
I1
sVsomewhere
p21
I1
sVcuz
p22
I1
sVlets
p23
I3
sVwood
p24
I1
sVpretty
p25
I1
sVmistreat
p26
I1
sVeye
p27
I1
sVsurprised
p28
I1
sVsplit
p29
I1
sVreal
p30
I1
sVshoulder
p31
I1
sVgood
p32
I1
sVhit
p33
I3
sVyo
p34
I2
sVget
p35
I10
sVya
p36
I5
sVgraciouuuus
p37
I1
sVfeelin
p38
I7
sVbreak
p39
I4
sVsmack
p40
I1
sVevery
p41
I1
sVknow
p42
I1
sVworld
p43
I1
sVruuuuuub
p44
I1
sVshhh
p45
I1
sVstackhouse
p46
I1
sVcool
p47
I1
sVwont
p48
I1
sVlike
p49
I8
sVgirl
p50
I5
sValways
p51
I1
sVbad
p52
I1
sVoooh
p53
I1
sVstay
p54
I1
sVvision
p55
I1
sVclothes
p56
I1
sVem
p57
I2
sVright
p58
I1
sVbooty
p59
I1
sVupstairs
p60
I1
sVhates
p61
I1
sVcolder
p62
I1
sVshake
p63
I1
sVback
p64
I4
sVsoul
p65
I1
sVnastyyy
p66
I1
sVhappen
p67
I1
sVout
p68
I3
sVmama
p69
I1
sVgon
p70
I1
sVhide
p71
I1
sVchicago
p72
I1
sVhate
p73
I1
sVlotto
p74
I1
sVsweaty
p75
I1
sVwooooozy
p76
I13
sVenough
p77
I1
sVgot
p78
I1
sVblurry
p79
I1
sVbody
p80
I2
sVshaker
p81
I1
sVkel
p82
I1
sVwoozy
p83
I3
sVrub
p84
I1
sVdividends
p85
I1
sVmillion
p86
I1
sVmourning
p87
I1
sVslow
p88
I2
sVimagine
p89
I1
sVmeeee
p90
I1
sVhand
p91
I1
sVslug
p92
I1
sVmooooan
p93
I1
sVfaaaaaaaces
p94
I1
sVlast
p95
I1
sVjams
p96
I1
sVyup
p97
I1
sVdollars
p98
I1
sVtimes
p99
I1
sVonnnnnn
p100
I1
sVimma
p101
I1
sVgrain
p102
I1
sVclap
p103
I1
sVstressed
p104
I1
sVseeecretsss
p105
I1
sVislands
p106
I1
sVgiiiirl
p107
I1
sVfuckin
p108
I1
sVthats
p109
I1
sVduty
p110
I1
sVseeing
p111
I1
sVhoooome
p112
I1
sVbbd
p113
I1
sVlove
p114
I2
sVdont
p115
I2
sVive
p116
I1
sVfeel
p117
I2
sVnumber
p118
I1
sVcrib
p119
I1
sVone
p120
I2
sVjealous
p121
I1
sVdone
p122
I1
sVamen
p123
I1
sVsexy
p124
I2
sVsounds
p125
I1
sVcris
p126
I1
sVeverybody
p127
I1
sVwan
p128
I2
sVlittle
p129
I1
sVwanted
p130
I1
sVsad
p131
I4
sVcaught
p132
I1
sVdestination
p133
I1
sVgirls
p134
I2
sVtwo
p135
I2
sVbeen
p136
I1
sVnext
p137
I1
sVgulligan
p138
I1
sVcoochie
p139
I1
sVwhoo
p140
I1
sVcall
p141
I1
sVtahoe
p142
I1
sVbravo
p143
I1
sVforward
p144
I1
sVbodys
p145
I1
sVlegs
p146
I2
sVtell
p147
I1
sVfriend
p148
I1
sVlot
p149
I1
sVclub
p150
I2
sVreminds
p151
I1
sVheat
p152
I1
sVtrain
p153
I1
sVgain
p154
I1
sVclubbin
p155
I1
sVhold
p156
I2
sVspin
p157
I1
sVglad
p158
I1
sVlonger
p159
I1
sVme
p160
I3
sVpull
p161
I1
sVkind
p162
I1
sVlook
p163
I1
sVmisleeeeead
p164
I1
sVplain
p165
I1
sVtuck
p166
I3
sVsmooth
p167
I2
sVseee
p168
I1
sVbed
p169
I2
sVvicks
p170
I1
sVr
I1
sVmakin
p171
I2
sVdangelo
p172
I1
sVv
I1
sVfun
p173
I1
sVmaking
p174
I1
sVill
p175
I2
sVsay
p176
I2
sVgone
p177
I1
sVsailin
p178
I1
sVwant
p179
I1
sVgive
p180
I1
sVludi
p181
I1
sVit
p182
I3
sVgoooooone
p183
I1
sVcant
p184
I2
sVim
p185
I10
sVgoodness
p186
I1
sVin
p187
I1
sVready
p188
I1
sVtrip
p189
I1
sVshit
p190
I1
sVholla
p191
I1
sVsippin
p192
I1
sVrockin
p193
I1
sVvickie
p194
I1
sVmake
p195
I8
sVjerry
p196
I1
sVid
p197
I5
sV1
I1
sVlouisville
p198
I1
sVnasty
p199
I1
sVtake
p200
I5
sVtalkin
p201
I1
sVmeeeee
p202
I1
sVbegin
p203
I1
sVpain
p204
I1
sVhey
p205
I2
sVflip
p206
I1
sVtrack
p207
I1
sVscream
p208
I1
sVdubs
p209
I1
sVlac
p210
I1
sVcolada
p211
I1
sVsaid
p212
I1
sVchris
p213
I1
sVstrut
p214
I1
sVhows
p215
I1
sVdeny
p216
I1
sVcenter
p217
I1
sVup
p218
I2
sVwell
p219
I1
sVfine
p220
I4
sVgrind
p221
I1
sVmisguide
p222
I1
sVtalk
p223
I1
sVna
p224
I3
sVkelly
p225
I1
sVvapor
p226
I1
sVpina
p227
I1
sVwind
p228
I1
sVyank
p229
I1
s.