(dp1
Vdilla
p2
I9
sVlyrics
p3
I2
sVshow
p4
I1
sVessence
p5
I1
sVhands
p6
I1
sVmove
p7
I1
sVfocus
p8
I1
sVfile
p9
I1
sVpitch
p10
I1
sVbattle
p11
I1
sVyes
p12
I1
sVgasping
p13
I1
sVcauses
p14
I1
sVvocalised
p15
I1
sVstyle
p16
I1
sVfit
p17
I1
sVla
p18
I1
sVsend
p19
I1
sVreasons
p20
I1
sVshout
p21
I1
sVpraised
p22
I1
sVrhythm
p23
I1
sVstable
p24
I1
sVdukes
p25
I4
sVplacin
p26
I1
sVsway
p27
I1
sValter
p28
I1
sVsent
p29
I1
sVroses
p30
I1
sVyo
p31
I2
sVget
p32
I3
sVbeat
p33
I1
sVshowing
p34
I1
sVde
p35
I1
sVadmitting
p36
I1
sVchoice
p37
I1
sVevery
p38
I4
sVrhymes
p39
I1
sVwords
p40
I1
sVgot
p41
I1
sVconfetti
p42
I1
sVpaid
p43
I1
sVlike
p44
I4
sVwont
p45
I1
sVd
I4
sVlost
p46
I1
sVcalled
p47
I1
sVnotes
p48
I1
sVtheyre
p49
I2
sVleave
p50
I1
sVindividuals
p51
I1
sVgathered
p52
I1
sVbeneath
p53
I1
sVtransistors
p54
I1
sVruins
p55
I1
sVyall
p56
I5
sVbarrels
p57
I1
sVset
p58
I1
sVdue
p59
I1
sVthrowing
p60
I1
sVhumans
p61
I1
sVyeah
p62
I2
sVself
p63
I1
sVpreacher
p64
I1
sVcost
p65
I1
sVare
p66
I1
sVsight
p67
I1
sVproper
p68
I1
sVuhuh
p69
I1
sVclick
p70
I1
sVenemies
p71
I1
sVshown
p72
I1
sVprofit
p73
I1
sVnoon
p74
I1
sVmarketed
p75
I1
sVplease
p76
I1
sVthirst
p77
I1
sVparagraph
p78
I1
sVflowing
p79
I1
sVnew
p80
I3
sVcause
p81
I2
sVmethod
p82
I1
sVsalute
p83
I2
sVfables
p84
I1
sVauditions
p85
I1
sVnever
p86
I2
sVdore
p87
I1
sVlet
p88
I1
sVvinyl
p89
I1
sVdrums
p90
I1
sVput
p91
I1
sVmotto
p92
I1
sVholds
p93
I1
sVstage
p94
I1
sVplug
p95
I3
sVfixed
p96
I1
sVlast
p97
I2
sVwould
p98
I1
sVjay
p99
I2
sVleaving
p100
I1
sVrecited
p101
I1
sVarent
p102
I2
sVthreat
p103
I1
sVpick
p104
I1
sVintroduced
p105
I1
sVlove
p106
I1
sVblown
p107
I1
sVperogative
p108
I1
sVsteady
p109
I1
sVthree
p110
I1
sVsimply
p111
I1
sVloaded
p112
I1
sVsounds
p113
I2
sVutility
p114
I1
sVstanding
p115
I1
sVpoem
p116
I1
sVuse
p117
I2
sVservice
p118
I1
sVunknown
p119
I1
sVtop
p120
I1
sVmouthpiece
p121
I1
sVverse
p122
I1
sVreppin
p123
I1
sVstart
p124
I1
sVlive
p125
I3
sVgaze
p126
I1
sVcall
p127
I2
sVlunatics
p128
I1
sVneverending
p129
I1
sVdry
p130
I1
sVbrings
p131
I1
sVappreciation
p132
I1
sVhear
p133
I1
sVvents
p134
I1
sVline
p135
I1
sVhold
p136
I1
sVpositively
p137
I1
sVcount
p138
I1
sVtonight
p139
I9
sVma
p140
I9
sVpublicly
p141
I1
sVheard
p142
I1
sVtunin
p143
I3
sVmi
p144
I1
sVsoul
p145
I3
sVvocal
p146
I2
sVair
p147
I14
sVlabeled
p148
I1
sVconverted
p149
I1
sVblooming
p150
I1
sVchanters
p151
I1
sVgroove
p152
I1
sVdee
p153
I1
sVtheres
p154
I1
sVshowbiz
p155
I1
sVviolets
p156
I1
sVquench
p157
I1
sVrequest
p158
I1
sVcleaned
p159
I1
sVdazzled
p160
I1
sVsoothe
p161
I1
sVshame
p162
I1
sVim
p163
I2
sVpolaroids
p164
I1
sVin
p165
I1
sVphrase
p166
I1
sVsounding
p167
I1
sVid
p168
I1
sVcapture
p169
I1
sVdifferent
p170
I1
sVend
p171
I1
sVperson
p172
I1
sVrather
p173
I1
sVmic
p174
I1
sVanswering
p175
I1
sVplugged
p176
I2
sVswallowing
p177
I1
sVspeaker
p178
I1
sVposdnuos
p179
I1
sVuhh
p180
I1
sVsweat
p181
I1
sVokay
p182
I1
sVdive
p183
I1
sVdaisy
p184
I1
sVmicrophone
p185
I1
sVaiyyo
p186
I2
sVstay
p187
I1
sVdesigned
p188
I1
sVletter
p189
I1
sVcoming
p190
I1
sVhawk
p191
I1
sVliquid
p192
I1
sVage
p193
I1
sVflow
p194
I2
sVmusical
p195
I1
sVacquitted
p196
I1
sVdepth
p197
I1
sVtime
p198
I1
sVconsumer
p199
I1
sVhello
p200
I5
sVtalk
p201
I1
s.