(dp1
Vdill
p2
I1
sVready
p3
I2
sVnigga
p4
I1
sVlyrics
p5
I2
sVhunger
p6
I1
sVkat
p7
I1
sVascend
p8
I3
sVyeah
p9
I1
sVone
p10
I1
sVcries
p11
I1
sVcant
p12
I1
sVright
p13
I1
sVim
p14
I1
sVneed
p15
I1
sVkings
p16
I1
sVstill
p17
I1
sVyet
p18
I1
sVbest
p19
I1
sVmake
p20
I1
sV25
p21
I1
sVeye
p22
I1
sVla
p23
I1
sVsuper
p24
I1
sVnah
p25
I1
sVgive
p26
I1
sVplease
p27
I1
sVarms
p28
I1
sVslum
p29
I1
sVwings
p30
I1
sVchips
p31
I1
sVmusic
p32
I1
sVway
p33
I1
sVpenmanship
p34
I1
sVtest
p35
I1
sVget
p36
I1
sVman
p37
I1
sVred
p38
I1
sVdunk
p39
I1
sVpay
p40
I2
sVbegin
p41
I1
sVbully
p42
I1
sVgod
p43
I1
sVpull
p44
I1
sVtrack
p45
I1
sVde
p46
I1
sVmembership
p47
I1
sVlet
p48
I3
sVmatadors
p49
I1
sVbull
p50
I1
sVcape
p51
I1
sVhips
p52
I1
sVvill
p53
I1
sVunorthodox
p54
I1
sVday
p55
I1
sVlike
p56
I1
sVking
p57
I3
sVschool
p58
I1
sVsay
p59
I1
sVsubscribe
p60
I1
sVwins
p61
I1
sVstudy
p62
I1
sVjay
p63
I2
sVskateboard
p64
I1
sVsoul
p65
I2
sVrule
p66
I1
sVturn
p67
I1
sVgames
p68
I1
sVemcee
p69
I1
sVrock
p70
I1
sVfresh
p71
I1
sVleft
p72
I1
sVblend
p73
I1
sVdee
p74
I1
sVdef
p75
I1
sVphat
p76
I1
s.