(dp1
Vwalking
p2
I1
sVlyrics
p3
I2
sVthrough
p4
I1
sVcorner
p5
I2
sVsaved
p6
I1
sVlounge
p7
I1
sVla
p8
I1
sVscreaming
p9
I3
sVdegrees
p10
I2
sVsorry
p11
I1
sVthen
p12
I1
sVbreathing
p13
I1
sVaround
p14
I1
sVget
p15
I2
sVya
p16
I1
sVbig
p17
I1
sVde
p18
I1
sVfat
p19
I2
sVquickness
p20
I1
sVlady
p21
I3
sVshoulder
p22
I1
sVbrother
p23
I1
sVfacing
p24
I2
sVskipped
p25
I1
sVshe
p26
I2
sVwent
p27
I1
sVheavy
p28
I1
sVback
p29
I2
sVholler
p30
I1
sVchrissie
p31
I1
sVplays
p32
I2
sVgod
p33
I1
sVplease
p34
I1
sVlooking
p35
I1
sVwaiting
p36
I1
sVbk
p37
I1
sVwater
p38
I1
sVpath
p39
I1
sVwanted
p40
I3
sVcome
p41
I1
sVoh
p42
I9
sVcould
p43
I2
sVwrinkled
p44
I1
sVasked
p45
I1
sVpussy
p46
I1
sVwit
p47
I1
sVstanding
p48
I1
sVhey
p49
I1
sV180
p50
I2
sVstreetlight
p51
I1
sVtape
p52
I1
sVwas
p53
I1
sVlisten
p54
I1
sVstarted
p55
I1
sVbut
p56
I1
sVyeah
p57
I1
sVphone
p58
I1
sVluckily
p59
I1
sVcatch
p60
I1
sVha
p61
I3
sVwith
p62
I1
sVabandoned
p63
I1
sVsoul
p64
I1
sVshower
p65
I1
sVlover
p66
I1
sVcab
p67
I2
sVtoward
p68
I1
sVdidnt
p69
I1
sVand
p70
I1
sVringing
p71
I1
sVstated
p72
I1
sVran
p73
I5
sVdemo
p74
I3
sVturned
p75
I3
sVfuck
p76
I1
sVheard
p77
I2
sVcant
p78
I2
sVsomeone
p79
I1
sVwant
p80
I3
sVseen
p81
I1
sVif
p82
I1
sVhesitate
p83
I1
sVdashed
p84
I6
sVanswering
p85
I1
sVmachine
p86
I1
sVtill
p87
I2
sVpad
p88
I1
sVtake
p89
I1
sVyou
p90
I1
sVtapped
p91
I1
sVwhopper
p92
I1
sVknew
p93
I3
sVdriver
p94
I1
sVhand
p95
I1
sVtries
p96
I1
sVbuilding
p97
I2
sVi
I2
sVthe
p98
I1
sVorder
p99
I1
s.