(dp1
Vshop
p2
I1
sVlyrics
p3
I2
sVmove
p4
I1
sVyellow
p5
I1
sVwrms
p6
I1
sVsleep
p7
I1
sVgo
p8
I1
sVhell
p9
I1
sVpaul
p10
I1
sVstill
p11
I2
sVyet
p12
I1
sVslow
p13
I7
sVla
p14
I10
sVmuch
p15
I2
sVmighy
p16
I1
sVlets
p17
I1
sVtape
p18
I1
sVboard
p19
I1
sVkick
p20
I1
sVta
p21
I2
sVgrip
p22
I1
sVgood
p23
I1
sVget
p24
I1
sVde
p25
I10
sVrhyme
p26
I1
sVmakin
p27
I1
sVones
p28
I1
sVnew
p29
I1
sVpreacherman
p30
I1
sVbread
p31
I1
sVwont
p32
I1
sVlike
p33
I3
sVrocks
p34
I1
sVradio
p35
I1
sVundercover
p36
I1
sVenjoy
p37
I1
sVright
p38
I1
sVold
p39
I1
sVtired
p40
I1
sVgrippin
p41
I1
sVmighta
p42
I1
sVback
p43
I1
sVdead
p44
I1
sVpass
p45
I1
sVclose
p46
I1
sVblue
p47
I1
sVgon
p48
I1
sVplays
p49
I1
sVrecorded
p50
I1
sVmadface
p51
I1
sVals
p52
I1
sV3
I3
sVflushin
p53
I1
sVbogus
p54
I2
sVprops
p55
I1
sVumm
p56
I1
sVgot
p57
I5
sVteens
p58
I1
sVcause
p59
I1
sVcord
p60
I1
sVdirt
p61
I1
sVnever
p62
I1
sVhere
p63
I1
sVtracks
p64
I1
sVcut
p65
I1
sVnowhere
p66
I1
sVserved
p67
I1
sVplug
p68
I1
sVoh
p69
I1
sVdollars
p70
I1
sVdough
p71
I1
sVkeep
p72
I1
sVthink
p73
I1
sVthats
p74
I4
sVnaughty
p75
I1
sVlove
p76
I1
sVdont
p77
I3
sVfeel
p78
I1
sVjeans
p79
I2
sVpos
p80
I1
sVfeet
p81
I1
sVrising
p82
I1
sVprince
p83
I1
sVwan
p84
I1
sVheads
p85
I1
sVhes
p86
I1
sVdonuts
p87
I1
sVinvert
p88
I1
sVgirls
p89
I1
sVsubmarine
p90
I1
sVstation
p91
I1
sVsaint
p92
I1
sVtype
p93
I1
sVnutrition
p94
I1
sVpassed
p95
I1
sVthat
p96
I1
sVnobody
p97
I1
sVhurt
p98
I1
sVunderstand
p99
I1
sVknown
p100
I1
sVit
p101
I1
sVhold
p102
I1
sVwore
p103
I1
sVthese
p104
I1
sVsoul
p105
I1
sVdonut
p106
I1
sVcan
p107
I1
sVaight
p108
I2
sVgroove
p109
I1
sVcalled
p110
I1
sVtheres
p111
I1
sVinfections
p112
I1
sVfuck
p113
I2
sVhigh
p114
I1
sVmiddle
p115
I1
sVwant
p116
I1
sVin
p117
I1
sVshit
p118
I1
sVhoe
p119
I1
sVna
p120
I2
sVmic
p121
I1
sVpeace
p122
I1
sVsword
p123
I1
sVkravitz
p124
I1
sVplay
p125
I1
sVswell
p126
I1
sVfelt
p127
I1
sVpeas
p128
I1
sVlot
p129
I1
sVmad
p130
I1
sVkinda
p131
I1
sVsong
p132
I1
sVman
p133
I1
sVyeah
p134
I1
sVdoo
p135
I2
sVlenny
p136
I1
sVyoure
p137
I1
sVflow
p138
I1
sVrule
p139
I1
sVportion
p140
I1
sVhear
p141
I1
s.