(dp1
Vmaseo
p2
I1
sVlyrics
p3
I2
sVsound
p4
I1
sVhands
p5
I1
sVvader
p6
I1
sVgo
p7
I4
sVrough
p8
I1
sVfeat
p9
I1
sVyet
p10
I1
sVground
p11
I1
sVaint
p12
I1
sVsqueeze
p13
I1
sVasphalt
p14
I1
sVla
p15
I1
sVfetchin
p16
I1
sVsky
p17
I1
sVcrime
p18
I1
sVbetter
p19
I1
sVworldfamous
p20
I1
sVlets
p21
I2
sVblack
p22
I1
sVtouched
p23
I1
sVswimmin
p24
I1
sVloved
p25
I1
sVreal
p26
I1
sVshoot
p27
I1
sVcallin
p28
I1
sVhalt
p29
I1
sVyo
p30
I5
sVget
p31
I4
sVya
p32
I1
sVluke
p33
I2
sVde
p34
I1
sVpostcurrent
p35
I1
sVbear
p36
I1
sVcaps
p37
I1
sVjoint
p38
I1
sVgame
p39
I1
sVfive
p40
I1
sVkiss
p41
I1
sVfam
p42
I1
sVslidin
p43
I1
sVbubbles
p44
I1
sVnow
p45
I1
sVdreams
p46
I1
sVd
I1
sVcooks
p47
I1
sVlike
p48
I4
sVcontagious
p49
I1
sVgettin
p50
I1
sVbless
p51
I1
sVflashy
p52
I1
sVoooh
p53
I7
sVwent
p54
I1
sVstraight
p55
I1
sVyall
p56
I2
sVflick
p57
I1
sVharm
p58
I1
sVright
p59
I1
sVpeople
p60
I1
sVtea
p61
I1
sVstreets
p62
I2
sVdirect
p63
I1
sVup
p64
I1
sVpast
p65
I1
sVsee
p66
I2
sVshinin
p67
I1
sVgirl
p68
I1
sVbigger
p69
I1
sVclick
p70
I1
sVtry
p71
I1
sVredman
p72
I1
sVgod
p73
I1
sVsince
p74
I1
sVfat
p75
I1
sVfingers
p76
I1
sVhardhitters
p77
I1
sVwoo
p78
I1
sVgoes
p79
I1
sVgot
p80
I3
sVyoull
p81
I1
sVfilled
p82
I1
sVuh
p83
I1
sVass
p84
I6
sVrun
p85
I1
sVscandalize
p86
I1
sVmarvin
p87
I1
sVrock
p88
I1
sVspray
p89
I1
sVadd
p90
I1
sVlips
p91
I1
sVput
p92
I2
sVcome
p93
I1
sVvoice
p94
I1
sVoh
p95
I1
sVfault
p96
I1
sVill
p97
I3
sVoatmeal
p98
I1
sVfulfilled
p99
I1
sVpuffin
p100
I1
sVfaces
p101
I1
sVthink
p102
I1
sVcomes
p103
I1
sVthats
p104
I4
sVlove
p105
I2
sVdont
p106
I3
sVextra
p107
I1
sVwall
p108
I2
sVwalk
p109
I1
sVbrought
p110
I1
sVgraduated
p111
I1
sVoww
p112
I2
sVgosh
p113
I1
sVmiss
p114
I1
sVstare
p115
I1
sVcity
p116
I1
sVlittle
p117
I2
sVafrocentric
p118
I1
sVthere
p119
I1
sVthree
p120
I1
sVfast
p121
I1
sVmuch
p122
I1
sVcrews
p123
I1
sVrockin
p124
I1
sVbrick
p125
I1
sVsheddin
p126
I1
sVpopped
p127
I1
sVbig
p128
I1
sVoooooooh
p129
I1
sVit
p130
I1
sVglass
p131
I1
sVchild
p132
I1
sVcatch
p133
I1
sVgladly
p134
I1
sVline
p135
I1
sVhold
p136
I2
sVrivalry
p137
I1
sVetch
p138
I1
sVfunk
p139
I1
sVme
p140
I1
sVtopic
p141
I1
sVthis
p142
I1
sVinside
p143
I1
sVwork
p144
I1
sVsoul
p145
I1
sVrhymes
p146
I1
sVcoats
p147
I1
sVcan
p148
I1
sVsheets
p149
I1
sVim
p150
I1
sVproviding
p151
I1
sVrooks
p152
I1
sVthatll
p153
I1
sVchoice
p154
I1
sVages
p155
I1
sVmine
p156
I1
sVhigh
p157
I1
sVshame
p158
I1
sVbeats
p159
I1
sVwoman
p160
I1
sVchin
p161
I1
sVdrug
p162
I2
sVtab
p163
I1
sVthugs
p164
I1
sVcourt
p165
I1
sVoutted
p166
I1
sVbeat
p167
I1
sVyouandiversity
p168
I1
sVopposite
p169
I1
sVpeoples
p170
I1
sVparty
p171
I1
sVball
p172
I1
sVthough
p173
I1
sVwho
p174
I1
sVdarth
p175
I1
sVaiyyo
p176
I1
sVlay
p177
I1
sVbluff
p178
I1
sVmuffles
p179
I1
sVlovin
p180
I2
sVman
p181
I3
sVforever
p182
I1
sVsmokey
p183
I1
sVyoure
p184
I1
sVlife
p185
I2
sVspent
p186
I1
sVskywalk
p187
I1
sVblast
p188
I1
sVooooh
p189
I1
sVtime
p190
I1
sVtalk
p191
I2
s.