(dp1
Vchicks
p2
I1
sVsix
p3
I1
sVgully
p4
I7
sVlyrics
p5
I2
sVraining
p6
I1
sVmoney
p7
I1
sVfifty
p8
I1
sVfour
p9
I1
sVcryin
p10
I1
sVbugged
p11
I1
sVfishscale
p12
I1
sVfind
p13
I2
sVima
p14
I2
sVstyle
p15
I1
sVdun
p16
I1
sVpolice
p17
I1
sVfront
p18
I1
sVtu
p19
I3
sVbetter
p20
I1
sVloafers
p21
I1
sVpretty
p22
I1
sVlate
p23
I1
sVsmile
p24
I1
sVsave
p25
I2
sVworth
p26
I1
sVgave
p27
I1
sVme
p28
I1
sVaround
p29
I1
sVget
p30
I16
sVya
p31
I8
sVsucker
p32
I1
sVstop
p33
I1
sVbeam
p34
I1
sVbboy
p35
I1
sVhald
p36
I1
sVkiss
p37
I2
sVhalf
p38
I1
sVcook
p39
I1
sVyou
p40
I4
sVsmash
p41
I1
sVheaven
p42
I1
sVlike
p43
I1
sVgift
p44
I1
sVspine
p45
I1
sVdie
p46
I2
sVcry
p47
I1
sV50
p48
I1
sVremind
p49
I1
sVggget
p50
I2
sVred
p51
I1
sVhittin
p52
I1
sVgrab
p53
I1
sVteh
p54
I1
sVright
p55
I1
sVenvision
p56
I1
sVeagle
p57
I1
sVfucking
p58
I1
sVphones
p59
I1
sVback
p60
I1
sVgun
p61
I1
sVhoes
p62
I1
sVrun
p63
I1
sVwhip
p64
I1
sVreally
p65
I1
sVtendancies
p66
I1
sVhide
p67
I2
sVheres
p68
I1
sVgod
p69
I1
sVwrong
p70
I1
sVoutside
p71
I1
sVthree
p72
I1
sVmonsters
p73
I1
sVknife
p74
I2
sVass
p75
I3
sVaint
p76
I2
sVfull
p77
I1
sVferocious
p78
I1
sVwan
p79
I1
sVguess
p80
I1
sVfocused
p81
I1
sVtrunk
p82
I1
sVfuck
p83
I3
sVstrong
p84
I1
sVslug
p85
I1
sVshot
p86
I1
sVlock
p87
I1
sVboy
p88
I4
sVdrops
p89
I1
sVlast
p90
I1
sVwould
p91
I1
sVfishtail
p92
I1
sV36
p93
I1
sVtimes
p94
I2
sVcrucifix
p95
I1
sVbet
p96
I1
sVswallow
p97
I1
sVos
p98
I1
sVemcee
p99
I1
sVthats
p100
I2
sVlove
p101
I3
sVdont
p102
I3
sVyoud
p103
I1
sVone
p104
I4
sVdown
p105
I1
sVmomma
p106
I1
sVnigga
p107
I2
sVbitch
p108
I1
sVsnub
p109
I1
sVraw
p110
I1
sVchirping
p111
I1
sVmarket
p112
I1
sVrazor
p113
I2
sVstory
p114
I1
sVserpent
p115
I1
sVbeef
p116
I1
sVbreed
p117
I1
sVtwo
p118
I1
sVcent
p119
I1
sVcall
p120
I1
sV6
I6
sVwhite
p121
I1
sVtell
p122
I2
sVthrew
p123
I1
sVhead
p124
I2
sVdoor
p125
I1
sVstillborn
p126
I1
sVmuthafuckers
p127
I1
sVit
p128
I2
sVbaby
p129
I1
sVline
p130
I1
sVsqueeze
p131
I1
sVshoot
p132
I1
sVnone
p133
I1
sVmade
p134
I1
sVtarget
p135
I1
sVniggas
p136
I2
sVwish
p137
I1
sVinside
p138
I1
sVbanana
p139
I1
sVmatter
p140
I1
sVgucci
p141
I1
sVnine
p142
I1
sVuh
p143
I1
sVflashes
p144
I1
sVhater
p145
I1
sVscatter
p146
I1
sVsucka
p147
I1
sVseven
p148
I1
sVclip
p149
I1
sVgive
p150
I2
sVmaury
p151
I1
sVforgot
p152
I1
sVmine
p153
I1
sVtalking
p154
I1
sVcant
p155
I1
sVim
p156
I5
sVwant
p157
I5
sVthug
p158
I1
sVshit
p159
I3
sVsell
p160
I1
sVdifferent
p161
I1
sVcodes
p162
I1
sVrather
p163
I1
sVna
p164
I1
sVmake
p165
I3
sVfirin
p166
I1
sVwound
p167
I1
sVmachine
p168
I1
sVneed
p169
I1
sVferrari
p170
I1
sVschemin
p171
I1
sVgets
p172
I1
sVnice
p173
I2
sVcriminal
p174
I1
sVshatter
p175
I1
sVladder
p176
I1
sVrain
p177
I1
sVstay
p178
I1
sVrunning
p179
I5
sVeight
p180
I1
sVmad
p181
I1
sVcoming
p182
I4
sVnothing
p183
I2
sVtongue
p184
I1
sVwheres
p185
I1
sVman
p186
I1
sVyeah
p187
I1
sVlawn
p188
I1
sVbullet
p189
I1
sVwhole
p190
I1
sVyoure
p191
I1
sVgreen
p192
I1
sVtime
p193
I1
sVfive
p194
I1
sVbarrel
p195
I1
sVknow
p196
I2
s.