(dp1
Vlessons
p2
I1
sVparish
p3
I1
sVthink
p4
I1
sVlyrics
p5
I2
sVdeck
p6
I1
sVmoney
p7
I3
sVhalf
p8
I1
sVdollar
p9
I1
sVsoon
p10
I1
sVfour
p11
I1
sVwavin
p12
I1
sVmile
p13
I2
sVchainsaw
p14
I1
sVlloyd
p15
I2
sVfuckin
p16
I2
sVslippin
p17
I1
sVhell
p18
I1
sVstill
p19
I2
sVfeat
p20
I1
sVbirds
p21
I1
sVcauses
p22
I1
sVdont
p23
I3
sVaint
p24
I3
sVrover
p25
I1
sVcorner
p26
I2
sVdeath
p27
I2
sVgggunit
p28
I2
sVforwards
p29
I1
sVnines
p30
I1
sVmuch
p31
I1
sVexplain
p32
I1
sVpoppin
p33
I3
sVyoung
p34
I1
sVsend
p35
I1
sVlets
p36
I2
sVhater
p37
I1
sVcondom
p38
I1
sVswimmin
p39
I1
sV8
I2
sVpolishin
p40
I1
sVpride
p41
I1
sVtold
p42
I1
sVta
p43
I2
sVcount
p44
I1
sVgood
p45
I2
sVhit
p46
I1
sVaround
p47
I2
sVget
p48
I8
sVya
p49
I2
sVstop
p50
I2
sVfeelin
p51
I2
sVpocket
p52
I1
sVrecords
p53
I1
sVfeels
p54
I1
sVfrontin
p55
I1
sVknow
p56
I5
sVnew
p57
I1
sVcook
p58
I1
sVworld
p59
I1
sVtrouble
p60
I1
sVone
p61
I1
sVchips
p62
I1
sVday
p63
I1
sVghetto
p64
I4
sVtrippin
p65
I2
sVmalasio
p66
I1
sVbaking
p67
I1
sVlike
p68
I2
sVballin
p69
I1
sVturns
p70
I1
sV50
p71
I2
sVtalkin
p72
I2
sVleave
p73
I1
sVdouble
p74
I1
sVwent
p75
I1
sVbills
p76
I1
sVround
p77
I1
sVmean
p78
I1
sVbarrels
p79
I1
sVright
p80
I1
sVrestless
p81
I1
sVfives
p82
I1
sVnut
p83
I1
sVcomin
p84
I1
sVback
p85
I1
sVgun
p86
I1
sVgo
p87
I1
sVsee
p88
I4
sVstreet
p89
I1
sVsoldiers
p90
I1
sVhoes
p91
I1
sVill
p92
I5
sVstoppin
p93
I1
sVjeapordize
p94
I1
sVenemies
p95
I1
sVsemen
p96
I1
sVwhat
p97
I3
sVplays
p98
I1
sVprobable
p99
I1
sVskatin
p100
I1
sVhate
p101
I1
sVtimbs
p102
I1
sVshall
p103
I1
sVforty
p104
I1
sVseller
p105
I1
sVweapons
p106
I1
sVreligion
p107
I1
sVoutside
p108
I1
sVit
p109
I2
sVgot
p110
I6
sVlearned
p111
I1
sVcause
p112
I9
sVsurvive
p113
I1
sVcompliment
p114
I1
sVbought
p115
I1
sVass
p116
I2
sVblow
p117
I1
sVchristian
p118
I1
sVlove
p119
I4
sVbreathin
p120
I1
sVask
p121
I1
sVweak
p122
I1
sVmotherfucker
p123
I1
sVoutfit
p124
I1
sVcut
p125
I1
sVclique
p126
I1
sVgunit
p127
I5
sVnews
p128
I1
sVstrong
p129
I1
sVstuntin
p130
I1
sVkitchen
p131
I1
sVbox
p132
I1
sVcop
p133
I3
sVpanels
p134
I1
sVsniff
p135
I1
sVdyin
p136
I1
sVcountry
p137
I1
sVcould
p138
I2
sVput
p139
I2
sVscreamin
p140
I1
sVdice
p141
I1
sVturn
p142
I3
sVcrack
p143
I2
sVblessings
p144
I1
sVrappin
p145
I1
sVact
p146
I1
sVpullin
p147
I1
sVwhole
p148
I1
sVpillow
p149
I1
sVroad
p150
I2
sVthats
p151
I3
sVfeed
p152
I1
sVem
p153
I3
sVmajor
p154
I1
sVpistols
p155
I2
sVtough
p156
I1
sVours
p157
I1
sVfamily
p158
I1
sVpresence
p159
I1
sVwall
p160
I1
sVpussy
p161
I2
sVhurts
p162
I1
sVwonder
p163
I1
sVnumber
p164
I1
sVpop
p165
I1
sVwalk
p166
I1
sVduckin
p167
I1
sVwit
p168
I2
sVdone
p169
I1
sVcent
p170
I1
sVanother
p171
I1
sVtheyd
p172
I1
sVtony
p173
I2
sVrespect
p174
I1
sVsufferin
p175
I1
sVhood
p176
I7
sVwan
p177
I1
sVshells
p178
I1
sVtwenty
p179
I1
sVdaily
p180
I1
sVcomfy
p181
I1
sVlong
p182
I1
sVdreamin
p183
I1
sVreeboks
p184
I1
sVstart
p185
I1
sVpa
p186
I1
sVcall
p187
I2
sVlow
p188
I1
sVhustlin
p189
I1
sVmama
p190
I1
sVm1
p191
I1
sVwhite
p192
I1
sVhundred
p193
I1
sVwar
p194
I1
sVchain
p195
I1
sVlisten
p196
I1
sVhooprock
p197
I1
sVhead
p198
I1
sVshell
p199
I1
sVfemales
p200
I1
sVform
p201
I1
sVbus
p202
I1
sVthousand
p203
I1
sVprison
p204
I1
sVfuck
p205
I2
sVboys
p206
I1
sVpart
p207
I1
sVgame
p208
I2
sVbroke
p209
I1
sVchild
p210
I1
sVcatch
p211
I1
sVcases
p212
I1
sVgangsta
p213
I1
sVyayo
p214
I4
sVtown
p215
I1
sVwide
p216
I1
sVbust
p217
I1
sVtryin
p218
I1
sVma
p219
I1
sVniggas
p220
I7
sVwhether
p221
I1
sVwish
p222
I1
sVsmuggled
p223
I1
sVmtv
p224
I1
sVup
p225
I1
sVus
p226
I1
sVrecord
p227
I1
sVdroppin
p228
I1
sVthree
p229
I1
sVcal
p230
I1
sVcards
p231
I1
sVpiece
p232
I1
sVtrips
p233
I1
sVbet
p234
I1
sVtheres
p235
I1
sVcmon
p236
I1
sVartillery
p237
I1
sVdemon
p238
I1
sVlife
p239
I1
sVtonight
p240
I1
sVmiddle
p241
I1
sVcant
p242
I3
sVfrigerator
p243
I1
sVim
p244
I23
sVstash
p245
I1
sVrap
p246
I1
sVplayin
p247
I1
sVready
p248
I1
sVdoor
p249
I1
sVshit
p250
I3
sVphysical
p251
I1
sVfunny
p252
I1
sVcontest
p253
I1
sVrather
p254
I1
sVpay
p255
I1
sVmake
p256
I1
sVrippin
p257
I1
sVrange
p258
I1
sVniks
p259
I1
sVna
p260
I1
sVtake
p261
I4
sVgrand
p262
I1
sVyou
p263
I2
sVfill
p264
I1
sVcoke
p265
I1
sVnice
p266
I1
sVbitching
p267
I1
sVpicture
p268
I3
sVgat
p269
I1
sVkinds
p270
I1
sVclean
p271
I1
sVcatholic
p272
I1
sVwatch
p273
I1
sVdoin
p274
I1
sVsoda
p275
I1
sVpapa
p276
I1
sVmovin
p277
I1
sVme
p278
I1
sVggggggunit
p279
I1
sVplane
p280
I1
sVnigga
p281
I9
sVmad
p282
I1
sVposition
p283
I1
sVhide
p284
I1
sVda
p285
I1
sVfriends
p286
I1
sVman
p287
I2
sVyeah
p288
I1
sVdummy
p289
I1
sVremix
p290
I2
sVgrams
p291
I1
sVthird
p292
I1
sVmove
p293
I1
sVread
p294
I1
sVbackwards
p295
I1
sVmask
p296
I1
sVhungry
p297
I1
sVnothin
p298
I1
sVor
p299
I1
sVthought
p300
I1
sVcheche
p301
I2
sVtrain
p302
I2
sVlying
p303
I1
sVjunkie
p304
I1
sVtime
p305
I1
sVbanks
p306
I2
sVawake
p307
I1
sVcame
p308
I1
s.