(dp1
Vall
p2
I1
sVcode
p3
I1
sVmexican
p4
I1
sVlyrics
p5
I2
sVskip
p6
I1
sVmove
p7
I1
sVmission
p8
I1
sVyears
p9
I1
sVpops
p10
I1
sVcatch
p11
I1
sVlloyd
p12
I1
sVruger
p13
I1
sVstill
p14
I2
sVfeat
p15
I1
sVbit
p16
I8
sVduck
p17
I1
sVaint
p18
I5
sVminks
p19
I1
sVliters
p20
I1
sVscarface
p21
I1
sVyoung
p22
I1
sVbetter
p23
I1
sVblack
p24
I2
sVniggaz
p25
I1
sVmoney
p26
I1
sVjag
p27
I1
sVgangsta
p28
I1
sVchill
p29
I1
sVcase
p30
I1
sVcoffee
p31
I1
sVyo
p32
I1
sVget
p33
I6
sVya
p34
I4
sVhard
p35
I1
sVdope
p36
I1
sVtaysha
p37
I1
sVsouls
p38
I1
sVwiggle
p39
I1
sVgame
p40
I1
sVknow
p41
I1
sVnew
p42
I3
sVjacob
p43
I1
sVtrouble
p44
I1
sVdreams
p45
I1
sVwont
p46
I1
sVecstacy
p47
I1
sVeverytime
p48
I1
sVskills
p49
I1
sVservin
p50
I1
sV50
p51
I2
sVwodie
p52
I2
sVman
p53
I1
sVserved
p54
I1
sVwent
p55
I2
sVsteal
p56
I1
sVrazor
p57
I1
sVyall
p58
I4
sV745i
p59
I1
sVem
p60
I1
sVnigga
p61
I6
sVold
p62
I1
sVeagle
p63
I1
sVscheme
p64
I1
sVfish
p65
I1
sVcomin
p66
I1
sVborn
p67
I1
sVsee
p68
I1
sVbare
p69
I1
sVus
p70
I1
sVawful
p71
I1
sVnoodles
p72
I1
sVwhip
p73
I1
sVblue
p74
I1
sVgon
p75
I2
sVtakin
p76
I1
sVdesert
p77
I1
sVeverything
p78
I3
sVpen
p79
I1
sVgot
p80
I9
sVhollerin
p81
I1
sVcause
p82
I2
sVmethod
p83
I1
sVwob
p84
I1
sVimpact
p85
I1
sVknew
p86
I1
sVrun
p87
I1
sVshots
p88
I1
sVtags
p89
I1
sVmags
p90
I1
sVclean
p91
I1
sVnever
p92
I1
sVp90
p93
I1
sVdressed
p94
I1
sVcut
p95
I2
sVlet
p96
I1
sVjoe
p97
I1
sVx
I1
sVput
p98
I5
sVmajor
p99
I1
sVkitchen
p100
I2
sVfishin
p101
I1
sVc
I1
sVkids
p102
I1
sVoodles
p103
I1
sVmet
p104
I1
sVjoke
p105
I1
sVscreamin
p106
I1
sVshrimp
p107
I1
sVconnection
p108
I1
sVplus
p109
I1
sVstand
p110
I1
sVlookin
p111
I1
sVswallow
p112
I1
sVdoo
p113
I1
sVthats
p114
I1
sVupgraded
p115
I2
sVnamed
p116
I1
sVbling
p117
I1
sVdont
p118
I4
sVfeel
p119
I1
sVpot
p120
I1
sVpourin
p121
I1
sVlies
p122
I1
sVbitch
p123
I2
sVstrip
p124
I1
sVtony
p125
I1
sVraw
p126
I1
sVcook
p127
I1
sVcocaine
p128
I1
sV22s
p129
I1
sVteach
p130
I1
sVhood
p131
I1
sVwan
p132
I1
sVlittle
p133
I10
sVbeef
p134
I1
sVpeople
p135
I1
sVtwo
p136
I1
sVcent
p137
I1
sVnext
p138
I1
sVcowards
p139
I1
sVcall
p140
I1
sVwomen
p141
I1
sVbrick
p142
I1
sVtryin
p143
I2
sVbubble
p144
I1
sVgrims
p145
I1
sVlisten
p146
I1
sVmurder
p147
I1
sVanythin
p148
I1
sVknows
p149
I1
sVbuck
p150
I1
sVbrand
p151
I1
sVserve
p152
I1
sV39
p153
I1
sVfore
p154
I1
sVneedles
p155
I1
sVho
p156
I1
sVsurvive
p157
I1
sVbaby
p158
I1
sVsun
p159
I1
sVhole
p160
I1
sVtalent
p161
I1
sVloc
p162
I1
sVyayo
p163
I1
sVposted
p164
I1
sVme
p165
I1
sVgrill
p166
I1
sVfiends
p167
I2
sVlaser
p168
I1
sVf
I1
sVcar
p169
I1
sVflip
p170
I1
sVtellin
p171
I1
sVair
p172
I1
sVcoats
p173
I1
sVutp
p174
I2
sVnine
p175
I2
sVpraise
p176
I1
sVlobster
p177
I1
sVmore
p178
I1
sVtheres
p179
I1
sVrag
p180
I1
sVjuvenile
p181
I1
sVtriple
p182
I1
sVgive
p183
I1
sVink
p184
I1
sVfuck
p185
I2
sVsmoke
p186
I1
sVins
p187
I2
sVheard
p188
I1
sVrat
p189
I1
sVshell
p190
I1
sVim
p191
I6
sVstewardess
p192
I1
sVwant
p193
I8
sVin
p194
I1
sVneed
p195
I1
sVfeelin
p196
I1
sVdress
p197
I1
sVshit
p198
I3
sVchase
p199
I1
sVsell
p200
I1
sVmil
p201
I1
sVsellin
p202
I1
sVna
p203
I3
sVmake
p204
I1
sVmoist
p205
I1
sVhot
p206
I2
sVfo
p207
I1
sVparty
p208
I1
sVfill
p209
I1
sVcoke
p210
I3
sVeven
p211
I1
sVplay
p212
I1
sVfinish
p213
I1
sVdro
p214
I2
sVwrists
p215
I1
sVmissin
p216
I1
sVstay
p217
I1
sVouts
p218
I1
sVtec
p219
I1
sVdust
p220
I1
sVcheaper
p221
I1
sVheroine
p222
I1
sVgoin
p223
I1
sVrockaby
p224
I1
sVhows
p225
I1
sVshootin
p226
I1
sVoff
p227
I2
sVneck
p228
I1
sVbeam
p229
I1
sVbottle
p230
I1
sVtime
p231
I1
sVbanks
p232
I1
sVmodel
p233
I1
sVcame
p234
I1
s.