(dp1
Vrepresent
p2
I1
sVset
p3
I2
sVlyrics
p4
I2
sVdeck
p5
I2
sVmove
p6
I1
sVgun
p7
I1
sVsleet
p8
I1
sVfact
p9
I1
sVgang
p10
I1
sVbehind
p11
I2
sVgo
p12
I2
sVsoldiers
p13
I1
sVtempted
p14
I1
sVfeat
p15
I1
sVfind
p16
I4
sVaint
p17
I6
sVninemillis
p18
I1
sVballer
p19
I1
sVchain
p20
I1
sVhead
p21
I1
sVyoung
p22
I1
sVbust
p23
I1
sVbetter
p24
I1
sVbricks
p25
I1
sVpayin
p26
I1
sVcrack
p27
I1
sVcity
p28
I1
sVsound
p29
I1
sVhit
p30
I4
sVaround
p31
I2
sVget
p32
I7
sVya
p33
I5
sVcouple
p34
I1
sVsittin
p35
I1
sVsunny
p36
I1
sVgame
p37
I1
sVhahahahahaha
p38
I1
sVknow
p39
I5
sVcaine
p40
I1
sVday
p41
I1
sVbro
p42
I4
sVchoppa
p43
I1
sVname
p44
I1
sVtear
p45
I1
sValways
p46
I1
sV50
p47
I3
sVleave
p48
I1
sVman
p49
I5
sVsoldiersll
p50
I1
sVem
p51
I4
sVlifted
p52
I1
sVright
p53
I1
sVknock
p54
I1
sVtec
p55
I2
sVback
p56
I5
sVsmackin
p57
I1
sVsee
p58
I3
sVtellin
p59
I1
sVhell
p60
I1
sVplayin
p61
I1
sVstop
p62
I2
sVwhip
p63
I1
sVout
p64
I2
sVaim
p65
I1
sVgon
p66
I2
sVfor
p67
I1
sVhate
p68
I2
sVaway
p69
I1
sVwitnesses
p70
I1
sVpump
p71
I1
sVgot
p72
I2
sVcause
p73
I6
sVadvice
p74
I1
sVass
p75
I1
sVslangin
p76
I1
sVrun
p77
I4
sVshots
p78
I1
sVdirt
p79
I1
sVclique
p80
I2
sVput
p81
I1
sVdebt
p82
I2
sVcome
p83
I7
sVstuntin
p84
I1
sVcop
p85
I2
sVknowin
p86
I1
sVill
p87
I2
sVglocks
p88
I1
sVkeep
p89
I2
sVchilly
p90
I1
sVadmit
p91
I1
sVswear
p92
I1
sVwhole
p93
I1
sVfuckin
p94
I4
sVthats
p95
I4
sVfake
p96
I1
sVlove
p97
I7
sVdont
p98
I3
sVsimple
p99
I1
sVcrib
p100
I1
sVwalk
p101
I2
sVdown
p102
I2
sVgunit
p103
I6
sVpop
p104
I1
sVwit
p105
I4
sVcent
p106
I3
sVanother
p107
I1
sVstrip
p108
I1
sVpivot
p109
I1
sVgrinin
p110
I1
sVhood
p111
I1
sVplatinum
p112
I1
sVstrapped
p113
I1
sVshells
p114
I1
sVyouse
p115
I2
sVtwo
p116
I1
sVlong
p117
I1
sVstart
p118
I1
sVlive
p119
I1
sVcall
p120
I1
sVchange
p121
I1
sVblow
p122
I1
sVspinnin
p123
I1
sVkid
p124
I1
sVpopped
p125
I2
sVbuck
p126
I1
sVbrains
p127
I1
sVnobody
p128
I1
sVcops
p129
I1
sVfinished
p130
I1
sVhear
p131
I3
sVbringin
p132
I1
sVline
p133
I2
sVsqueeze
p134
I1
sVme
p135
I2
sVmade
p136
I1
sVmiddle
p137
I1
sVdumpin
p138
I1
sVniggas
p139
I5
sVwet
p140
I2
sVwork
p141
I1
sVup
p142
I1
sVrida
p143
I2
sVclips
p144
I1
sVutp
p145
I5
sVgrimey
p146
I2
sViron
p147
I2
sVbucked
p148
I1
sVgunfire
p149
I2
sVconnect
p150
I2
sVjuvenile
p151
I1
sVoutta
p152
I1
sVit
p153
I2
sVheard
p154
I1
sVcant
p155
I5
sVim
p156
I7
sVat
p157
I1
sVhound
p158
I2
sVshit
p159
I3
sVtwentyinches
p160
I1
sVholla
p161
I1
sVus
p162
I2
sVpay
p163
I1
sVthat
p164
I1
sVsnow
p165
I1
sVgats
p166
I1
sVchest
p167
I1
sVmotherfuckin
p168
I1
sVhangin
p169
I1
sVmayn
p170
I21
sVthough
p171
I2
sVwatch
p172
I1
sVdoin
p173
I1
sVima
p174
I1
sVrain
p175
I1
sVstay
p176
I3
sVtalk
p177
I1
sVtown
p178
I1
sVmac
p179
I2
sVsaid
p180
I1
sVblood
p181
I2
sVfo
p182
I1
sVtrippin
p183
I1
sVwell
p184
I2
sVbustin
p185
I1
sVthangs
p186
I2
sVblock
p187
I2
sVlaid
p188
I2
sVunderstand
p189
I1
sVcame
p190
I1
s.