(dp1
Vshot
p2
I3
sVhelp
p3
I1
sVlyrics
p4
I2
sVmoney
p5
I3
sVfour
p6
I2
sVbring
p7
I1
sVpaper
p8
I2
sVdough
p9
I1
sVva
p10
I1
sVfind
p11
I2
sVhustler
p12
I1
sVaint
p13
I2
sVnow
p14
I1
sVgold
p15
I1
sVnines
p16
I1
sVtight
p17
I1
sVcherry
p18
I1
sVease
p19
I1
sVcrack
p20
I1
sVthen
p21
I1
sVgood
p22
I2
sVaround
p23
I3
sVget
p24
I2
sVya
p25
I2
sVbig
p26
I1
sVfeelin
p27
I1
sVknow
p28
I7
sVwords
p29
I1
sVgot
p30
I5
sVfront
p31
I1
sVone
p32
I1
sVminute
p33
I1
sVmixtapes
p34
I2
sVwont
p35
I1
sVlike
p36
I3
sVdid
p37
I1
sVturns
p38
I1
sVdrop
p39
I4
sV50
p40
I5
sVtry
p41
I1
sVjokes
p42
I1
sVholdin
p43
I1
sVuh
p44
I1
sVaddicted
p45
I1
sVhustle
p46
I1
sVyall
p47
I1
sVmean
p48
I1
sVem
p49
I1
sVnigga
p50
I16
sVhard
p51
I1
sVyeah
p52
I4
sVsled
p53
I1
sVgo
p54
I1
sVsee
p55
I4
sVfull
p56
I1
sVvideo
p57
I1
sVhoes
p58
I1
sVreally
p59
I1
sVsaid
p60
I1
sVgod
p61
I1
sVwoo
p62
I1
sVra
p63
I2
sVit
p64
I1
sVnew
p65
I5
sVever
p66
I1
sVguns
p67
I1
sVred
p68
I1
sVbought
p69
I1
sVends
p70
I1
sVmen
p71
I1
sVrun
p72
I2
sVchins
p73
I1
sVtops
p74
I1
sVsold
p75
I1
sVmillion
p76
I2
sVdrew
p77
I1
sVyousta
p78
I1
sVlet
p79
I1
sVyork
p80
I2
sVtrunk
p81
I1
sVgunit
p82
I1
sVbuy
p83
I1
sVwanted
p84
I3
sVcome
p85
I1
sVcory
p86
I1
sVchange
p87
I1
sVsayin
p88
I2
sVc
I3
sVhooptie
p89
I2
sVzone
p90
I1
sVoh
p91
I2
sVcountry
p92
I2
sVcould
p93
I1
sVmonths
p94
I1
sVput
p95
I1
sVturn
p96
I1
sVgames
p97
I1
sVdro
p98
I2
sVboo
p99
I1
sVwheels
p100
I1
sVchanges
p101
I1
sVthink
p102
I1
sVlove
p103
I1
sVdont
p104
I9
sVgone
p105
I1
sVfeel
p106
I1
sVcrib
p107
I2
sVwalk
p108
I1
sVhappenin
p109
I1
sVright
p110
I2
sVcomin
p111
I2
sVmiss
p112
I1
sVhood
p113
I1
sVcity
p114
I2
sVuse
p115
I1
sVthang
p116
I2
sVcent
p117
I3
sVclappin
p118
I1
sVmuch
p119
I1
sVcall
p120
I1
sVlow
p121
I1
sVlot
p122
I1
sV6
I1
sVdamn
p123
I1
sVcycle
p124
I1
sVempty
p125
I1
sVlived
p126
I1
sVdoor
p127
I1
sVthat
p128
I2
sVstarted
p129
I1
sVbitches
p130
I1
sVhaha
p131
I1
sVtook
p132
I1
sVback
p133
I6
sVstuntin
p134
I1
sVboys
p135
I1
sVgettin
p136
I1
sVcatch
p137
I2
sVhold
p138
I1
sVpeeped
p139
I1
sVhigh
p140
I1
sVfifths
p141
I1
sVlook
p142
I2
sVniggas
p143
I4
sV19
p144
I1
sVsay
p145
I4
sVus
p146
I1
sVtrick
p147
I1
sVtoday
p148
I1
sVstarts
p149
I1
sVive
p150
I1
sVrap
p151
I1
sVwasnt
p152
I1
sVbenz
p153
I1
sVmine
p154
I1
sVtwist
p155
I1
sVcant
p156
I2
sVsometime
p157
I1
sVim
p158
I12
sVwant
p159
I1
sVready
p160
I4
sVshit
p161
I8
sVagain
p162
I1
sVsit
p163
I1
sVna
p164
I1
sVmake
p165
I2
sVrackin
p166
I1
sValso
p167
I1
sVhot
p168
I1
sVstrange
p169
I1
sVtake
p170
I2
sVpumpin
p171
I1
sVwaitin
p172
I1
sVplay
p173
I1
sVsure
p174
I1
sVtried
p175
I1
sVquote
p176
I1
sVdoin
p177
I1
sVspot
p178
I2
sVpaid
p179
I1
sVgon
p180
I1
sVnever
p181
I1
sVcutmaster
p182
I2
sVfriends
p183
I1
sVkid
p184
I1
sVsomethin
p185
I7
sVolder
p186
I1
sVdog
p187
I1
sVnothin
p188
I3
sVfact
p189
I1
sVsl
p190
I1
sVbrew
p191
I1
sVmenace
p192
I1
sVnah
p193
I1
sVcame
p194
I1
sVleft
p195
I1
s.