(dp1
Vgully
p2
I1
sVlyrics
p3
I2
sVshow
p4
I4
sVdance
p5
I3
sVmove
p6
I4
sVrollin
p7
I1
sVpaper
p8
I1
sVdough
p9
I1
sVdaylight
p10
I1
sVshake
p11
I12
sVgo
p12
I9
sVaint
p13
I7
sVlit
p14
I1
sVchain
p15
I1
sVthang
p16
I4
sVlets
p17
I4
sVthump
p18
I1
sVsent
p19
I1
sVgood
p20
I1
sVget
p21
I5
sVya
p22
I10
sVdope
p23
I1
sVwatch
p24
I1
sVda
p25
I1
sVbreak
p26
I1
sVnext
p27
I1
sVknow
p28
I4
sVhands
p29
I2
sVfront
p30
I2
sVghetto
p31
I1
sVwont
p32
I1
sVhollerin
p33
I1
sVlike
p34
I5
sVbrain
p35
I1
sVtear
p36
I1
sVlevel
p37
I1
sV50
p38
I2
sVdisco
p39
I3
sVstupid
p40
I1
sVholdin
p41
I1
sVuuuhhh
p42
I1
sVyall
p43
I1
sVsho
p44
I1
sVem
p45
I1
sVnigga
p46
I3
sVsnakes
p47
I1
sVbentley
p48
I1
sVhouse
p49
I1
sVback
p50
I4
sVbounce
p51
I3
sVflip
p52
I1
sVjump
p53
I1
sVsee
p54
I3
sVshinin
p55
I1
sVassss
p56
I1
sVplayin
p57
I1
sVgirl
p58
I5
sVfinna
p59
I1
sVgon
p60
I1
sVgrindin
p61
I1
sVoutside
p62
I1
sVdiamonds
p63
I1
sVnew
p64
I1
sVchampagne
p65
I1
sVass
p66
I4
sVattention
p67
I1
sVright
p68
I1
sVspot
p69
I1
sVburn
p70
I1
sVhere
p71
I1
sVtoed
p72
I1
sVdrums
p73
I1
sVput
p74
I5
sVteach
p75
I1
sVstay
p76
I1
sVcome
p77
I1
sVboy
p78
I1
sVabout
p79
I1
sVok
p80
I1
sVahead
p81
I4
sVoh
p82
I1
sVsicker
p83
I1
sVturn
p84
I1
sVstand
p85
I1
sVdre
p86
I2
sVloco
p87
I1
sValready
p88
I1
sVwhats
p89
I1
sVdont
p90
I2
sVgunit
p91
I1
sVwit
p92
I4
sVbitch
p93
I1
sVcarry
p94
I1
sVsounds
p95
I1
sVuhhuh
p96
I1
sVhood
p97
I1
sVcris
p98
I1
sVeverybody
p99
I3
sVlittle
p100
I2
sVcrunk
p101
I1
sV2step
p102
I1
sVcent
p103
I1
sVcoupe
p104
I1
sVstart
p105
I1
sVdrank
p106
I1
sVmama
p107
I4
sVswitchin
p108
I1
sVinferno
p109
I3
sVtryin
p110
I1
sVwhoa
p111
I1
sVlisten
p112
I1
sVswoopin
p113
I1
sVlanes
p114
I1
sVpimpin
p115
I1
sVon
p116
I1
sVclub
p117
I2
sVshorty
p118
I1
sVyeah
p119
I1
sVrockin
p120
I1
sVcatch
p121
I1
sVtrue
p122
I1
sVme
p123
I1
sVlook
p124
I1
sVerotic
p125
I1
sVthis
p126
I2
sVembeded
p127
I1
sVup
p128
I2
sVgrimey
p129
I1
sVflow
p130
I1
sVpro
p131
I1
sVbenz
p132
I1
sVit
p133
I12
sVtwist
p134
I1
sVhomie
p135
I2
sVim
p136
I11
sVnothin
p137
I6
sVmoves
p138
I1
sVshit
p139
I1
sVsip
p140
I1
sVfloor
p141
I2
sVlil
p142
I7
sVpay
p143
I1
sVmake
p144
I1
sVtil
p145
I1
sVmix
p146
I1
sVhot
p147
I1
sVparty
p148
I2
sVsnubs
p149
I1
sVgreenery
p150
I1
sVdubs
p151
I1
sVhennessy
p152
I1
sVperignon
p153
I1
sVfo
p154
I1
sVgutter
p155
I1
sVquicker
p156
I1
sVdoc
p157
I1
sVwell
p158
I1
sVhypnotic
p159
I1
sVoooohh
p160
I1
sVu
I1
sVna
p161
I1
sVserious
p162
I1
sVnotch
p163
I1
sVhips
p164
I1
s.