(dp1
Vlyrics
p2
I2
sVmoney
p3
I1
sVskis
p4
I1
sVpaul
p5
I1
sVhustler
p6
I1
sVaint
p7
I1
sVthinking
p8
I7
sVlets
p9
I1
sVbout
p10
I4
sVeaster
p11
I1
sVbrown
p12
I1
sVgood
p13
I1
sVget
p14
I1
sVme
p15
I9
sVfrontin
p16
I1
sVevery
p17
I2
sVknow
p18
I2
sVbit
p19
I11
sVbread
p20
I1
sVlike
p21
I3
sVlost
p22
I1
sV50
p23
I1
sVleave
p24
I1
sVslide
p25
I1
sVlisa
p26
I1
sVround
p27
I1
sVsneaker
p28
I1
sVbentley
p29
I1
sVreefer
p30
I1
sVpast
p31
I1
sVfinish
p32
I1
sVlobster
p33
I1
sVex
p34
I1
sVrun
p35
I1
sVgirl
p36
I3
sVspecial
p37
I1
sVeven
p38
I1
sVgod
p39
I2
sVaway
p40
I2
sVshipment
p41
I1
sVgot
p42
I1
sVracing
p43
I1
sVacross
p44
I2
sVhustle
p45
I1
sVblow
p46
I1
sVeating
p47
I2
sVleg
p48
I1
sVboss
p49
I1
sVbecome
p50
I1
sVput
p51
I1
sVcome
p52
I1
sVstuntin
p53
I1
sVcare
p54
I1
sVshine
p55
I1
sVcartney
p56
I1
sVher
p57
I2
sVmona
p58
I1
sVminds
p59
I1
sVkeep
p60
I1
sVfell
p61
I1
sVhead
p62
I1
sVthink
p63
I15
sVthats
p64
I3
sValready
p65
I1
sVlove
p66
I2
sVdont
p67
I2
sVcommitment
p68
I1
sVone
p69
I1
sVbitch
p70
I2
sVwan
p71
I2
sVjet
p72
I1
sVsprees
p73
I1
sVsupport
p74
I1
sVporsche
p75
I1
sVcent
p76
I1
sVstuck
p77
I1
sVlive
p78
I1
sVmuch
p79
I1
sVdamn
p80
I3
sVway
p81
I1
sVlegs
p82
I1
sVfriend
p83
I1
sVwants
p84
I1
sVkeyshia
p85
I1
sVshoulders
p86
I1
sVshopping
p87
I1
sVrelationship
p88
I1
sVhuh
p89
I1
sVshorty
p90
I1
sVfuck
p91
I2
sVpart
p92
I1
sVchild
p93
I1
sVline
p94
I1
sVfly
p95
I1
sVmc
p96
I1
sVride
p97
I1
sVcash
p98
I1
sVbeemer
p99
I1
sVfuture
p100
I1
sVms
p101
I1
sVthen
p102
I2
sVmind
p103
I1
sVmine
p104
I1
sVhigh
p105
I1
sVcomfortably
p106
I1
sVim
p107
I8
sVwant
p108
I3
sVdress
p109
I1
sVshit
p110
I3
sVcourt
p111
I1
sVlil
p112
I11
sVpay
p113
I1
sVtake
p114
I2
sVpizza
p115
I1
sVused
p116
I4
sVstay
p117
I1
sVvisa
p118
I1
sVfucked
p119
I1
sVfriends
p120
I4
sVkid
p121
I1
sVoff
p122
I1
sVwalked
p123
I1
sVexs
p124
I1
sVna
p125
I2
sVoverseas
p126
I1
s.