(dp1
Vthink
p2
I1
sVshot
p3
I1
sVlace
p4
I1
sVlyrics
p5
I2
sVshow
p6
I1
sVsound
p7
I1
sVfall
p8
I1
sVworms
p9
I1
sVviolent
p10
I1
sVsummin
p11
I1
sVgo
p12
I1
sVlove
p13
I3
sVloccin
p14
I1
sVstill
p15
I1
sVaint
p16
I3
sVcut
p17
I1
sVdice
p18
I1
sVjay
p19
I1
sVbeyonce
p20
I1
sVnose
p21
I1
sVbetter
p22
I1
sVtrina
p23
I1
sVwayne
p24
I1
sVblack
p25
I2
sVeasy
p26
I1
sVgerms
p27
I1
sVmight
p28
I1
sVhoudini
p29
I1
sVtake
p30
I1
sVdo
p31
I2
sVgood
p32
I1
sVbaggin
p33
I2
sVget
p34
I1
sVbeat
p35
I1
sVpuffy
p36
I1
sVstop
p37
I1
sVjeezy
p38
I1
sVparry
p39
I1
sVgame
p40
I1
sVfrontin
p41
I1
sVknow
p42
I2
sVfam
p43
I1
sVbullshit
p44
I1
sVlike
p45
I3
sVfully
p46
I14
sVdrop
p47
I1
sV50
p48
I1
sVp
I1
sVbps
p49
I1
sVhighspeed
p50
I1
sVdopeman
p51
I1
sVrock
p52
I1
sVtold
p53
I1
sVround
p54
I1
sVcandi
p55
I1
sVinsane
p56
I1
sVnigga
p57
I8
sVyeah
p58
I1
sVsee
p59
I4
sVshinin
p60
I2
sVus
p61
I1
sVplayin
p62
I3
sVjewl
p63
I1
sVappear
p64
I1
sV3rd
p65
I1
sVdirt
p66
I1
sVcooperation
p67
I1
sVwillin
p68
I1
sVgot
p69
I17
sVhold
p70
I1
sVpistol
p71
I1
sVmovement
p72
I1
sVass
p73
I2
sVgoti
p74
I6
sVjanet
p75
I1
sVrims
p76
I1
sVburn
p77
I3
sVkelis
p78
I1
sVhere
p79
I1
sVmayne
p80
I1
sVgit
p81
I1
sVlet
p82
I2
sVask
p83
I1
sVkitchen
p84
I3
sVbox
p85
I1
sVbuck
p86
I1
sVrunnin
p87
I2
sVput
p88
I4
sVscreamin
p89
I1
sVturn
p90
I1
sVgames
p91
I1
sVsmoke
p92
I1
sVboo
p93
I3
sVchain
p94
I1
sVhead
p95
I3
sVsayin
p96
I1
sVthats
p97
I2
sVheater
p98
I1
sVwhats
p99
I3
sVdont
p100
I1
sVone
p101
I5
sVtill
p102
I1
sVright
p103
I1
sVbitch
p104
I1
sVanother
p105
I1
sVloaded
p106
I14
sVring
p107
I1
sVhood
p108
I2
sVps
p109
I1
sVlittle
p110
I1
sVthree
p111
I1
sVgive
p112
I1
sVhollowtips
p113
I1
sVcent
p114
I1
sVtoo
p115
I1
sVcookin
p116
I1
sVback
p117
I1
sVtryna
p118
I1
sVpopped
p119
I1
sVglock
p120
I1
sVlanes
p121
I1
sVthat
p122
I1
sVfire
p123
I2
sVthousand
p124
I3
sVfore
p125
I1
sVit
p126
I1
sVcops
p127
I1
sVhear
p128
I1
sVbaby
p129
I1
sVbelieve
p130
I1
sVme
p131
I1
sVgrill
p132
I1
sVhearin
p133
I1
sVlook
p134
I1
sVfull
p135
I1
sV16
p136
I2
sVmm
p137
I6
sVup
p138
I3
sVtellin
p139
I3
sVrugger
p140
I1
sVnine
p141
I2
sVkissin
p142
I3
sVcam
p143
I1
sVlearn
p144
I2
sVknocked
p145
I1
sVproblem
p146
I2
sVchuckas
p147
I1
sVbet
p148
I1
sVrap
p149
I1
sVclip
p150
I16
sVjermaine
p151
I1
sVfuck
p152
I2
sVsay
p153
I1
sVkeysha
p154
I1
sVim
p155
I11
sVnumbers
p156
I1
sVwant
p157
I1
sVneed
p158
I1
sVstomach
p159
I1
sVgittin
p160
I1
sVshit
p161
I6
sVholla
p162
I2
sVthing
p163
I1
sVtil
p164
I1
sVnas
p165
I1
sVhenny
p166
I1
sVdisappear
p167
I1
sVgrand
p168
I1
sVtest
p169
I1
sVswitching
p170
I1
sVsure
p171
I1
sVwatch
p172
I1
sVdoin
p173
I1
sVweed
p174
I1
sVbrooklyn
p175
I1
sVfell
p176
I1
sVbullets
p177
I1
sVrepeat
p178
I1
sVman
p179
I1
sVlane
p180
I1
sVgrams
p181
I3
sVdre
p182
I1
sVrollin
p183
I1
sVmotherfuckers
p184
I1
sVferrari
p185
I1
sVflame
p186
I1
sVfresh
p187
I1
sVbarrel
p188
I1
sVgrowlin
p189
I1
s.