(dp1
Vdiss
p2
I2
sVlyrics
p3
I2
sVmoney
p4
I1
sVcheddar
p5
I1
sVanyway
p6
I1
sVboobity
p7
I1
sVgo
p8
I2
sVcold
p9
I1
sVworship
p10
I1
sVground
p11
I1
sVaint
p12
I2
sVstyle
p13
I1
sVha
p14
I7
sVbendin
p15
I1
sVjay
p16
I1
sVsend
p17
I1
sVbetter
p18
I4
sVblack
p19
I3
sVdemoted
p20
I1
sVohhh
p21
I1
sVross
p22
I1
sVcustomers
p23
I1
sVgood
p24
I1
sVhit
p25
I1
sVyo
p26
I1
sVget
p27
I2
sVya
p28
I2
sVcould
p29
I1
sVbein
p30
I1
sVcamron
p31
I2
sVjoint
p32
I1
sVgame
p33
I1
sVcapo
p34
I1
sVfan
p35
I2
sVknow
p36
I2
sVcameron
p37
I1
sVsouthside
p38
I1
sVhim
p39
I1
sVlook
p40
I1
sVlike
p41
I4
sVcooler
p42
I2
sVcause
p43
I3
sVdig
p44
I1
sV50
p45
I2
sVman
p46
I4
sVhustle
p47
I1
sVmean
p48
I1
sVpase
p49
I1
sVnigga
p50
I1
sVeverythings
p51
I2
sVyeah
p52
I1
sVdead
p53
I1
sVfold
p54
I1
sVsee
p55
I2
sVstreet
p56
I1
sVsight
p57
I1
sVyear
p58
I1
sVcomputers
p59
I1
sVhappen
p60
I1
sVout
p61
I2
sVhappens
p62
I1
sVlennox
p63
I1
sVgon
p64
I1
sVentertainment
p65
I1
sVaway
p66
I1
sVapply
p67
I1
sVricky
p68
I1
sVmags
p69
I1
sVgot
p70
I3
sVsabotage
p71
I1
sVzipped
p72
I1
sVicu
p73
I2
sVtold
p74
I1
sVbe
p75
I1
sVbusiness
p76
I1
sVleg
p77
I1
sVrolled
p78
I2
sVfuneral
p79
I2
sVnever
p80
I1
sVprobation
p81
I1
sVboss
p82
I2
sVpressure
p83
I1
sVtracks
p84
I1
sVentertain
p85
I1
sVlaughin
p86
I1
sVcome
p87
I2
sVbuck
p88
I1
sVok
p89
I2
sVjimmys
p90
I1
sVcareer
p91
I1
sVill
p92
I2
sVhes
p93
I8
sVsoldier
p94
I1
sVeatin
p95
I1
sVstabbin
p96
I1
sVchanges
p97
I1
sVthink
p98
I2
sVfuckin
p99
I1
sVthats
p100
I2
sVlaxed
p101
I1
sVliked
p102
I1
sVjimmy
p103
I2
sVwhats
p104
I1
sVdont
p105
I5
sVwalk
p106
I2
sVright
p107
I1
sVdone
p108
I1
sVlong
p109
I2
sVtrained
p110
I1
sVchubby
p111
I1
sVtrust
p112
I1
sVballin
p113
I1
sVfacin
p114
I1
sVwan
p115
I1
sVsecond
p116
I1
sVflatline
p117
I2
sVcent
p118
I1
sVlive
p119
I1
sVcamera
p120
I1
sVmusic
p121
I3
sVkingpin
p122
I1
sVway
p123
I1
sVcall
p124
I2
sVtryin
p125
I3
sVmurder
p126
I2
sVgraveyard
p127
I1
sVon
p128
I5
sVattempted
p129
I1
sVboogity
p130
I1
sVback
p131
I1
sVboys
p132
I1
sVfinished
p133
I1
sVcomputin
p134
I1
sVhear
p135
I3
sVcompetition
p136
I1
sVlast
p137
I1
sVhold
p138
I3
sVhaitian
p139
I1
sVmust
p140
I1
sVword
p141
I1
sVroom
p142
I2
sVniggas
p143
I9
sVup
p144
I1
sVhahahahahaha
p145
I1
sVcam
p146
I6
sVlearn
p147
I1
sVta
p148
I1
sV50s
p149
I1
sVsak
p150
I1
sVgone
p151
I8
sVpound
p152
I1
sVah
p153
I3
sVmind
p154
I2
sVit
p155
I1
sVcrossover
p156
I1
sVheard
p157
I1
sVsay
p158
I4
sVim
p159
I4
sVreturn
p160
I1
sVohhhh
p161
I1
sVfame
p162
I1
sVshit
p163
I1
sVjuelz
p164
I1
sVbags
p165
I1
sVsippin
p166
I1
sVzoe
p167
I1
sVna
p168
I2
sVmake
p169
I4
sVmills
p170
I1
sV40
p171
I1
sVtill
p172
I5
sVhot
p173
I1
sVhenny
p174
I1
sVdestroy
p175
I1
sVdipset
p176
I3
sVnice
p177
I1
sVwaitin
p178
I4
sVplay
p179
I1
sVshouldnt
p180
I1
sVlawyers
p181
I1
sVknew
p182
I1
sVeighty
p183
I1
sVstay
p184
I2
sVblood
p185
I1
sVfucked
p186
I1
sVkid
p187
I1
sVforever
p188
I1
sVcams
p189
I1
sVdoc
p190
I2
sVclear
p191
I2
sVwell
p192
I1
sVbustin
p193
I1
sVnothin
p194
I1
sVthought
p195
I1
sVflags
p196
I1
sVcalll
p197
I1
sVtalk
p198
I4
sVendin
p199
I1
s.