(dp1
Vugk
p2
I1
sVexclusive
p3
I1
sVunica
p4
I1
sVlyrics
p5
I2
sVmoney
p6
I3
sVanyway
p7
I1
sVfoul
p8
I1
sVpaper
p9
I1
sVdough
p10
I1
sVpump
p11
I1
sVgo
p12
I1
sVhell
p13
I1
sVfeat
p14
I1
sVfind
p15
I1
sVaint
p16
I3
sVorleans
p17
I1
sVstyle
p18
I1
sVhold
p19
I1
sVseems
p20
I1
sVyoung
p21
I1
sVleavin
p22
I1
sVbetter
p23
I1
sVlets
p24
I1
sVbike
p25
I1
sVinnocent
p26
I1
sVbout
p27
I1
sVhennessey
p28
I1
sVtake
p29
I1
sVrunnin
p30
I1
sVhit
p31
I1
sVaround
p32
I1
sVget
p33
I7
sVbeat
p34
I1
sVcouple
p35
I1
sVsittin
p36
I1
sVstop
p37
I1
sVtrees
p38
I1
sVbaton
p39
I1
sVbreak
p40
I1
sVgame
p41
I1
sVones
p42
I1
sVbitch
p43
I1
sVwhatever
p44
I3
sVmom
p45
I1
sVgot
p46
I4
sVfoot
p47
I1
sVreap
p48
I1
sVschool
p49
I1
sVlike
p50
I2
sVgreens
p51
I1
sVcause
p52
I3
sVjukin
p53
I1
sVdrop
p54
I1
sV50
p55
I3
sVgum
p56
I1
sVgus
p57
I1
sVyorker
p58
I1
sVfound
p59
I1
sV85
p60
I1
sVcornbread
p61
I1
sVyall
p62
I2
sVlouie
p63
I1
sVem
p64
I7
sVright
p65
I3
sVforce
p66
I1
sVpaid
p67
I1
sVheated
p68
I1
sVyeah
p69
I4
sVwidened
p70
I1
sVsee
p71
I2
sVfinish
p72
I1
sVtalker
p73
I2
sVhoes
p74
I1
sVproper
p75
I1
sVclose
p76
I2
sVout
p77
I2
sVgon
p78
I3
sVevenin
p79
I1
sVspeed
p80
I1
sVslick
p81
I1
sVstayin
p82
I1
sVwoo
p83
I1
sVnew
p84
I4
sVpistol
p85
I1
sVever
p86
I3
sVbird
p87
I1
sVtold
p88
I2
sVass
p89
I2
sVblow
p90
I1
sVshots
p91
I1
sVlettin
p92
I1
sVnever
p93
I1
sVhours
p94
I2
sVlet
p95
I1
sVyork
p96
I2
sVput
p97
I2
sV100
p98
I1
sVcome
p99
I4
sVstuntin
p100
I1
sVcookin
p101
I1
sVbuck
p102
I1
sVlast
p103
I1
sVbouncin
p104
I1
sVwherever
p105
I1
sVequal
p106
I1
sVkeep
p107
I1
sVthing
p108
I1
sVchumped
p109
I1
sVsmoke
p110
I1
sVbond
p111
I1
sVfuckin
p112
I1
sVsmokin
p113
I2
sValready
p114
I1
sVdont
p115
I2
sVsimple
p116
I1
sVpop
p117
I1
sVdown
p118
I2
sVgunit
p119
I3
sVnigga
p120
I11
sVdone
p121
I1
sV65
p122
I1
sVcomin
p123
I1
sVgutcha
p124
I1
sVrespect
p125
I1
sVcouldnt
p126
I1
sV22s
p127
I1
sVspeak
p128
I1
sVfutcher
p129
I1
sVtakes
p130
I1
sVbeef
p131
I1
sVstrictly
p132
I1
sVcollard
p133
I1
sVcent
p134
I2
sVmuch
p135
I1
sVcall
p136
I2
sVlow
p137
I1
sVlot
p138
I2
sVgrimy
p139
I1
sVrockin
p140
I1
sVwhite
p141
I1
sVfo
p142
I1
sVhead
p143
I1
sVglock
p144
I1
sVsummertime
p145
I1
sVthat
p146
I1
sVcoke
p147
I1
sVhuh
p148
I2
sVback
p149
I2
sVcops
p150
I2
sVgettin
p151
I1
sVbun
p152
I1
sVdeep
p153
I1
sVcuttin
p154
I1
sVcatch
p155
I1
sVprobably
p156
I1
sVhaters
p157
I1
sV95
p158
I1
sVme
p159
I3
sV10
p160
I1
sVb
I1
sVlocked
p161
I1
sVlook
p162
I1
sVniggas
p163
I4
sVhomey
p164
I2
sVus
p165
I3
sVair
p166
I1
sVutp
p167
I3
sVuh
p168
I2
sVpumped
p169
I5
sVwild
p170
I1
sVsituation
p171
I1
sVproblem
p172
I1
sVpiece
p173
I2
sVdidnt
p174
I1
sVguide
p175
I1
sVcolumbian
p176
I1
sVpound
p177
I1
sVfigure
p178
I1
sVcourvoisier
p179
I1
sVwasnt
p180
I1
sVmessages
p181
I1
sVyear
p182
I1
sVbros
p183
I1
sVchoke
p184
I1
sVsay
p185
I2
sVim
p186
I7
sVchump
p187
I1
sVhome
p188
I1
sVpartner
p189
I1
sVsaw
p190
I1
sVcheck
p191
I1
sVshit
p192
I4
sVguarantee
p193
I1
sVholla
p194
I2
sVsippin
p195
I2
sVknow
p196
I4
sVnike
p197
I1
sVna
p198
I3
sVjuan
p199
I1
sVdyke
p200
I1
sVya
p201
I1
sVshakin
p202
I1
sVhos
p203
I1
sVmathematics
p204
I1
sVreally
p205
I1
sVbystander
p206
I1
sVdro
p207
I1
sVthough
p208
I1
sVhaha
p209
I2
sVdoin
p210
I1
sVtime
p211
I4
sVflows
p212
I1
sVweed
p213
I2
sVnecklace
p214
I1
sVlay
p215
I1
sVfucked
p216
I1
sVspeedin
p217
I1
sVv8
p218
I1
sVman
p219
I1
sVa
I1
sVsomethin
p220
I2
sV24
p221
I1
sVe
I1
sVwell
p222
I3
sVbustin
p223
I1
sVtogether
p224
I1
sVthought
p225
I1
sVflippin
p226
I1
sVtech
p227
I1
sVsouth
p228
I1
sVbottle
p229
I1
sVthings
p230
I1
sValright
p231
I2
sVbarrel
p232
I1
sVeverythin
p233
I2
sVtalk
p234
I1
sVleft
p235
I1
s.