(dp1
Vlyrics
p2
I2
sVshow
p3
I13
sVyea
p4
I2
sVdiddy
p5
I1
sVdough
p6
I1
sVsmoking
p7
I1
sVparlay
p8
I8
sVhate
p9
I1
sVaint
p10
I11
sVcut
p11
I1
sVgivin
p12
I1
sVla
p13
I1
sVpray
p14
I1
sVwat
p15
I1
sVfix
p16
I1
sVtwistin
p17
I1
sVdiffrent
p18
I1
sVcuz
p19
I1
sVbetter
p20
I1
sVdance
p21
I1
sV4
I1
sVpretty
p22
I1
sVsweet
p23
I3
sVgangsta
p24
I7
sVworth
p25
I1
sVkick
p26
I1
sVta
p27
I1
sVthen
p28
I1
sVgood
p29
I1
sVhit
p30
I1
sVpremadonna
p31
I1
sVget
p32
I17
sVya
p33
I5
sVstop
p34
I1
sVwoulda
p35
I1
sVlovin
p36
I1
sVbreak
p37
I1
sVfan
p38
I1
sVknow
p39
I5
sVprobably
p40
I1
sVanit
p41
I1
sVnow
p42
I1
sVwont
p43
I8
sVtrippin
p44
I1
sVlike
p45
I8
sVdie
p46
I1
sVgettin
p47
I1
sV50
p48
I1
sVloser
p49
I7
sVroll
p50
I1
sVleave
p51
I1
sVp
I1
sVpaper
p52
I1
sVbussabus
p53
I1
sVman
p54
I1
sVteam
p55
I1
sVmercedes
p56
I1
sVfound
p57
I1
sVside
p58
I1
sVyall
p59
I1
sVnames
p60
I1
sVem
p61
I3
sVbody
p62
I1
sVnigga
p63
I27
sVnuttin
p64
I1
sVjoking
p65
I1
sVl
I1
sVjump
p66
I1
sVsee
p67
I2
sVdawg
p68
I1
sVpalm
p69
I1
sVcandy
p70
I3
sVplayin
p71
I2
sVjokein
p72
I1
sVmovie
p73
I7
sVcha
p74
I3
sVice
p75
I1
sVwoo
p76
I1
sVplaya
p77
I2
sVprada
p78
I1
sVcall
p79
I2
sVgot
p80
I2
sVhooker
p81
I1
sVpistol
p82
I1
sVyoull
p83
I1
sVass
p84
I2
sVima
p85
I2
sVmakeup
p86
I1
sVdolce
p87
I1
sVright
p88
I1
sVquit
p89
I1
sVnever
p90
I8
sVmotherfucker
p91
I1
sVever
p92
I1
sVmet
p93
I1
sVmurdered
p94
I2
sVlips
p95
I1
sVworthy
p96
I1
sVprecious
p97
I1
sVcome
p98
I2
sVshoulda
p99
I1
sVmotherfucka
p100
I1
sVkitchen
p101
I1
sVevery
p102
I1
sVmotherfuckin
p103
I1
sVill
p104
I1
sVpunk
p105
I1
sVchance
p106
I1
sVkeep
p107
I2
sVturn
p108
I1
sVgames
p109
I1
sVact
p110
I1
sVsho
p111
I1
sVwhole
p112
I1
sVthink
p113
I2
sVjersey
p114
I1
sVthats
p115
I3
sVassault
p116
I1
sVlove
p117
I11
sVdont
p118
I5
sVpussy
p119
I3
sVyoud
p120
I7
sVdown
p121
I3
sVwit
p122
I17
sVbitch
p123
I30
sVinsult
p124
I1
sVballin
p125
I1
sVteach
p126
I1
sVhood
p127
I1
sVwan
p128
I3
sVbeef
p129
I1
sVchrome
p130
I1
sVlocin
p131
I1
sVcent
p132
I1
sVclass
p133
I1
sVcali
p134
I1
sVmuch
p135
I3
sVdamn
p136
I1
sVlow
p137
I2
sVlot
p138
I1
sVmean
p139
I1
sVgabbana
p140
I1
sVtryin
p141
I8
sVtell
p142
I1
sVlisten
p143
I1
sVbuy
p144
I1
sVstars
p145
I1
sVholy
p146
I1
sVclub
p147
I14
sVbitches
p148
I3
sVshorty
p149
I2
sVcant
p150
I3
sVit
p151
I2
sVbuyin
p152
I1
sVsaditty
p153
I1
sVeat
p154
I1
sVbud
p155
I1
sVme
p156
I2
sV10
p157
I1
sVparkin
p158
I1
sV15
p159
I1
sVlook
p160
I1
sVwearin
p161
I1
sVniggas
p162
I14
sVride
p163
I1
sVsay
p164
I2
sVus
p165
I8
sVtrick
p166
I1
sVgucci
p167
I1
sVknives
p168
I1
sVthuggin
p169
I1
sVbet
p170
I1
sVgone
p171
I4
sVlick
p172
I1
sVgive
p173
I2
sVblood
p174
I1
sVbenz
p175
I1
sVtub
p176
I1
sVfuck
p177
I3
sVhigh
p178
I2
sVheard
p179
I1
sVfriendsll
p180
I1
sVim
p181
I5
sVnumbers
p182
I1
sVwant
p183
I8
sVhome
p184
I1
sVgirlfriend
p185
I1
sVshit
p186
I26
sVaround
p187
I3
sVholla
p188
I9
sVcrip
p189
I1
sVna
p190
I3
sV2000
p191
I1
sVhow
p192
I1
sVhot
p193
I1
sVcare
p194
I2
sVtake
p195
I2
sVfo
p196
I1
sVtest
p197
I1
sVyou
p198
I19
sVpuppy
p199
I1
sVrider
p200
I1
sVmotherfuckas
p201
I1
sVpicture
p202
I1
sVplay
p203
I1
sVfendi
p204
I1
sVunless
p205
I1
sVwha
p206
I3
sVprice
p207
I1
sVmissin
p208
I1
sVpaid
p209
I1
sVsleep
p210
I1
sVwrong
p211
I2
sVtrees
p212
I1
sVfucked
p213
I1
sVbeth
p214
I1
sVgrow
p215
I1
sVgoin
p216
I2
sVstiches
p217
I1
sVvestes
p218
I1
sVcause
p219
I1
sVthird
p220
I1
sVbangin
p221
I1
sVlater
p222
I3
sVrollin
p223
I1
sVthought
p224
I7
sVbuggin
p225
I1
sVnas
p226
I1
sVpush
p227
I1
sVposition
p228
I1
s.