(dp1
Vdiss
p2
I2
sVbacardi
p3
I1
sVgo
p4
I1
sVfollow
p5
I1
sVhate
p6
I1
sVlistenin
p7
I1
sVcallin
p8
I1
sVcheckin
p9
I1
sVfat
p10
I1
sVcool
p11
I1
sVissue
p12
I1
sVgettin
p13
I1
sVgun
p14
I1
sVtry
p15
I2
sVwastin
p16
I1
sVbe
p17
I1
sVstreets
p18
I3
sVmakers
p19
I1
sVeven
p20
I1
sVdeeply
p21
I1
sVfucks
p22
I1
sVcell
p23
I1
sVplaya
p24
I1
sVever
p25
I2
sVpublic
p26
I1
sVfucka
p27
I1
sVbody
p28
I1
sVscreams
p29
I1
sVnever
p30
I5
sVeminem
p31
I1
sVlet
p32
I4
sVaddress
p33
I1
sVgunit
p34
I1
sVaftermath
p35
I1
sV106
p36
I1
sVfantasies
p37
I1
sVgreat
p38
I1
sVkids
p39
I1
sVdef
p40
I1
sVbob
p41
I1
sVcountin
p42
I1
sVthats
p43
I1
sVholmes
p44
I1
sVnamed
p45
I1
sVmanage
p46
I1
sVstrap
p47
I1
sVnames
p48
I1
sVfake
p49
I2
sVspoke
p50
I1
sVwould
p51
I3
sVhospital
p52
I1
sVbundles
p53
I1
sVflabby
p54
I1
sVnext
p55
I2
sVlive
p56
I1
sVactin
p57
I1
sVtell
p58
I1
sVmore
p59
I1
sVhaha
p60
I1
sVproblem
p61
I1
sVtrain
p62
I1
sVlosin
p63
I1
sVme
p64
I9
sVlocked
p65
I1
sVwearin
p66
I1
sVthis
p67
I1
sVrecall
p68
I1
sVride
p69
I2
sVniggaz
p70
I6
sVsudden
p71
I1
sVnine
p72
I1
sVsucka
p73
I1
sVcrazy
p74
I3
sVcorrupted
p75
I1
sVgive
p76
I1
sVfuck
p77
I2
sVaccept
p78
I1
sVwant
p79
I4
sVtah
p80
I1
sVsip
p81
I2
sVhow
p82
I1
sVreject
p83
I1
sVreestablish
p84
I1
sVproduct
p85
I1
sVshouldnt
p86
I1
sVstop
p87
I2
sVmad
p88
I1
sVman
p89
I6
sVrealized
p90
I1
sVshady
p91
I3
sVjail
p92
I1
sVdeposit
p93
I1
sVinvolvin
p94
I1
sVmake
p95
I1
sVviolator
p96
I2
sVbrain
p97
I1
sVhell
p98
I2
sVstill
p99
I2
sVima
p100
I3
sVshotty
p101
I1
sVla
p102
I8
sVpray
p103
I1
sVtruest
p104
I1
sVsomebody
p105
I1
sVyo
p106
I7
sVweakness
p107
I1
sVbein
p108
I1
sVfeelin
p109
I2
sVrecords
p110
I1
sVpayback
p111
I1
sVnow
p112
I3
sVrealize
p113
I1
sVaddicted
p114
I1
sVhard
p115
I1
sVball
p116
I1
sVbusta
p117
I1
sVwitness
p118
I1
sVout
p119
I1
sVgon
p120
I2
sVpussies
p121
I1
sVgod
p122
I1
sVgot
p123
I6
sVcause
p124
I1
sVsalute
p125
I1
sVass
p126
I4
sVadvance
p127
I1
sVpunk
p128
I1
sVtwentyone
p129
I1
sVyall
p130
I1
sVshootin
p131
I2
sVthink
p132
I2
sVfuckin
p133
I3
sVcheese
p134
I1
sVdont
p135
I2
sVfeel
p136
I1
sVone
p137
I2
sVhook
p138
I1
sVdone
p139
I4
sVbitch
p140
I8
sVcomin
p141
I2
sVballin
p142
I1
sVloudmouths
p143
I1
sVstart
p144
I1
sVreppin
p145
I1
sVdumbass
p146
I1
sVmama
p147
I1
sVmurder
p148
I1
sVthat
p149
I1
sVpark
p150
I1
sVtook
p151
I2
sVgotti
p152
I2
sV12
p153
I1
sVand
p154
I1
sVbitchez
p155
I1
sVpenitentiaries
p156
I1
sVreturn
p157
I1
sVsay
p158
I1
sVseed
p159
I1
sVseen
p160
I1
sVlil
p161
I4
sVself
p162
I1
sVtake
p163
I4
sVmotherfuckas
p164
I4
sVplay
p165
I1
sVmacs
p166
I1
sVroster
p167
I1
sVhuh
p168
I1
sVrappers
p169
I1
sVknew
p170
I1
sVregular
p171
I1
sVmouth
p172
I2
sVplan
p173
I1
sVmushy
p174
I1
sVinstitutionalize
p175
I1
sVstealin
p176
I1
sVshot
p177
I1
sVbeefin
p178
I1
sVlyrics
p179
I2
sVbring
p180
I1
sVgauge
p181
I1
sVbedroom
p182
I1
sVfeat
p183
I1
sVaint
p184
I8
sVsayin
p185
I1
sVdick
p186
I1
sVjas
p187
I1
sVbust
p188
I1
sVtryina
p189
I4
sVmakaveli
p190
I1
sVjam
p191
I1
sVblack
p192
I1
sVfolks
p193
I1
sVhandle
p194
I1
sVget
p195
I4
sVbeat
p196
I1
sVwatch
p197
I1
sVawww
p198
I1
sVones
p199
I1
sVwords
p200
I1
sVstupid
p201
I1
sVgloves
p202
I1
sVwrote
p203
I2
sVimposter
p204
I1
sVsee
p205
I4
sVdesperate
p206
I1
sVclose
p207
I1
sVpacked
p208
I1
sVcloser
p209
I1
sVsaid
p210
I2
sVcloset
p211
I1
sVways
p212
I1
sVplease
p213
I1
sVirv
p214
I2
sVmug
p215
I1
sVyoull
p216
I1
sVdrivin
p217
I1
sVattention
p218
I1
sVprecious
p219
I1
sVcome
p220
I5
sVja
p221
I5
sVmany
p222
I1
sVlookin
p223
I1
sVbuzz
p224
I1
sVstudio
p225
I1
sVwhachu
p226
I1
sVco
p227
I1
sVsweet
p228
I1
sVwhatever
p229
I1
sVrespect
p230
I1
sVadjustin
p231
I1
sVquit
p232
I2
sVbeef
p233
I1
sVcapable
p234
I1
sVcent
p235
I1
sVmuch
p236
I1
sVblowed
p237
I2
sVmary
p238
I2
sVdrugs
p239
I1
sVblessing
p240
I1
sVhennessy
p241
I2
sVphotos
p242
I1
sVfinished
p243
I1
sVcatch
p244
I1
sVrunnin
p245
I1
sVlook
p246
I3
sVpacs
p247
I1
sVhomey
p248
I1
sVrhymes
p249
I1
sVugly
p250
I1
sVfun
p251
I2
sVcock
p252
I1
sVtheres
p253
I1
sVit
p254
I3
sVecstasy
p255
I2
sVsomeone
p256
I1
sVim
p257
I11
sVscrews
p258
I1
sVthug
p259
I2
sVpartner
p260
I1
sVaround
p261
I1
sVgrown
p262
I1
sVfunny
p263
I1
sVtupac
p264
I1
sVpay
p265
I1
sVthinkin
p266
I1
sVtrip
p267
I1
sVpac
p268
I4
sVscarin
p269
I1
sVmotherfuckin
p270
I1
sVjeffrey
p271
I1
sVused
p272
I1
sVforgotten
p273
I1
sVfucked
p274
I1
sVhumble
p275
I1
sVdrip
p276
I1
sVwithout
p277
I1
sVposition
p278
I1
sVleft
p279
I1
sVpeace
p280
I1
sVquoted
p281
I1
sVrest
p282
I1
sVfront
p283
I1
sVkindness
p284
I1
sVsource
p285
I1
sVpill
p286
I1
sVreal
p287
I1
sVlivin
p288
I1
sVhopin
p289
I2
sVlovin
p290
I1
sVgame
p291
I1
sVkilla
p292
I1
sVknow
p293
I5
sVstunt
p294
I1
sVlike
p295
I13
sVlost
p296
I1
sV50
p297
I3
sVtalkin
p298
I3
sVnigga
p299
I6
sVold
p300
I2
sVscared
p301
I1
sVback
p302
I2
sVhail
p303
I2
sVchedda
p304
I1
sVenemies
p305
I1
sVfor
p306
I1
sVonell
p307
I1
sVhustle
p308
I1
sVcore
p309
I1
sVsingin
p310
I1
sVpeep
p311
I1
sVmotherfucka
p312
I2
sVon
p313
I1
sVoh
p314
I1
sVof
p315
I1
sVindustry
p316
I1
sVsweat
p317
I1
sVwhats
p318
I1
sVpussy
p319
I1
sVguard
p320
I1
sVpromise
p321
I1
sVapologize
p322
I1
sVyous
p323
I1
sVwan
p324
I3
sVthere
p325
I1
sVlong
p326
I1
sVstuck
p327
I1
sVway
p328
I1
sVwas
p329
I1
sVwar
p330
I1
sVhead
p331
I1
sVfore
p332
I1
sVlarry
p333
I1
sVeat
p334
I1
sVpull
p335
I1
sVmade
p336
I2
sVinvincible
p337
I1
sVup
p338
I1
sVrags
p339
I1
sVuh
p340
I1
sVdmx
p341
I1
sVemotional
p342
I1
sVfaggot
p343
I1
sVfans
p344
I2
sVbeatrice
p345
I1
sVay
p346
I2
sVwatched
p347
I1
sVcheck
p348
I1
sVshit
p349
I11
sVinc
p350
I1
sVna
p351
I20
sVrealest
p352
I1
sVsick
p353
I1
sVyou
p354
I4
sVroll
p355
I1
sVwonderin
p356
I2
sVrepeat
p357
I1
sVkinda
p358
I1
sVgoin
p359
I1
sVe
I1
sVlead
p360
I1
sVcalls
p361
I1
sVodds
p362
I2
sVrule
p363
I2
sVtime
p364
I4
s.