(dp1
Vlyrics
p2
I2
sVrap
p3
I1
sVyea
p4
I2
sVmoney
p5
I1
sVambition
p6
I3
sVbring
p7
I1
sVweatherman
p8
I1
sVshake
p9
I1
sVgo
p10
I1
sVmossberg
p11
I1
sVcold
p12
I2
sVprisoner
p13
I1
sVhate
p14
I1
sVfind
p15
I2
sVhustler
p16
I1
sVdont
p17
I5
sVaint
p18
I1
sVupgrade
p19
I1
sVpointing
p20
I1
sVhefnerll
p21
I1
sVsummersault
p22
I1
sVsend
p23
I1
sVspinner
p24
I1
sVbricks
p25
I1
sVpellepelle
p26
I1
sVblack
p27
I3
sVeasy
p28
I1
sVcrack
p29
I1
sVwatching
p30
I1
sVeast
p31
I1
sVbuild
p32
I1
sVreal
p33
I1
sVplants
p34
I1
sVgood
p35
I1
sVhandle
p36
I1
sVaround
p37
I1
sVyo
p38
I1
sVget
p39
I4
sVfar
p40
I1
sVdope
p41
I2
sVwatch
p42
I3
sVcoast
p43
I1
sVbeam
p44
I1
sVgame
p45
I1
sVadrenaline
p46
I1
sVfiendin
p47
I2
sVjack
p48
I1
sVnew
p49
I1
sVcook
p50
I1
sVone
p51
I1
sVsilver
p52
I1
sVwont
p53
I1
sVlike
p54
I4
sVcontagious
p55
I1
sVleather
p56
I1
sVever
p57
I1
sVnauseous
p58
I1
sV50
p59
I2
sVrocks
p60
I1
sVplayboy
p61
I1
sVflashy
p62
I1
sVprocedes
p63
I1
sVvision
p64
I1
sVem
p65
I1
sVass
p66
I1
sVnigga
p67
I4
sVdumping
p68
I1
sVenergy
p69
I2
sVdreaming
p70
I1
sVback
p71
I2
sVpotent
p72
I1
sVflip
p73
I1
sVchef
p74
I1
sVscheming
p75
I1
sVsee
p76
I2
sVskullies
p77
I1
sVclose
p78
I1
sVempire
p79
I1
sVthing
p80
I2
sVspider
p81
I1
sVleaf
p82
I1
sVpet
p83
I1
sVgod
p84
I1
sVmicrowave
p85
I1
sVshape
p86
I1
sVeverything
p87
I1
sVstate
p88
I1
sVgoes
p89
I1
sVit
p90
I1
sVgot
p91
I4
sVtips
p92
I1
sVblender
p93
I1
sVyoull
p94
I1
sVhustle
p95
I4
sVlocate
p96
I1
sVima
p97
I1
sVfull
p98
I1
sVrun
p99
I1
sVchose
p100
I1
sVconfusion
p101
I1
sVsold
p102
I1
sVburn
p103
I1
sVpumping
p104
I1
sVwater
p105
I1
sVstep
p106
I1
sVgrapes
p107
I1
sVbs
p108
I1
sVput
p109
I1
sVdna
p110
I1
sVb
I1
sVcare
p111
I1
sVbuck
p112
I2
sVgetting
p113
I1
sVconceal
p114
I1
sVill
p115
I4
sV30
p116
I1
sVdays
p117
I1
sVo
I2
sVamericas
p118
I1
sVhustlers
p119
I3
sVturn
p120
I1
sVseeds
p121
I2
sVnothing
p122
I1
sVsmokers
p123
I1
sVlogic
p124
I1
sVfeds
p125
I1
sVblock
p126
I1
sVthats
p127
I2
sVload
p128
I1
sVraymo
p129
I1
sVflying
p130
I1
sVlove
p131
I1
sVfroze
p132
I1
sVchains
p133
I1
sVfeel
p134
I1
sVwin
p135
I1
sVnumber
p136
I1
sVcrib
p137
I1
sVhollow
p138
I1
sVkey
p139
I1
sVchronic
p140
I1
sVpop
p141
I1
sVbitch
p142
I1
sVduck
p143
I1
sVcancel
p144
I1
sVsounds
p145
I1
sVvandal
p146
I1
sVbent
p147
I1
sVuse
p148
I1
sVfrom
p149
I1
sVperf
p150
I1
sVdun
p151
I1
sVthere
p152
I1
sVquestion
p153
I1
sVcent
p154
I1
sVcoupe
p155
I1
sVstart
p156
I1
sVlive
p157
I1
sVdamn
p158
I1
sVlow
p159
I2
sVway
p160
I1
sVtape
p161
I1
sVicey
p162
I1
sVanalyze
p163
I1
sVtell
p164
I2
sV500
p165
I1
sVlisten
p166
I1
sVmelodic
p167
I1
sVlife
p168
I5
sVselling
p169
I1
sVdoor
p170
I1
sVinvite
p171
I1
sVspit
p172
I1
sVboy
p173
I1
sVfire
p174
I1
sVmind
p175
I1
sVchucks
p176
I1
sVfuck
p177
I3
sVcopped
p178
I1
sVtalents
p179
I1
sVpart
p180
I1
sVcatch
p181
I1
sVtrying
p182
I1
sVspin
p183
I1
sVwomen
p184
I1
sVme
p185
I5
sVfiends
p186
I1
sVlook
p187
I2
sVniggas
p188
I3
sVthis
p189
I1
sVhomey
p190
I1
sVup
p191
I1
sVpour
p192
I1
sVair
p193
I1
sVtrey
p194
I1
sVcrystal
p195
I1
sVcoco
p196
I1
sVgymnastics
p197
I1
sVfiner
p198
I1
sVcalled
p199
I1
sVnino
p200
I1
sVheart
p201
I1
sVwant
p202
I2
sVestate
p203
I1
sVplayed
p204
I1
sVgangstas
p205
I1
sVmine
p206
I1
sVjewels
p207
I1
sVcant
p208
I3
sVvs
p209
I1
sVim
p210
I9
sVtriple
p211
I1
sVracist
p212
I1
sVneed
p213
I3
sVlanes
p214
I1
sVprotein
p215
I1
sVchia
p216
I1
sVcheck
p217
I1
sVshit
p218
I7
sVdrama
p219
I1
sVneeds
p220
I1
sVsit
p221
I1
sVthings
p222
I1
sVmake
p223
I4
sVmeans
p224
I1
sVhugh
p225
I1
sVsnow
p226
I1
sVtake
p227
I2
sVyou
p228
I2
sVswitching
p229
I1
sVnice
p230
I1
sVproduct
p231
I1
sVunless
p232
I1
sVplans
p233
I1
sVeyes
p234
I1
sVcrook
p235
I1
sVstop
p236
I1
sVspot
p237
I1
sVweed
p238
I1
sVeight
p239
I1
sVnarcs
p240
I1
sVgrow
p241
I1
sVman
p242
I3
sVpenitentiary
p243
I1
sVratchi
p244
I1
sVshotgun
p245
I1
sVweapon
p246
I1
sVhypnotic
p247
I1
sVgrind
p248
I1
sVdefinitely
p249
I1
sVclean
p250
I1
sVwine
p251
I1
sVhello
p252
I1
sVknow
p253
I5
s.