(dp1
Vcoach
p2
I1
sVchain
p3
I1
sVrob
p4
I1
sVfour
p5
I1
sVgo
p6
I1
sVnines
p7
I2
sVpride
p8
I1
sVsent
p9
I1
sVta
p10
I4
sVrhyme
p11
I2
sVsmack
p12
I1
sVworst
p13
I1
sVjack
p14
I1
sVtelling
p15
I1
sVlocked
p16
I1
sVblast
p17
I1
sVdie
p18
I2
sVtry
p19
I1
sVups
p20
I1
sVyall
p21
I2
sVjamaica
p22
I1
sVdisordered
p23
I1
sVlikely
p24
I1
sVniggaz
p25
I12
sVpicked
p26
I1
sVpass
p27
I1
sVeven
p28
I1
sVgiving
p29
I1
sVpiper
p30
I1
sVteachers
p31
I1
sVaint
p32
I6
sVorangutans
p33
I1
sVmen
p34
I1
sVentertain
p35
I1
sVlet
p36
I1
sVtrunk
p37
I1
sValone
p38
I2
sVaftermath
p39
I1
sVhomicidell
p40
I1
sVstuntin
p41
I1
sVdaughter
p42
I1
sVeastside
p43
I1
sVaction
p44
I1
sVdre
p45
I1
sVthats
p46
I3
sVlove
p47
I1
sVstrap
p48
I1
sVbrought
p49
I1
sVwit
p50
I1
sVapply
p51
I1
sVeverybody
p52
I1
sVgive
p53
I2
sVtwo
p54
I2
sVnext
p55
I1
sVlive
p56
I2
sVmusic
p57
I2
sVactin
p58
I1
sVangels
p59
I1
sVtell
p60
I1
sVtryna
p61
I1
sVdiamond
p62
I1
sVdoor
p63
I1
sVaskin
p64
I1
sVfuck
p65
I1
sVbaby
p66
I2
sVme
p67
I1
sVma
p68
I1
sVroom
p69
I1
sVniggas
p70
I1
sVthis
p71
I1
sVwork
p72
I1
sVroof
p73
I1
sVcould
p74
I3
sVnumbers
p75
I1
sVsqueezin
p76
I1
sVbuis
p77
I2
sVchip
p78
I1
sVloco
p79
I1
sVheard
p80
I1
sVpulling
p81
I1
sVsomething
p82
I1
sVwant
p83
I1
sVboner
p84
I1
sVhit
p85
I5
sVsip
p86
I1
sVend
p87
I1
sVgats
p88
I1
sVhov
p89
I1
sVhot
p90
I3
sVmap
p91
I1
sVwrong
p92
I1
sVmad
p93
I1
sVchump
p94
I1
sVfo
p95
I3
sVdrop
p96
I1
sVmaybe
p97
I1
sVshady
p98
I1
sVthink
p99
I3
sVego
p100
I1
sVcrept
p101
I1
sVrove
p102
I1
sVfirst
p103
I1
sVorder
p104
I1
sVbrain
p105
I1
sVdough
p106
I1
sVcruise
p107
I1
sVroots
p108
I1
sVfeatures
p109
I1
sVima
p110
I4
sVwrite
p111
I1
sVdisconnect
p112
I1
sVrooflessruthless
p113
I1
sVmight
p114
I1
sVhappened
p115
I1
sVthem
p116
I1
sVgood
p117
I3
sVya
p118
I5
sVbein
p119
I1
sVfeelin
p120
I1
sVlayup
p121
I1
sVbang
p122
I1
sVclutch
p123
I1
sVartist
p124
I1
sVholdin
p125
I1
sVtruth
p126
I1
sVbills
p127
I1
sVem
p128
I4
sVyeah
p129
I4
sVbooks
p130
I1
sVforgot
p131
I1
sVout
p132
I1
sVliving
p133
I1
sVgon
p134
I2
sVpussies
p135
I1
sVcameras
p136
I2
sVsafety
p137
I2
sVgot
p138
I7
sVlearners
p139
I1
sVcause
p140
I6
sVass
p141
I2
sVdirt
p142
I1
sVcars
p143
I1
sVmotherfucker
p144
I1
sVdisrespect
p145
I1
sVgrandma
p146
I1
sVput
p147
I1
sVteach
p148
I1
sVwestside
p149
I1
sVdirtydirty
p150
I1
sVmac
p151
I1
sVkeep
p152
I1
sVturn
p153
I1
sVfootsteps
p154
I1
sVmotherfuckers
p155
I3
sVlay
p156
I1
sVblind
p157
I1
sVdont
p158
I8
sVdone
p159
I1
sVbitch
p160
I1
sVdrove
p161
I1
sVhood
p162
I4
sVtwenty
p163
I1
sVtop
p164
I1
sVplayer
p165
I1
sV2
I1
sVtom
p166
I1
sVmama
p167
I1
sVhundred
p168
I1
sVgear
p169
I1
sVtrapped
p170
I1
sVhuh
p171
I1
sVgrandpa
p172
I1
sVbelieve
p173
I2
sVben
p174
I1
sVlowpro
p175
I1
sVmind
p176
I1
sVmine
p177
I2
sVbeatin
p178
I1
sVsay
p179
I2
sVrap
p180
I2
sVangle
p181
I1
sVlil
p182
I1
sVtake
p183
I4
sVjail
p184
I1
sVwaitin
p185
I1
sVplay
p186
I2
sVsure
p187
I1
sVpain
p188
I1
sVreact
p189
I1
sVmouth
p190
I1
sVplan
p191
I1
sVnuisance
p192
I1
sVqueens
p193
I1
sVwindows
p194
I1
sVdoc
p195
I1
sVcame
p196
I1
sVsaying
p197
I2
sVlyrics
p198
I2
sVshow
p199
I1
sVcaved
p200
I1
sVmeetings
p201
I1
sVfifty
p202
I1
sVpops
p203
I1
sVfeat
p204
I1
sVfind
p205
I1
sVlessons
p206
I1
sVslow
p207
I1
sVstreetlights
p208
I1
sVdick
p209
I2
sVpoppin
p210
I1
sVblack
p211
I1
sVstabbing
p212
I1
sVgods
p213
I1
sVgangsta
p214
I3
sVhope
p215
I1
sVboulder
p216
I1
sVdo
p217
I3
sVhandle
p218
I3
sVget
p219
I8
sVstop
p220
I1
sVfeels
p221
I1
sVsouthside
p222
I1
sVdr
p223
I1
sVchampagne
p224
I1
sVrhymin
p225
I2
sVstuff
p226
I1
sVwrote
p227
I1
sVsho
p228
I1
sVset
p229
I2
sVfair
p230
I1
sVsee
p231
I1
sVsaid
p232
I1
sVburner
p233
I1
sVpump
p234
I1
sVclapped
p235
I1
sVpistol
p236
I1
sVyoull
p237
I1
sVrims
p238
I2
sVcoulda
p239
I1
sVspray
p240
I1
sVcoma
p241
I1
sVcome
p242
I4
sVill
p243
I1
sVwheels
p244
I1
sVwhole
p245
I1
sVtough
p246
I2
sVpop
p247
I3
sVgunit
p248
I2
sVjayz
p249
I1
sVrespect
p250
I2
sVquit
p251
I1
sVchrome
p252
I1
sVthree
p253
I1
sVbeen
p254
I1
sVcoupe
p255
I2
sVmuch
p256
I1
sVpeppers
p257
I1
sVbrick
p258
I1
sVshoulders
p259
I1
sVspit
p260
I1
sVgas
p261
I1
sVunderstand
p262
I2
sVformer
p263
I1
sVlook
p264
I1
sVhomey
p265
I2
sVrhymes
p266
I1
sVsmart
p267
I1
sVtheres
p268
I1
sVsmacked
p269
I1
sVplayed
p270
I1
sVcents
p271
I1
sVit
p272
I2
sVstrain
p273
I1
sVcant
p274
I10
sVim
p275
I17
sVin
p276
I1
sVgrown
p277
I1
sVmake
p278
I3
sVmatthew
p279
I1
sVgrand
p280
I1
sVinch
p281
I1
sVdowns
p282
I1
sVused
p283
I1
sVolder
p284
I1
sVwell
p285
I1
sVnothin
p286
I2
sVgrind
p287
I1
sVthought
p288
I1
sVbottle
p289
I1
sVmoney
p290
I2
sVsprayer
p291
I1
sVrocked
p292
I1
sVtouch
p293
I1
sVyes
p294
I1
sVblow
p295
I1
sVeasy
p296
I1
sVkick
p297
I1
sVreal
p298
I1
sVaround
p299
I1
sVread
p300
I1
sVsittin
p301
I2
sVgame
p302
I2
sVfive
p303
I1
sVknow
p304
I6
sVpress
p305
I1
sVbit
p306
I1
sVlady
p307
I1
sVwings
p308
I1
sVthinkin
p309
I1
sVbeggin
p310
I1
sVlike
p311
I15
sV50
p312
I2
sVstrife
p313
I1
sVremind
p314
I1
sValways
p315
I1
sVclap
p316
I1
sVright
p317
I1
sVold
p318
I1
sVpeople
p319
I1
sVback
p320
I6
sVplayin
p321
I1
sVpeter
p322
I1
sVmodest
p323
I2
sVhustla
p324
I1
sVhustle
p325
I2
sVrun
p326
I1
sVpressure
p327
I1
sVthrow
p328
I1
sVshine
p329
I3
sVoh
p330
I3
sVdollars
p331
I1
sVstand
p332
I1
sVact
p333
I5
sVwhats
p334
I1
sVcomforters
p335
I1
sVnigga
p336
I8
sVcent
p337
I2
sVoughta
p338
I1
sVwrap
p339
I2
sVwan
p340
I4
sVfight
p341
I1
sVsuit
p342
I1
sVglow
p343
I1
sVblueprint
p344
I1
sVhead
p345
I2
sVtints
p346
I1
sVbitches
p347
I1
sVhear
p348
I1
sVho
p349
I1
sVha
p350
I4
sVpull
p351
I1
sVmade
p352
I1
sVinside
p353
I2
sVus
p354
I1
sVrecord
p355
I1
sVuh
p356
I1
sVcalled
p357
I1
sVgone
p358
I2
sVordered
p359
I1
sVlife
p360
I1
sVshit
p361
I1
sVagain
p362
I1
sVloud
p363
I1
sVna
p364
I4
sVnah
p365
I1
sVtil
p366
I1
sVpour
p367
I1
sVyou
p368
I2
sVreally
p369
I1
sVstay
p370
I2
sVremix
p371
I2
sVtime
p372
I1
s.