(dp1
Vnow
p2
I1
sVlyrics
p3
I2
sVshow
p4
I1
sVmoney
p5
I1
sVmove
p6
I3
sVgun
p7
I1
sVvictim
p8
I1
sVgo
p9
I6
sVlove
p10
I3
sVcold
p11
I1
sVtakin
p12
I1
sVhustler
p13
I1
sVaint
p14
I4
sVslow
p15
I1
sVdice
p16
I1
sVhot
p17
I1
sVbetter
p18
I1
sVwindow
p19
I1
sVblack
p20
I1
sVhennessy
p21
I3
sVcrack
p22
I1
sVcarve
p23
I1
sVmight
p24
I3
sVreal
p25
I1
sVcase
p26
I1
sVjake
p27
I1
sVhit
p28
I1
sVaround
p29
I3
sVget
p30
I4
sVya
p31
I5
sVsafe
p32
I2
sVlurk
p33
I1
sVuhh
p34
I1
sVpocket
p35
I1
sVshoot
p36
I1
sVgame
p37
I1
sVknow
p38
I5
sVsouthside
p39
I1
sVstrap
p40
I3
sVds
p41
I1
sVwont
p42
I1
sVtrippin
p43
I1
sVlike
p44
I2
sVturns
p45
I1
sVdrop
p46
I1
sV50
p47
I1
sVobservin
p48
I1
sVexplode
p49
I1
sVrace
p50
I1
sVrobbery
p51
I1
sVdiscipline
p52
I1
sVround
p53
I1
sVyall
p54
I1
sVmean
p55
I1
sVem
p56
I3
sVnigga
p57
I3
sVhouse
p58
I1
sVhard
p59
I1
sVyeah
p60
I1
sVsoul
p61
I1
sVjump
p62
I1
sVslippin
p63
I1
sVsecond
p64
I1
sVarm
p65
I1
sVwhip
p66
I1
sVout
p67
I1
sVgon
p68
I3
sVdiesel
p69
I1
sVthats
p70
I1
sVpump
p71
I1
sVhomocase
p72
I1
sVspinners
p73
I1
sVgot
p74
I5
sVpistol
p75
I1
sVcause
p76
I2
sVtold
p77
I1
sVass
p78
I4
sVima
p79
I2
sVrun
p80
I1
sVshots
p81
I2
sVwan
p82
I1
sVspray
p83
I1
sVtrunk
p84
I1
sVput
p85
I1
sVpeep
p86
I1
sVhand
p87
I1
sVcome
p88
I2
sVstuntin
p89
I1
sVshine
p90
I1
sVboy
p91
I1
sVchipped
p92
I1
sVbouncin
p93
I1
sV8th
p94
I1
sVstarts
p95
I1
sVk
I1
sVpunk
p96
I1
sVkeep
p97
I3
sVturn
p98
I1
sVyoull
p99
I1
sVplace
p100
I1
sVdro
p101
I3
sVact
p102
I3
sVluck
p103
I1
sVblock
p104
I2
sVlay
p105
I1
sVload
p106
I1
sVwhats
p107
I1
sVdont
p108
I8
sVpoint
p109
I3
sVfeel
p110
I1
sVpop
p111
I2
sVson
p112
I2
sVdown
p113
I1
sVhook
p114
I1
sVmurk
p115
I1
sVbitch
p116
I1
sVfool
p117
I1
sVtrust
p118
I2
sVopen
p119
I1
sVhood
p120
I19
sVrazor
p121
I1
sVbeef
p122
I1
sVchrome
p123
I1
sVcent
p124
I1
sVlock
p125
I1
sVspinnin
p126
I1
sVgim
p127
I1
sVmothafucka
p128
I1
sVtell
p129
I1
sVcoopperate
p130
I1
sVback
p131
I3
sVshell
p132
I1
sVbuck
p133
I6
sVfire
p134
I1
sVbrains
p135
I1
sVgat
p136
I3
sVshorty
p137
I2
sVfuck
p138
I2
sVheat
p139
I2
sValley
p140
I1
sVcatch
p141
I2
sVdenalli
p142
I1
sVeat
p143
I1
sVme
p144
I2
sVfiends
p145
I1
sVlook
p146
I1
sVniggas
p147
I19
sVharder
p148
I2
sVup
p149
I3
sVaim
p150
I1
sVgrimey
p151
I4
sVlight
p152
I1
sVcake
p153
I1
sVim
p154
I6
sVcock
p155
I1
sVcould
p156
I1
sVheart
p157
I2
sVthirsty
p158
I1
sVsupposed
p159
I1
sVniggasll
p160
I2
sVit
p161
I1
sVmothafuckin
p162
I1
sVgood
p163
I3
sVlayed
p164
I1
sVwant
p165
I1
sVshit
p166
I4
sVscrew
p167
I1
sVneeds
p168
I1
sVdumbin
p169
I1
sVlil
p170
I6
sVna
p171
I1
sVmake
p172
I2
sVopporate
p173
I1
sVgats
p174
I1
sVrunnin
p175
I1
sVshakin
p176
I1
sVparty
p177
I2
sVyou
p178
I1
sVroll
p179
I1
sVnice
p180
I1
sVplay
p181
I1
sVshiverin
p182
I1
sVsee
p183
I3
sVholla
p184
I1
sVtrack
p185
I1
sVstay
p186
I4
sVwhippin
p187
I1
sVblood
p188
I1
sVqueens
p189
I1
sVsomethin
p190
I3
sVshootin
p191
I1
sVoff
p192
I2
sVdoc
p193
I1
sVwell
p194
I1
sVface
p195
I2
sVconcrete
p196
I1
sVwithout
p197
I3
sVfirst
p198
I1
sVleft
p199
I1
s.