(dp1
Vlyrics
p2
I2
sVjadakiss
p3
I1
sVmoney
p4
I2
sVchillin
p5
I1
sVbring
p6
I1
sVever
p7
I1
sVgang
p8
I1
sVleft
p9
I1
sVhell
p10
I1
sVfear
p11
I1
sVfeat
p12
I1
sVyet
p13
I1
sVground
p14
I1
sVaint
p15
I6
sVcut
p16
I1
sVtraumatical
p17
I1
sVhump
p18
I1
sVtail
p19
I2
sVhammers
p20
I1
sVmatch
p21
I1
sVhit
p22
I2
sVaround
p23
I2
sVfate
p24
I1
sVget
p25
I4
sVpumpin
p26
I1
sVbid
p27
I1
sVcaught
p28
I3
sVbat
p29
I1
sVbang
p30
I2
sVknow
p31
I2
sVwords
p32
I1
sVminute
p33
I1
sVbread
p34
I1
sVschool
p35
I1
sVheaven
p36
I1
sVstankin
p37
I1
sVlike
p38
I3
sVdie
p39
I1
sVcry
p40
I1
sV50
p41
I1
sVbail
p42
I2
sVtruth
p43
I1
sValways
p44
I1
sVnerves
p45
I1
sVsecurity
p46
I1
sVbond
p47
I1
sVnigga
p48
I4
sVdump
p49
I1
sVshillings
p50
I1
sVhouse
p51
I2
sVscared
p52
I3
sVfeds
p53
I1
sVyeah
p54
I1
sVdead
p55
I1
sVsee
p56
I2
sVhoes
p57
I1
sVfail
p58
I1
sVbark
p59
I1
sV81
p60
I1
sVpeddle
p61
I1
sVout
p62
I1
sVeven
p63
I1
sVincompatible
p64
I1
sVgiving
p65
I1
sVliterally
p66
I1
sVscrap
p67
I1
sVmumblin
p68
I1
sVslick
p69
I1
sVstayin
p70
I1
sVwaiting
p71
I1
sVgoes
p72
I1
sVprobably
p73
I1
sV911
p74
I1
sVbird
p75
I1
sVtold
p76
I1
sVmissin
p77
I1
sVfelony
p78
I1
sVnever
p79
I1
sVhere
p80
I2
sVkillin
p81
I1
sVcome
p82
I2
sVabout
p83
I1
sVlast
p84
I1
sVanything
p85
I1
sVill
p86
I1
sV30
p87
I1
sVkidd
p88
I2
sVsocial
p89
I1
sVheartbeat
p90
I6
sVwhole
p91
I1
sVthink
p92
I1
sVfirst
p93
I1
sVemerge
p94
I1
sVdont
p95
I1
sVmantle
p96
I1
sVpussy
p97
I2
sVone
p98
I1
sVset
p99
I1
sVbitch
p100
I1
sVgimmick
p101
I1
sVopen
p102
I1
sVstumble
p103
I1
sVgiven
p104
I1
sVlong
p105
I1
sVwould
p106
I2
sVsongs
p107
I1
sVrattin
p108
I1
sVbite
p109
I1
sVcent
p110
I1
sVcowards
p111
I1
sVdoubt
p112
I1
sVcall
p113
I2
sVcalm
p114
I1
sVkid
p115
I2
sVtragical
p116
I1
sVeyes
p117
I1
sVthat
p118
I2
sVbrains
p119
I1
sVback
p120
I1
sVcloth
p121
I1
sVhear
p122
I4
sVyard
p123
I1
sVtrying
p124
I2
sVchickens
p125
I1
sVmade
p126
I1
sVrappin
p127
I1
sVirregular
p128
I2
sVniggas
p129
I4
sVsoul
p130
I1
sVrida
p131
I1
sVpurge
p132
I1
sVwhenever
p133
I1
sVhope
p134
I1
sVsnitches
p135
I1
sVmickey
p136
I2
sVheart
p137
I1
sVlick
p138
I1
sVwant
p139
I2
sVclip
p140
I1
sVniggasll
p141
I1
sVfuck
p142
I2
sVdog
p143
I1
sVsay
p144
I1
sVreserves
p145
I1
sVim
p146
I5
sVsomething
p147
I2
sVrap
p148
I1
sVsense
p149
I1
sVseen
p150
I1
sVmouse
p151
I1
sVtells
p152
I1
sVshit
p153
I5
sVlie
p154
I1
sVdifferent
p155
I1
sVcourt
p156
I1
sVshirt
p157
I1
sVrather
p158
I1
sVmedia
p159
I1
sVbuild
p160
I1
sVhangin
p161
I1
sVlife
p162
I1
sVshipments
p163
I1
sVscrew
p164
I1
sVvaginal
p165
I1
sVmouth
p166
I3
sVman
p167
I1
sVbuilding
p168
I1
sVkept
p169
I2
sVwindows
p170
I1
sVcoat
p171
I1
sVyoure
p172
I1
sVcurve
p173
I1
sVhungry
p174
I1
sVperson
p175
I1
sVwithout
p176
I1
sVjail
p177
I1
sVparole
p178
I1
sVcame
p179
I1
sVoutlet
p180
I1
s.