(dp1
Vlyrics
p2
I2
sVexterminate
p3
I1
sVmoney
p4
I1
sVcuttin
p5
I1
sVinfrared
p6
I1
sVkill
p7
I1
sVhuman
p8
I1
sVtouch
p9
I3
sVstill
p10
I2
sVhate
p11
I1
sVfind
p12
I2
sVground
p13
I1
sVcut
p14
I2
sVchain
p15
I1
sV22
p16
I1
sVblowin
p17
I1
sVthang
p18
I1
sVextra
p19
I1
sVbust
p20
I1
sVkilled
p21
I1
sVbush
p22
I1
sVreal
p23
I1
sVcase
p24
I3
sVhit
p25
I4
sVaround
p26
I2
sVget
p27
I4
sVya
p28
I8
sVauto
p29
I1
sVstop
p30
I1
sVscrilla
p31
I1
sVgame
p32
I1
sVkilla
p33
I2
sVknow
p34
I4
sVhollow
p35
I1
sVnew
p36
I4
sVone
p37
I1
sVday
p38
I1
sVprojects
p39
I1
sVcool
p40
I3
sVsuicide
p41
I1
sVhop
p42
I1
sVhoopty
p43
I1
sVsemi
p44
I1
sVgun
p45
I1
sVtry
p46
I1
sVveins
p47
I1
sVclap
p48
I1
sVheavy
p49
I1
sVnigga
p50
I9
sVsoften
p51
I1
sVhard
p52
I1
sVback
p53
I1
sVdead
p54
I1
sV50
p55
I1
sVgo
p56
I1
sVsee
p57
I1
sVhoes
p58
I1
sVprogress
p59
I1
sVfinna
p60
I1
sVblue
p61
I2
sVheights
p62
I1
sVtussle
p63
I1
sVlead
p64
I1
sVaway
p65
I1
sVice
p66
I1
sVwhereabouts
p67
I1
sVbehind
p68
I1
sVgot
p69
I2
sVtips
p70
I1
sVcause
p71
I1
sVguns
p72
I1
sVbought
p73
I1
sVass
p74
I1
sVrun
p75
I3
sVpeeled
p76
I1
sVuse
p77
I1
sVspray
p78
I1
sVdeath
p79
I1
sVlet
p80
I1
sVyork
p81
I2
sVput
p82
I1
sVcome
p83
I1
sVshine
p84
I1
sVsearch
p85
I1
sVbloods
p86
I1
sVzone
p87
I1
sVlanguage
p88
I1
sVcoexist
p89
I1
sVill
p90
I2
sVcontract
p91
I1
sVkeep
p92
I2
sVrange
p93
I1
sVcrippes
p94
I1
sVplus
p95
I1
sVar15
p96
I1
sVthink
p97
I1
sVfuckin
p98
I1
sVlay
p99
I1
sVfeed
p100
I2
sVem
p101
I5
sVown
p102
I1
sVdont
p103
I2
sVblown
p104
I1
sVfeel
p105
I2
sVpussy
p106
I1
sVpop
p107
I1
sVwalk
p108
I2
sVdown
p109
I1
sVinstinct
p110
I1
sVright
p111
I1
sVanother
p112
I1
sVrespect
p113
I1
sVgangstas
p114
I1
sVtrust
p115
I1
sVrolls
p116
I1
sVhood
p117
I1
sVwan
p118
I2
sVlittle
p119
I2
sVflatline
p120
I1
sVchrome
p121
I1
sVcent
p122
I1
sVfight
p123
I1
sVstuck
p124
I1
sVdumbass
p125
I1
sVlow
p126
I2
sVway
p127
I1
sVcall
p128
I1
sVcalf
p129
I1
sVtoo
p130
I1
sVflat
p131
I1
sVhead
p132
I2
sVmurder
p133
I2
sVmuffle
p134
I1
sVterridome
p135
I1
sVfuck
p136
I2
sVphone
p137
I1
sV187s
p138
I1
sVscope
p139
I1
sVaccomadate
p140
I1
sVsign
p141
I1
sVeat
p142
I1
sVshoot
p143
I1
sVexception
p144
I1
sVniggas
p145
I4
sVcar
p146
I1
sVcap
p147
I1
sVclips
p148
I1
sVhomie
p149
I1
sVnine
p150
I1
sVdrill
p151
I1
sVmeet
p152
I1
sVproblem
p153
I1
sVtheres
p154
I1
sVheart
p155
I1
sVcrazy
p156
I1
sVmind
p157
I1
sVlife
p158
I1
sVsay
p159
I1
sVshell
p160
I1
sVim
p161
I8
sVpromised
p162
I1
sVready
p163
I1
sVna
p164
I2
sVmake
p165
I1
sVzoo
p166
I1
sVfood
p167
I1
sVdoors
p168
I1
sVbrains
p169
I1
sVinch
p170
I1
sVgrain
p171
I1
sVyou
p172
I2
sVroll
p173
I1
sVmacs
p174
I1
sVdoin
p175
I1
sVwelcome
p176
I2
sVllamas
p177
I1
sVhand
p178
I1
sVbrownsville
p179
I1
sVbrooklyn
p180
I1
sVblood
p181
I1
sVwindows
p182
I1
sVbind
p183
I1
sVyoure
p184
I1
sVrule
p185
I1
sVmaker
p186
I1
sVjungle
p187
I3
sVtime
p188
I2
sVwolves
p189
I1
sVtalk
p190
I1
s.