(dp1
Vson
p2
I1
sVshot
p3
I3
sVlyrics
p4
I2
sVya
p5
I1
sVrandom
p6
I1
sVanyway
p7
I2
sVkill
p8
I1
sVgo
p9
I1
sVhate
p10
I1
sVfifth
p11
I2
sVblow
p12
I1
sVtil
p13
I1
sVstyle
p14
I1
sVone
p15
I2
sVsayin
p16
I1
sVnas
p17
I1
sVdick
p18
I1
sVcuz
p19
I3
sVkilled
p20
I1
sVlate
p21
I2
sVto
p22
I1
sVactin
p23
I1
sVblaze
p24
I1
sVpretty
p25
I1
sVcrack
p26
I1
sVwooo
p27
I1
sVsure
p28
I1
sVcrash
p29
I1
sVaround
p30
I1
sVget
p31
I7
sVmoms
p32
I1
sVdope
p33
I1
sVwatch
p34
I2
sVgame
p35
I1
sVfive
p36
I1
sVknow
p37
I1
sVwords
p38
I1
sVhalf
p39
I1
sVfront
p40
I1
sVnow
p41
I1
sVds
p42
I1
sVname
p43
I1
sVstunts
p44
I1
sVbar
p45
I1
sVlike
p46
I9
sVtear
p47
I1
sValways
p48
I1
sVbuddies
p49
I1
sVlist
p50
I1
sV50
p51
I4
sVleave
p52
I2
sVp
I1
sVslide
p53
I2
sVwit
p54
I10
sVshots
p55
I2
sVnight
p56
I2
sVsmall
p57
I1
sVfound
p58
I1
sVwent
p59
I1
sVstock
p60
I1
sVsoft
p61
I1
sVyall
p62
I7
sVdimes
p63
I1
sVem
p64
I4
sVbars
p65
I1
sVright
p66
I2
sVbe
p67
I1
sVhard
p68
I1
sVyeah
p69
I1
sVtvs
p70
I1
sVsee
p71
I5
sVused
p72
I2
sVescape
p73
I1
sVunless
p74
I1
sVmarksmen
p75
I1
sVwhip
p76
I1
sVreally
p77
I2
sVeven
p78
I1
sVgon
p79
I1
sVheres
p80
I1
sVpictures
p81
I1
sVaway
p82
I2
sVfloss
p83
I1
sVumm
p84
I1
sVgot
p85
I1
sVissue
p86
I1
sVhustle
p87
I2
sVass
p88
I1
sVaint
p89
I8
sVnever
p90
I1
sVrun
p91
I1
sVrims
p92
I1
sVsold
p93
I3
sVdealt
p94
I1
sVtracks
p95
I1
sVcarried
p96
I2
sVnowhere
p97
I2
sVima
p98
I1
sVspark
p99
I1
sVcome
p100
I1
sVwutup
p101
I1
sVdice
p102
I1
sVputtin
p103
I1
sVill
p104
I1
sVspray
p105
I1
sVkeep
p106
I2
sVgames
p107
I1
sVlyin
p108
I1
sVwhole
p109
I1
sVthink
p110
I1
sVfuckin
p111
I1
sVthats
p112
I2
sVblind
p113
I1
sVdont
p114
I13
sVbricks
p115
I2
sVpa
p116
I2
sVcrib
p117
I1
sVcoincidence
p118
I1
sVdown
p119
I1
sVpop
p120
I4
sVnigga
p121
I7
sVlikes
p122
I2
sVlaugh
p123
I1
sVwrap
p124
I1
sVuptown
p125
I1
sVjayz
p126
I1
sVhood
p127
I1
sVwan
p128
I1
sVfast
p129
I1
sVlifes
p130
I3
sVbeef
p131
I1
sVstart
p132
I1
sVhindu
p133
I1
sVthree
p134
I1
sVcent
p135
I1
sVplayer
p136
I1
sVcali
p137
I1
sVcats
p138
I2
sVdamn
p139
I2
sVlot
p140
I1
sVman
p141
I1
sVtryna
p142
I2
sVhead
p143
I1
sVmurder
p144
I5
sVthat
p145
I2
sVpainted
p146
I1
sVcoke
p147
I2
sVgat
p148
I1
sVserve
p149
I1
sVogs
p150
I1
sVblat
p151
I1
sVpart
p152
I1
sVhear
p153
I1
sVbroke
p154
I1
sVcatch
p155
I3
sVline
p156
I4
sVbelieve
p157
I2
sVmcs
p158
I1
sVhandsome
p159
I1
sVme
p160
I11
sVnone
p161
I2
sVtryin
p162
I1
sVlook
p163
I2
sVniggas
p164
I6
sVcar
p165
I1
sVpretend
p166
I1
sVup
p167
I4
sVclips
p168
I1
sVspitted
p169
I1
sVblock
p170
I1
sVcrazy
p171
I1
sVoutta
p172
I1
sVwant
p173
I3
sVfigure
p174
I2
sVgive
p175
I1
sVmind
p176
I1
sVfuck
p177
I4
sVnascar
p178
I1
sVdrive
p179
I1
sVdash
p180
I1
sVheard
p181
I1
sVsay
p182
I8
sVhomie
p183
I1
sVim
p184
I6
sVrent
p185
I1
sVrap
p186
I1
sVplayin
p187
I1
sVthug
p188
I3
sVhit
p189
I1
sVshit
p190
I5
sVagain
p191
I1
sVbuilt
p192
I1
sVsit
p193
I1
sVna
p194
I1
sVnobody
p195
I2
sVsix
p196
I2
sVreality
p197
I1
sVwrite
p198
I1
sVstarted
p199
I2
sVparts
p200
I2
sVsplit
p201
I2
sVyou
p202
I3
sVsoap
p203
I1
sVplay
p204
I1
sVshitted
p205
I1
sVbitches
p206
I1
sVokay
p207
I1
sVtried
p208
I1
sVrhyme
p209
I2
sVprice
p210
I1
sVstay
p211
I1
sVmac
p212
I1
sVeight
p213
I1
sVfriends
p214
I1
sVgoin
p215
I2
sVhumble
p216
I1
sVanybody
p217
I1
sVstash
p218
I1
sVscream
p219
I1
sVtruck
p220
I1
sVtalk
p221
I3
sVparamedics
p222
I1
sVpartners
p223
I1
sVmake
p224
I3
sVcame
p225
I1
sVonce
p226
I1
s.