(dp1
Vlyrics
p2
I2
sVgp
p3
I1
sVmove
p4
I1
sVbring
p5
I1
sVgo
p6
I1
sVstill
p7
I1
sVcola
p8
I2
sVima
p9
I2
sVsayin
p10
I5
sVoutside
p11
I1
sVtape
p12
I1
sVfade
p13
I1
sVgangsta
p14
I1
sVmayday
p15
I2
sVsomebody
p16
I1
sVyo
p17
I2
sVget
p18
I3
sVya
p19
I1
sVwatch
p20
I3
sVfat
p21
I1
sVknow
p22
I4
sVsouthside
p23
I1
sVworld
p24
I6
sVblast
p25
I1
sVday
p26
I1
sVtrippin
p27
I1
sVlike
p28
I3
sVcause
p29
I1
sV50
p30
I1
sVgunnnn
p31
I1
sVbless
p32
I1
sVsoft
p33
I1
sVem
p34
I2
sVnigga
p35
I2
sVyola
p36
I1
sVtec
p37
I1
sVfeds
p38
I1
sVback
p39
I1
sVmelee
p40
I1
sVsee
p41
I4
sVplayin
p42
I2
sVgirl
p43
I3
sVmovin
p44
I1
sVsaid
p45
I1
sVlead
p46
I1
sVbottom
p47
I1
sVyous
p48
I1
sVmexicans
p49
I1
sVrunnnn
p50
I1
sVgot
p51
I1
sVever
p52
I2
sVass
p53
I1
sVaint
p54
I2
sVfull
p55
I1
sVright
p56
I2
sVnever
p57
I1
sVweak
p58
I1
sVspray
p59
I1
sVcome
p60
I5
sVjfk
p61
I1
sVon
p62
I2
sVmans
p63
I6
sVlast
p64
I2
sVthing
p65
I1
sVstand
p66
I1
sVlax
p67
I1
sVthink
p68
I2
sVthats
p69
I1
sVchains
p70
I1
sVbricks
p71
I1
sVcrib
p72
I1
sVone
p73
I1
sVset
p74
I1
sVbitch
p75
I3
sVcrip
p76
I1
sVbarked
p77
I1
sVwan
p78
I2
sVcent
p79
I1
sVnext
p80
I1
sVtreat
p81
I1
sVway
p82
I1
sVkid
p83
I1
sVlisten
p84
I1
sVlife
p85
I1
sVrich
p86
I1
sVboy
p87
I10
sVphone
p88
I1
sVstick
p89
I1
sVha
p90
I2
sVme
p91
I2
sVj
I1
sVsay
p92
I2
sVniggaz
p93
I5
sVcat
p94
I1
sVsupposed
p95
I1
sVgives
p96
I1
sVcrazy
p97
I1
sVfreak
p98
I1
sVak
p99
I1
sVfuck
p100
I1
sVraw
p101
I1
sVcant
p102
I1
sVim
p103
I7
sVstash
p104
I1
sVhit
p105
I1
sVtrip
p106
I1
sVshit
p107
I1
sVray
p108
I1
sVagain
p109
I1
sVsuggest
p110
I1
sVthinkin
p111
I1
sVthat
p112
I1
sVrubber
p113
I1
sVmotherfuckin
p114
I1
sVgrips
p115
I1
sVtapped
p116
I1
sVplay
p117
I1
sVsets
p118
I1
sVwrong
p119
I1
sVgon
p120
I2
sVmouth
p121
I3
sVblood
p122
I1
sVsuck
p123
I1
sVwheres
p124
I1
sVman
p125
I1
sVdon
p126
I1
sVbustin
p127
I1
sVwalked
p128
I1
sVcrazyass
p129
I1
sVbroad
p130
I1
sVpush
p131
I1
s.