(dp1
Vwhattup
p2
I1
sVforget
p3
I1
sVlyrics
p4
I2
sVmoney
p5
I3
sVanyway
p6
I1
sVtrade
p7
I1
sVwatch
p8
I1
sVbrain
p9
I1
sVlooks
p10
I1
sVgo
p11
I1
sVhell
p12
I2
sVfind
p13
I3
sVhondas
p14
I1
sVaint
p15
I5
sVbmcc
p16
I1
sVuey
p17
I1
sVsayin
p18
I1
sVhead
p19
I1
sVtv
p20
I1
sVdick
p21
I1
sVfans
p22
I1
sVbust
p23
I2
sVbricks
p24
I1
sVrich
p25
I2
sVwhips
p26
I2
sVsmile
p27
I1
sVbout
p28
I1
sVhope
p29
I1
sVgave
p30
I1
sVfool
p31
I1
sVnothin
p32
I1
sVtreatin
p33
I1
sVgood
p34
I1
sVhit
p35
I1
sVyo
p36
I2
sVget
p37
I3
sVya
p38
I2
sVmaterial
p39
I3
sVrhyme
p40
I1
sVfeelin
p41
I1
sVrecords
p42
I1
sVgame
p43
I3
sVknow
p44
I4
sVprobably
p45
I1
sVnot
p46
I1
sVworld
p47
I2
sVnow
p48
I2
sVname
p49
I1
sVearl
p50
I1
sVlike
p51
I5
sVexchanged
p52
I1
sValways
p53
I1
sVgettin
p54
I1
sVtre
p55
I1
sV50
p56
I1
sVpacked
p57
I1
sVleave
p58
I2
sVdouble
p59
I1
sVquick
p60
I1
sVsidewalk
p61
I1
sVwouldve
p62
I1
sVyall
p63
I2
sVnames
p64
I1
sVem
p65
I4
sVnigga
p66
I3
sVhard
p67
I2
sVback
p68
I2
sVflip
p69
I1
sVvideo
p70
I1
sVhoes
p71
I3
sVuh
p72
I1
sVgirl
p73
I6
sVwhip
p74
I2
sVreally
p75
I1
sVgon
p76
I2
sVmine
p77
I1
sVtake
p78
I1
sVplayin
p79
I1
sVbest
p80
I1
sVswitch
p81
I1
sVbehind
p82
I1
sVgoes
p83
I1
sVmoons
p84
I1
sVgot
p85
I4
sVcause
p86
I2
sVacross
p87
I1
sVtold
p88
I1
sVblow
p89
I1
sVends
p90
I1
sVrecline
p91
I1
sVhere
p92
I1
sVquite
p93
I1
sVmet
p94
I1
sVreason
p95
I1
sVput
p96
I1
sVpeep
p97
I1
sVstay
p98
I2
sVcome
p99
I2
sVwent
p100
I1
sVchange
p101
I2
sVcare
p102
I1
sVon
p103
I1
sV900
p104
I1
sVlifestyle
p105
I1
sVwouldnt
p106
I3
sVoh
p107
I2
sVmany
p108
I1
sVcould
p109
I1
sVbreakin
p110
I1
sVcount
p111
I1
sVthing
p112
I1
sVrange
p113
I2
sVgames
p114
I1
sVreal
p115
I1
sVmean
p116
I1
sVmakes
p117
I1
sVthink
p118
I2
sVfuckin
p119
I1
sVthats
p120
I4
sVliked
p121
I1
sVlove
p122
I4
sVdont
p123
I3
sVfeel
p124
I1
sVyear
p125
I1
sVmakin
p126
I1
sVone
p127
I1
sVstop
p128
I1
sVfucked
p129
I1
sVwit
p130
I2
sVdone
p131
I1
sVbitch
p132
I7
sVuptown
p133
I1
sVcouldnt
p134
I1
sVplatinum
p135
I1
sVwan
p136
I4
sVguess
p137
I1
sVlong
p138
I1
sVwould
p139
I1
sViced
p140
I1
sVchrome
p141
I1
sVtwenty
p142
I1
sVhey
p143
I1
sVcent
p144
I1
sVpenetentiaries
p145
I1
sVcats
p146
I2
sVway
p147
I1
sVdom
p148
I1
sVtryin
p149
I1
sVbbs
p150
I1
sVwhoa
p151
I1
sVlife
p152
I2
sVtints
p153
I1
sVspit
p154
I1
sVsomethin
p155
I1
sVthousand
p156
I1
sVonyx
p157
I1
sVshorty
p158
I3
sVit
p159
I2
sVmoneys
p160
I1
sVdave
p161
I1
sVtrain
p162
I1
sVbroke
p163
I1
sVbaby
p164
I3
sVgold
p165
I1
sVhold
p166
I1
sVcmon
p167
I3
sVeat
p168
I1
sVme
p169
I3
sVmade
p170
I1
sVg
I1
sVniggas
p171
I3
sVtype
p172
I2
sVmo
p173
I1
sVwork
p174
I1
sVsoul
p175
I1
sVus
p176
I3
sVtell
p177
I2
sVtrick
p178
I1
sVwhile
p179
I1
sVr
I1
sVsupposed
p180
I1
sVpearls
p181
I1
sVchickenhead
p182
I1
sVive
p183
I1
sVpound
p184
I1
sVthatll
p185
I2
sVfigure
p186
I1
sVlook
p187
I1
sVwasnt
p188
I3
sVbenz
p189
I1
sVmind
p190
I1
sVfuck
p191
I9
sVheard
p192
I1
sVcant
p193
I1
sVslam
p194
I1
sVim
p195
I4
sVnumbers
p196
I1
sVmadonna
p197
I1
sVgirlfriend
p198
I2
sVseen
p199
I2
sVrid
p200
I1
sValone
p201
I1
sVshit
p202
I8
sVsell
p203
I1
sVdifferent
p204
I1
sVsip
p205
I1
sVpacks
p206
I1
sVjigga
p207
I1
sVna
p208
I6
sVmake
p209
I2
sVsix
p210
I1
sV2000
p211
I2
sV40
p212
I1
sVnah
p213
I1
sVwalk
p214
I1
sVtill
p215
I1
sVhot
p216
I1
sVwantin
p217
I1
sVpickin
p218
I1
sVcece
p219
I1
sV328
p220
I1
sVroll
p221
I1
sVdroolin
p222
I1
sVthinkin
p223
I1
sVplay
p224
I1
sVsling
p225
I1
sVaww
p226
I1
sVhuh
p227
I2
sVdoin
p228
I1
sVfelt
p229
I1
sVshanel
p230
I1
sVpush
p231
I1
sVwrong
p232
I1
sVsaid
p233
I2
sVtwo
p234
I1
sVhahahaha
p235
I1
sVfriends
p236
I1
sVdiamonds
p237
I1
sVman
p238
I4
sVhows
p239
I1
sVdrop
p240
I1
sVneck
p241
I1
sV98
p242
I1
sVwhisperin
p243
I1
sVbuggin
p244
I1
sVpart
p245
I1
sVtime
p246
I2
sValright
p247
I1
sVserious
p248
I1
sVpulled
p249
I1
sVkickin
p250
I1
sVtalk
p251
I2
sVlatest
p252
I1
s.