(dp1
Vlyrics
p2
I2
sVmoney
p3
I19
sVmove
p4
I1
sVbring
p5
I1
sVlooks
p6
I1
sVcuts
p7
I1
sVhell
p8
I1
sVmill
p9
I1
sVtattooed
p10
I1
sVblow
p11
I1
sVjay
p12
I1
sVpoppin
p13
I1
sVcrime
p14
I1
sVblack
p15
I5
sVrich
p16
I1
sVpennies
p17
I1
sVlocal
p18
I1
sVmatch
p19
I1
sVfirst
p20
I1
sVreal
p21
I1
sV11
p22
I1
sVclank
p23
I6
sVemergency
p24
I1
sVget
p25
I21
sVya
p26
I4
sVbig
p27
I2
sVfat
p28
I1
sVda
p29
I1
sVme
p30
I1
sVgame
p31
I1
sVknow
p32
I5
sVnew
p33
I2
sVkilled
p34
I1
sVbank
p35
I6
sVlook
p36
I1
sVlike
p37
I6
sVsemi
p38
I1
sVyoull
p39
I1
sVdrop
p40
I1
sVmichael
p41
I1
sV50
p42
I2
sVpiggy
p43
I6
sVshots
p44
I3
sVwent
p45
I1
sVsteal
p46
I1
sVclap
p47
I1
sVmean
p48
I4
sVem
p49
I1
sVnigga
p50
I7
sVbentley
p51
I1
sVskin
p52
I1
sVback
p53
I1
sVjada
p54
I1
sVsee
p55
I1
sVdawg
p56
I2
sVlistenin
p57
I2
sVarm
p58
I2
sVblue
p59
I1
sVsaid
p60
I3
sVjackson
p61
I1
sVrep
p62
I1
sVlean
p63
I1
sVlegal
p64
I1
sVcell
p65
I1
sVgoes
p66
I3
sVgot
p67
I5
sVcause
p68
I1
sVguns
p69
I2
sVknife
p70
I1
sVass
p71
I4
sVeagle
p72
I1
sVrun
p73
I1
sVlettin
p74
I1
sVrims
p75
I1
sVsold
p76
I1
sVkelis
p77
I1
sVpunch
p78
I1
sVlet
p79
I2
sVvinyl
p80
I1
sVput
p81
I1
sVshine
p82
I2
sVboy
p83
I1
sVol
p84
I2
sVcondoms
p85
I1
sVoh
p86
I1
sVill
p87
I13
sVscreamin
p88
I1
sVthing
p89
I1
sVmilkshake
p90
I1
sVyall
p91
I2
sVvocals
p92
I1
sVwavin
p93
I1
sVyork
p94
I2
sVlove
p95
I1
sVdont
p96
I5
sVpop
p97
I1
sVshyne
p98
I1
sVright
p99
I1
sVbitch
p100
I2
sVhood
p101
I2
sV203
p102
I1
sVwan
p103
I1
sVmonkey
p104
I1
sVcali
p105
I1
sVchrome
p106
I1
sVtop
p107
I1
sVdud
p108
I1
sVcent
p109
I1
sVnext
p110
I1
sVpc
p111
I1
sVdamn
p112
I1
sVway
p113
I1
sVhundred
p114
I2
sVtell
p115
I1
sVlife
p116
I1
sVhard
p117
I1
sVshank
p118
I1
sVbuck
p119
I1
sVclub
p120
I1
sVbrings
p121
I1
sVshoot
p122
I1
sVhurt
p123
I1
sVboys
p124
I1
sVhear
p125
I1
sVbaby
p126
I1
sVyard
p127
I1
sVeat
p128
I1
sVyayo
p129
I2
sVrunnin
p130
I1
sVgrill
p131
I1
sVroom
p132
I1
sVniggas
p133
I6
sVpretend
p134
I1
sVup
p135
I1
sVclips
p136
I1
sVsurgeory
p137
I1
sVwarning
p138
I1
sVnine
p139
I1
sVta
p140
I2
sVeverybodys
p141
I2
sVgrip
p142
I1
sVcmon
p143
I2
sVfreak
p144
I1
sVgive
p145
I1
sVfuck
p146
I1
sVdeep
p147
I1
sVsay
p148
I1
sVhomie
p149
I1
sVim
p150
I4
sVwant
p151
I1
sVsells
p152
I3
sVshit
p153
I7
sVlooked
p154
I1
sVend
p155
I1
sVtupac
p156
I1
sVlil
p157
I2
sVna
p158
I1
sVthat
p159
I1
sVaint
p160
I1
sVnas
p161
I1
sVclickity
p162
I6
sVchess
p163
I1
sVsucker
p164
I1
sVtalkin
p165
I1
sVpicture
p166
I1
sVteflon
p167
I1
sVmonkies
p168
I1
sVgon
p169
I1
sVmouth
p170
I1
sVkim
p171
I1
sVhahahaha
p172
I3
sVcheckers
p173
I1
sVman
p174
I4
sVyeah
p175
I27
sVsomethin
p176
I2
sVoff
p177
I1
sVphone
p178
I1
sVmobb
p179
I1
sVlight
p180
I1
sVatcha
p181
I8
sVthought
p182
I1
sVgreen
p183
I1
sVclean
p184
I1
sVbanks
p185
I1
sVmobs
p186
I1
sVthats
p187
I1
s.