(dp1
Vsaying
p2
I1
sVshot
p3
I1
sVshytown
p4
I1
sVlyrics
p5
I2
sVmoney
p6
I1
sVlay
p7
I1
sVkill
p8
I2
sVtouch
p9
I1
sVfind
p10
I2
sVfifth
p11
I1
sVdont
p12
I4
sVaint
p13
I2
sVorleans
p14
I1
sVblast
p15
I1
sVdice
p16
I1
sVla
p17
I1
sVsomewhere
p18
I1
sVdick
p19
I1
sVrich
p20
I1
sVfiend
p21
I1
sVbout
p22
I4
sVkick
p23
I1
sVhit
p24
I1
sVaround
p25
I1
sVyo
p26
I5
sVget
p27
I3
sVbeat
p28
I1
sVwatch
p29
I1
sVdc
p30
I1
sVbentleys
p31
I1
sVknow
p32
I2
sVgot
p33
I4
sVone
p34
I1
sVflee
p35
I1
sVdare
p36
I1
sVwont
p37
I3
sVsmash
p38
I1
sVlike
p39
I7
sVshaped
p40
I1
sVlouis
p41
I1
sVf
I2
sV50
p42
I1
sVpublic
p43
I1
sVleave
p44
I2
sVtwice
p45
I2
sVbad
p46
I1
sVt
I1
sVshots
p47
I2
sVrock
p48
I1
sVsleep
p49
I1
sVround
p50
I1
sVass
p51
I4
sVnigga
p52
I8
sVcost
p53
I1
sVfucking
p54
I2
sVback
p55
I3
sVgun
p56
I1
sVtex
p57
I1
sVgo
p58
I1
sVsupermodel
p59
I1
sVstreet
p60
I1
sVcleveland
p61
I1
sVhome
p62
I1
sVmarley
p63
I1
sVeven
p64
I1
sVgon
p65
I3
sVremind
p66
I1
sVsection
p67
I1
sVice
p68
I1
sVsung
p69
I1
sVcell
p70
I1
sVpump
p71
I1
sVcall
p72
I1
sVnew
p73
I3
sVwillie
p74
I1
sVsurvive
p75
I1
sVbody
p76
I1
sVblow
p77
I1
sVrun
p78
I1
sVstartin
p79
I1
sVsold
p80
I1
sVnever
p81
I1
sVmotherfucker
p82
I1
sVsingin
p83
I1
sVlet
p84
I2
sVyork
p85
I2
sVmaking
p86
I1
sVput
p87
I1
sVtub
p88
I1
sVc
I1
sVpimping
p89
I1
sVcould
p90
I2
sVspray
p91
I1
sVkeep
p92
I1
sVjammin
p93
I1
sVstand
p94
I1
sVact
p95
I1
sVeight
p96
I1
sVbob
p97
I1
sVhead
p98
I1
sVblock
p99
I2
sVthats
p100
I1
sVwig
p101
I1
sVflash
p102
I1
sVfroze
p103
I1
sVson
p104
I2
sV60
p105
I1
sVwit
p106
I1
sVdone
p107
I1
sVbitch
p108
I3
sVstrip
p109
I1
sVstraight
p110
I1
sViced
p111
I1
sVhousing
p112
I1
sVhungry
p113
I1
sVlive
p114
I1
sVcent
p115
I1
sVborrow
p116
I1
sVstart
p117
I1
sVglock
p118
I1
sVdoubt
p119
I1
sVdamn
p120
I1
sVlow
p121
I2
sVlot
p122
I1
sVexpanding
p123
I1
sVhamptons
p124
I1
sVman
p125
I1
sVtype
p126
I2
sVloving
p127
I1
sVdash
p128
I1
sVmurder
p129
I2
sVthat
p130
I1
sVsomething
p131
I1
sVthousand
p132
I1
sVbitches
p133
I1
sVit
p134
I6
sVphone
p135
I1
sVheat
p136
I1
sVhear
p137
I1
sVflappin
p138
I1
sVbaby
p139
I1
sVmemphis
p140
I1
sVeat
p141
I1
sVme
p142
I1
sVpull
p143
I1
sVcause
p144
I2
sVword
p145
I2
sVlook
p146
I1
sVniggas
p147
I16
sVgently
p148
I1
sVpast
p149
I1
sVcash
p150
I1
sVus
p151
I1
sVn
I1
sVwildest
p152
I1
sVim
p153
I8
sVill
p154
I1
sVbet
p155
I1
sVheartbroke
p156
I1
sVheart
p157
I1
sVoutta
p158
I1
sVgive
p159
I1
sVran
p160
I1
sVrowdy
p161
I11
sVhoes
p162
I1
sVfuck
p163
I4
sVwatches
p164
I1
sVdog
p165
I2
sVhelped
p166
I1
sVheard
p167
I2
sVsay
p168
I3
sVcaress
p169
I1
sVright
p170
I1
sVdozed
p171
I1
sVwant
p172
I1
sVwell
p173
I1
sVshit
p174
I5
sVtheyll
p175
I1
sVrubbed
p176
I1
sVna
p177
I3
sVmic
p178
I1
sVhot
p179
I2
sVtake
p180
I1
sVstickup
p181
I1
sVgambling
p182
I1
sVyou
p183
I1
sVnice
p184
I1
sVblue
p185
I1
sVgat
p186
I3
sVprice
p187
I1
sVtime
p188
I1
sVspot
p189
I1
sVcordless
p190
I1
sVy
I1
sVrunning
p191
I1
sVwrist
p192
I1
sVplan
p193
I1
sVdevice
p194
I1
sVkid
p195
I1
sVdrop
p196
I1
sVe
I1
sVrollie
p197
I1
sVindustry
p198
I1
sVflow
p199
I1
sVbustin
p200
I1
sVstash
p201
I1
sVst
p202
I1
sVthought
p203
I1
sVwithout
p204
I2
sVthings
p205
I1
sVpush
p206
I1
sVplaying
p207
I1
sVincomplete
p208
I1
s.