(dp1
Vrifles
p2
I1
sVshot
p3
I2
sVshoes
p4
I1
sVlyrics
p5
I2
sVmoney
p6
I6
sVburners
p7
I1
sVmove
p8
I1
sVtapdance
p9
I1
sVdeep
p10
I1
sVbugged
p11
I1
sVlloyd
p12
I1
sVseats
p13
I1
sVfeat
p14
I1
sVdont
p15
I2
sVtalking
p16
I1
sVunhuh
p17
I1
sV26
p18
I1
sVoffice
p19
I1
sVsheriff
p20
I1
sVblowin
p21
I1
sVease
p22
I1
sVdick
p23
I1
sVfather
p24
I1
sVenough
p25
I2
sVbetter
p26
I1
sVgoing
p27
I2
sVblack
p28
I2
sVwatching
p29
I1
sVhope
p30
I1
sVta
p31
I5
sVfool
p32
I1
sVtown
p33
I1
sVyo
p34
I5
sVget
p35
I5
sVfood
p36
I1
sVcheap
p37
I1
sVwatch
p38
I1
sVfast
p39
I1
sVlame
p40
I1
sVgame
p41
I1
sVb
I1
sVputting
p42
I1
sVfront
p43
I1
sVchips
p44
I1
sVday
p45
I1
sVcool
p46
I1
sVschool
p47
I1
sVbout
p48
I1
sVlike
p49
I3
sVgift
p50
I1
sVtear
p51
I1
sVever
p52
I1
sVservin
p53
I1
sVgun
p54
I1
sVleave
p55
I1
sVman
p56
I1
sVrock
p57
I1
sVcarlot
p58
I1
sVfixed
p59
I1
sVyall
p60
I4
sVheavy
p61
I1
sVnigga
p62
I7
sVanother
p63
I1
sVchargin
p64
I1
sVtill
p65
I1
sVphones
p66
I1
sVyeah
p67
I2
sVbenzes
p68
I2
sVsee
p69
I3
sVlearn
p70
I2
sVhoes
p71
I1
sVclose
p72
I1
sVout
p73
I2
sVliving
p74
I1
sVsaid
p75
I1
sVheres
p76
I1
sVbroad
p77
I2
sVrep
p78
I1
sVfreeze
p79
I1
sVliberty
p80
I1
sVlaid
p81
I1
sVstingy
p82
I1
sV7
I1
sVgot
p83
I14
sVlearned
p84
I2
sVpistol
p85
I1
sVcause
p86
I6
sVdice
p87
I1
sVmindframe
p88
I1
sVass
p89
I1
sVaint
p90
I3
sVends
p91
I2
sVshots
p92
I1
sVstrapped
p93
I1
sVnever
p94
I1
sVlittle
p95
I1
sVsaxophones
p96
I1
sVmotherfucker
p97
I2
sVwater
p98
I1
sVairplane
p99
I1
sVstrong
p100
I1
sVbs
p101
I1
sVlex
p102
I1
sV100
p103
I1
sVhardtop
p104
I1
sVtable
p105
I1
sVchange
p106
I1
sVsayin
p107
I1
sVbox
p108
I1
sVcop
p109
I1
sVspeeches
p110
I1
sVyard
p111
I1
sVg
I1
sVgetting
p112
I1
sVmany
p113
I1
sVill
p114
I2
sVput
p115
I1
sVdrug
p116
I1
sVkeep
p117
I3
sVgums
p118
I1
sVthing
p119
I1
sVplus
p120
I1
sVsmoke
p121
I1
sVswing
p122
I1
sVchain
p123
I1
sVroad
p124
I1
sVthats
p125
I3
sVfeed
p126
I1
sVfeatures
p127
I1
sVjewels
p128
I1
sVbricks
p129
I1
sVpussy
p130
I1
sVspank
p131
I1
sVtwo
p132
I1
sVgunit
p133
I3
sVwit
p134
I5
sVdone
p135
I1
sVbitch
p136
I2
sVholster
p137
I1
sVtony
p138
I1
sVoutta
p139
I1
sVopen
p140
I1
sVhood
p141
I2
sVsize
p142
I1
sVwan
p143
I2
sVuse
p144
I1
sVlong
p145
I3
sVcrap
p146
I1
sVbeef
p147
I3
sValways
p148
I1
sVboulevards
p149
I1
sVthree
p150
I1
sVcent
p151
I1
sVstart
p152
I1
sVdamn
p153
I1
sVtherefore
p154
I1
sVway
p155
I1
sV6
I1
sVmama
p156
I1
sVwhite
p157
I1
sVdroptop
p158
I1
sVtell
p159
I1
sVmore
p160
I1
sVlungs
p161
I1
sVboy
p162
I1
sVfire
p163
I1
sVbitches
p164
I1
sVtook
p165
I1
sVsales
p166
I1
sVpugilist
p167
I1
sVwhatsup
p168
I2
sVknown
p169
I1
sVline
p170
I1
sVhold
p171
I1
sVgim
p172
I1
sVyayo
p173
I1
sVme
p174
I3
sVgrew
p175
I1
sVrappin
p176
I2
sVlook
p177
I2
sVtryin
p178
I1
sVniggas
p179
I8
sVcar
p180
I1
sVriches
p181
I1
sVsay
p182
I3
sVtrick
p183
I1
sVsupposed
p184
I1
sVspoiled
p185
I1
sVthrew
p186
I1
sVtrips
p187
I1
sVheart
p188
I2
sVmink
p189
I1
sVtap
p190
I1
sV22s
p191
I1
sVplayed
p192
I1
sVpunk
p193
I1
sVstackin
p194
I1
sVbenz
p195
I1
sVfuck
p196
I1
sVrip
p197
I1
sVraw
p198
I2
sVcant
p199
I3
sVtissue
p200
I1
sVim
p201
I13
sVwant
p202
I4
sVneed
p203
I1
sVrid
p204
I1
sVtimes
p205
I1
sVdress
p206
I1
sVid
p207
I1
sVshit
p208
I2
sVfill
p209
I1
sVsell
p210
I2
sVdate
p211
I1
sVsoldier
p212
I1
sVrather
p213
I1
sVna
p214
I2
sVmake
p215
I4
sVtoaster
p216
I1
sVmaebach
p217
I1
sVlately
p218
I1
sVtil
p219
I1
sVfar
p220
I1
sVsquad
p221
I1
sVrape
p222
I1
sVreally
p223
I1
sVpicture
p224
I1
sVaskin
p225
I1
sVmouths
p226
I1
sVmother
p227
I1
sVrearrange
p228
I1
sVassault
p229
I1
sVgon
p230
I1
sVpumps
p231
I1
sVplan
p232
I1
sVphase
p233
I1
sVpool
p234
I1
sVgoin
p235
I1
sVbrucie
p236
I1
sVstatute
p237
I1
sVdrop
p238
I1
sVgrams
p239
I1
sVstraps
p240
I1
sVthought
p241
I1
sVgiving
p242
I1
sVloyal
p243
I1
sVvegas
p244
I1
sVgreen
p245
I1
sVlenses
p246
I1
sVgod
p247
I1
sVbanks
p248
I1
sVfresh
p249
I1
sVbumping
p250
I1
sV50
p251
I5
s.