(dp1
Vmaxing
p2
I1
sVlyrics
p3
I2
sVmoney
p4
I3
sVpointed
p5
I1
sVrevolver
p6
I1
sVfour
p7
I1
sVbring
p8
I1
sVgo
p9
I2
sVcorner
p10
I1
sVcold
p11
I1
sVstill
p12
I1
sVfeat
p13
I1
sVticket
p14
I1
sVrow
p15
I1
sVaint
p16
I3
sVstyle
p17
I1
sVslow
p18
I1
sVasthma
p19
I1
sVron
p20
I1
sVnines
p21
I1
sVworkers
p22
I1
sVdick
p23
I1
sVeither
p24
I2
sVbetter
p25
I1
sVbush
p26
I1
sVtape
p27
I1
sVteller
p28
I1
sVrich
p29
I1
sVmorgue
p30
I1
sVlets
p31
I1
sVcity
p32
I1
sVkick
p33
I1
sVhate
p34
I1
sVreal
p35
I1
sVsound
p36
I1
sVhandle
p37
I1
sVyo
p38
I2
sVget
p39
I2
sVbeat
p40
I1
sVstop
p41
I1
sVwoulda
p42
I1
sVkong
p43
I1
sVmention
p44
I1
sVfrontin
p45
I1
sVfive
p46
I1
sVmosley
p47
I1
sVstunt
p48
I1
sVbit
p49
I8
sVwalk
p50
I1
sVprojects
p51
I1
sVdisturb
p52
I1
sVattorneys
p53
I1
sVlike
p54
I7
sVpimp
p55
I1
sVsolver
p56
I1
sVdie
p57
I1
sVtimes
p58
I1
sVdrop
p59
I1
sV50
p60
I2
sVwait
p61
I1
sVleave
p62
I1
sVpredicted
p63
I1
sVrock
p64
I1
sVwent
p65
I1
sVquarter
p66
I1
sVautomatic
p67
I1
sVcoward
p68
I1
sVyall
p69
I2
sVmean
p70
I1
sVhummer
p71
I1
sVnigga
p72
I3
sVten
p73
I1
sV195
p74
I1
sVed
p75
I1
sVcomin
p76
I1
sVfeds
p77
I1
sVback
p78
I1
sVstarted
p79
I1
sVpast
p80
I1
sVfold
p81
I1
sVsee
p82
I1
sVcatching
p83
I1
sVbooth
p84
I1
sVmacs
p85
I1
sVarms
p86
I1
sVair
p87
I1
sVout
p88
I2
sVwhat
p89
I1
sVgon
p90
I2
sVhide
p91
I1
sVgod
p92
I2
sVaway
p93
I1
sVbreathin
p94
I1
sVbrief
p95
I1
sVpimpin
p96
I1
sVfind
p97
I1
sVapplaud
p98
I1
sVpump
p99
I1
sVun
p100
I1
sVcentral
p101
I1
sVgot
p102
I2
sVro
p103
I1
sVcause
p104
I1
sVtold
p105
I1
sVass
p106
I1
sVghostface
p107
I2
sVrun
p108
I3
sVnature
p109
I1
sVnever
p110
I1
sVjr
p111
I1
sVridah
p112
I1
sVlet
p113
I2
sVyork
p114
I1
sVkey
p115
I1
sVweed
p116
I1
sVvaccine
p117
I1
sVstaring
p118
I1
sVmaneuvers
p119
I1
sVsearch
p120
I1
sVmans
p121
I1
sVcured
p122
I1
sV22
p123
I2
sVg
I1
sVbong
p124
I1
sVill
p125
I2
sVvirus
p126
I1
sVscreamin
p127
I1
sVcreeping
p128
I1
sVadmit
p129
I3
sVclap
p130
I2
sVsmoke
p131
I1
sVstudio
p132
I1
sVsoundin
p133
I1
sVmakes
p134
I1
sVsilence
p135
I1
sVthats
p136
I1
sVartest
p137
I1
sVporsche
p138
I1
sVdepart
p139
I1
sVdont
p140
I2
sVrims
p141
I1
sVtwisted
p142
I1
sVfeet
p143
I1
sVright
p144
I1
sVstreet
p145
I1
sVfake
p146
I2
sVkobe
p147
I1
sVsugar
p148
I1
sVgeorge
p149
I1
sVwan
p150
I3
sVhorse
p151
I1
sVbeef
p152
I2
sVnine
p153
I2
sVgive
p154
I1
sVthree
p155
I1
sVcent
p156
I2
sVnext
p157
I1
sVimitate
p158
I1
sVgrave
p159
I1
sVway
p160
I1
sVblack
p161
I1
sVwhite
p162
I1
sVqueens
p163
I1
sVtell
p164
I2
sVdoor
p165
I1
sVfamilies
p166
I1
sVdeeper
p167
I1
sVinches
p168
I1
sVshane
p169
I1
sVphillies
p170
I1
sVpark
p171
I1
sVboys
p172
I1
sVpart
p173
I1
sVsuspensions
p174
I1
sVstick
p175
I1
sVnastradamus
p176
I1
sVlast
p177
I1
sVholder
p178
I1
sVkillah
p179
I2
sVme
p180
I5
sVfiends
p181
I1
sVensevilitus
p182
I1
sVknowin
p183
I1
sVniggas
p184
I13
sVdep
p185
I1
sVride
p186
I2
sVup
p187
I1
sVus
p188
I2
sVrack
p189
I1
sVtrey
p190
I1
sVfuture
p191
I1
sVobvious
p192
I1
sVhope
p193
I1
sVcoat
p194
I1
sVproblem
p195
I1
sVmagic
p196
I1
sV50s
p197
I1
sVpack
p198
I1
sVsewers
p199
I1
sVoutta
p200
I1
sVcentury
p201
I1
sVblacking
p202
I1
sVpro
p203
I1
sVbenz
p204
I1
sVfuck
p205
I3
sVmanure
p206
I1
sVneed
p207
I3
sVcant
p208
I1
sVim
p209
I8
sValike
p210
I1
sVrap
p211
I2
sVseen
p212
I1
sVready
p213
I1
sVhit
p214
I1
sVsits
p215
I1
sVshit
p216
I5
sVcream
p217
I1
sVbravehearted
p218
I1
sVhong
p219
I1
sVawkward
p220
I1
sVfloor
p221
I1
sVna
p222
I4
sVjuan
p223
I1
sVseeking
p224
I1
sVamount
p225
I1
sVimpotent
p226
I1
sVplot
p227
I1
sVmachine
p228
I1
sVnas
p229
I5
sVhot
p230
I4
sVwitch
p231
I1
sVdisappear
p232
I1
sVsick
p233
I1
sVinch
p234
I1
sVnew
p235
I1
sVyou
p236
I1
sVarithmetic
p237
I1
sVplay
p238
I1
sVleavin
p239
I1
sVpapi
p240
I1
sVmoms
p241
I1
sVblair
p242
I1
sVspot
p243
I1
sVaiyyo
p244
I4
sVstay
p245
I1
sVthru
p246
I1
sVmac
p247
I1
sVstars
p248
I1
sVeight
p249
I1
sVsooner
p250
I1
sVunless
p251
I1
sVstinkin
p252
I1
sVmentally
p253
I1
sVkid
p254
I1
sVpenitentiary
p255
I1
sVsomethin
p256
I2
sVwhole
p257
I1
sVyoure
p258
I1
sVnothin
p259
I1
sVminks
p260
I1
sVtightest
p261
I1
sVtalk
p262
I1
sVtatted
p263
I1
sVcon
p264
I1
sVfact
p265
I1
s.