(dp1
Vlyrics
p2
I2
sVshow
p3
I1
sVmoney
p4
I3
sVdollar
p5
I1
sVbring
p6
I1
sVkill
p7
I1
sVgo
p8
I1
sVhell
p9
I1
sVaint
p10
I2
sVpolice
p11
I1
sVbetter
p12
I4
sVrich
p13
I4
sVpay
p14
I1
sVhit
p15
I4
sVget
p16
I6
sVhostage
p17
I1
sVdope
p18
I1
sVbang
p19
I2
sVknow
p20
I1
sVkiss
p21
I1
sVwont
p22
I2
sVlike
p23
I5
sVspine
p24
I1
sVtre
p25
I1
sV50
p26
I2
sVbad
p27
I2
sVshots
p28
I1
sVnerves
p29
I1
sVnigga
p30
I4
sVback
p31
I2
sVsee
p32
I5
sVcatching
p33
I1
sVdumb
p34
I1
sVclose
p35
I1
sVbarrell
p36
I3
sVeven
p37
I1
sVgon
p38
I3
sVleak
p39
I1
sVaway
p40
I1
sVwaiting
p41
I1
sVgot
p42
I2
sVred
p43
I1
sVass
p44
I3
sVshut
p45
I1
sVpower
p46
I1
sVweak
p47
I1
sVlet
p48
I2
sVcomeback
p49
I1
sVcough
p50
I1
sVcare
p51
I1
sVshine
p52
I1
sVlast
p53
I1
sVgetting
p54
I2
sVill
p55
I1
sVpunk
p56
I1
sVturn
p57
I1
sVrange
p58
I1
sVsmoke
p59
I1
sVtheres
p60
I3
sVhead
p61
I1
sVlay
p62
I1
sVdont
p63
I3
sVpop
p64
I2
sVone
p65
I1
sVdown
p66
I1
sVpatience
p67
I1
sVright
p68
I1
sVdone
p69
I1
sVbitch
p70
I1
sVmiss
p71
I1
sVwan
p72
I2
sVlittle
p73
I1
sVworking
p74
I1
sVcaught
p75
I1
sVcent
p76
I1
sVgggggunit
p77
I1
sVlive
p78
I1
sVcall
p79
I2
sVway
p80
I2
sVtell
p81
I2
sVbox
p82
I1
sVeyes
p83
I1
sVmurder
p84
I1
sVfreestyle
p85
I2
sVmad
p86
I1
sVmine
p87
I1
sVsound
p88
I1
sVniggas
p89
I1
sVthis
p90
I1
sVcash
p91
I2
sVus
p92
I1
sVavengeance
p93
I1
sVnine
p94
I1
sVuh
p95
I1
sVpulling
p96
I1
sVat
p97
I1
sVpound
p98
I1
sVtaste
p99
I1
sVit
p100
I5
sVsay
p101
I1
sVim
p102
I4
sVsomething
p103
I2
sVprayer
p104
I1
sVshit
p105
I4
sVna
p106
I2
sV44
p107
I1
sVsix
p108
I1
sVya
p109
I6
sVhot
p110
I1
sVreally
p111
I3
sVsure
p112
I1
sVstay
p113
I1
sVbullets
p114
I1
sVblood
p115
I1
sVmag
p116
I2
sVnothing
p117
I1
sVyeah
p118
I2
sVchills
p119
I1
sVlight
p120
I1
sVclear
p121
I1
sVyoure
p122
I2
sVstash
p123
I1
sVricochet
p124
I1
sVgreatest
p125
I1
sVtime
p126
I4
sVfar
p127
I1
s.