(dp1
Vanought
p2
I1
sVlyrics
p3
I2
sVbenzo
p4
I1
sVbluffed
p5
I1
sVusualy
p6
I1
sVpaper
p7
I1
sVkill
p8
I1
sVrocked
p9
I1
sVfind
p10
I1
sVturnin
p11
I1
sVblow
p12
I1
sVcut
p13
I3
sVgrabbed
p14
I1
sVron
p15
I1
sVlisten
p16
I1
sVclk
p17
I1
sVfix
p18
I1
sVshow
p19
I1
sVcuz
p20
I1
sVbust
p21
I3
sVcrime
p22
I1
sVfeel
p23
I2
sVlorenzo
p24
I1
sVcrack
p25
I1
sVgangsta
p26
I8
sVblockup
p27
I1
sVworth
p28
I1
sVta
p29
I3
sVreal
p30
I1
sVme
p31
I4
sVmariella
p32
I1
sVhit
p33
I4
sVyopu
p34
I1
sVyo
p35
I4
sVget
p36
I5
sVfar
p37
I1
sVsucker
p38
I3
sVdope
p39
I1
sVsittin
p40
I1
sVwatch
p41
I3
sVda
p42
I1
sVshutting
p43
I1
sVfive
p44
I1
sVcare
p45
I1
sVnew
p46
I1
sVfront
p47
I1
sVblast
p48
I1
sVhim
p49
I2
sVbricks
p50
I1
sVroom
p51
I1
sVtriggers
p52
I1
sVanotha
p53
I1
sVlike
p54
I3
sVnotes
p55
I1
sVgettin
p56
I1
sV50
p57
I2
sVtalkin
p58
I1
sVgut
p59
I1
sVdeli
p60
I1
sVchick
p61
I1
sVwatchin
p62
I1
sVchrome
p63
I1
sVyall
p64
I6
sVmean
p65
I1
sVem
p66
I1
sVnigga
p67
I3
sVscared
p68
I1
sVisley
p69
I1
sVback
p70
I3
sVoh
p71
I1
sVsee
p72
I2
sVconnect
p73
I1
sVbusta
p74
I3
sVfilipe
p75
I1
sVwhip
p76
I2
sVreally
p77
I1
sVwhat
p78
I1
sVsaid
p79
I1
sVbet
p80
I1
sVaway
p81
I1
sVdisapper
p82
I1
sVcell
p83
I1
sVproof
p84
I2
sVit
p85
I2
sVgot
p86
I6
sVcause
p87
I7
sVslugs
p88
I2
sVuh
p89
I1
sVass
p90
I2
sVaint
p91
I15
sVrun
p92
I1
sVright
p93
I1
sVthong
p94
I1
sVsold
p95
I1
sVpushing
p96
I1
sVmotherfucker
p97
I3
sVsins
p98
I1
sVspray
p99
I1
sVyork
p100
I1
sVbacked
p101
I1
sV20
p102
I1
sVsayin
p103
I2
sVcop
p104
I2
sVwouldnt
p105
I3
sVlinger
p106
I1
sVill
p107
I2
sVla
p108
I1
sVtimes
p109
I1
sVthing
p110
I1
sVclap
p111
I2
sVpack
p112
I1
sVwhole
p113
I1
sVfuckin
p114
I1
sVthats
p115
I1
sVflick
p116
I1
sVlove
p117
I2
sVdont
p118
I8
sVgone
p119
I1
sVowe
p120
I1
sVwil
p121
I1
sVpop
p122
I2
sVone
p123
I2
sVtill
p124
I1
sVwit
p125
I3
sVdone
p126
I2
sVbitch
p127
I1
sVfake
p128
I3
sVtrust
p129
I3
sVhood
p130
I3
sVwan
p131
I1
sVfed
p132
I1
sVdevil
p133
I1
sVwould
p134
I1
sVyouse
p135
I3
sVhospital
p136
I1
sViller
p137
I1
sVcent
p138
I2
sVcoupe
p139
I1
sVcats
p140
I1
sVtele
p141
I1
sVway
p142
I1
sVgrimy
p143
I1
sVcall
p144
I1
sVthru
p145
I2
sVtype
p146
I1
sVnut
p147
I1
sVstage
p148
I1
sVpelle
p149
I2
sVcelly
p150
I1
sVhead
p151
I1
sVhard
p152
I1
sVspit
p153
I2
sVpacks
p154
I1
sVdrugs
p155
I1
sVcoke
p156
I1
sVbitches
p157
I1
sVhuh
p158
I1
sVrolleys
p159
I1
sVyeah
p160
I1
sVeevrytime
p161
I1
sVbroke
p162
I1
sVcatch
p163
I1
sVbelieve
p164
I1
sVduke
p165
I1
sVbout
p166
I1
sVcustomer
p167
I3
sVpull
p168
I1
sVnone
p169
I1
sVlocked
p170
I1
sVlook
p171
I1
sV19
p172
I1
sVtuck
p173
I1
sVup
p174
I4
sVniggaz
p175
I8
sVwar
p176
I1
sVtrey
p177
I2
sVtime
p178
I2
sVkosami
p179
I1
sVafta
p180
I1
sVdrops
p181
I1
sVcock
p182
I4
sV50s
p183
I1
sVsay
p184
I1
sVtheres
p185
I1
sVheart
p186
I1
sVpound
p187
I1
sVthatll
p188
I1
sVgive
p189
I1
sVperuvian
p190
I1
sVblood
p191
I1
sVslim
p192
I1
sVfuck
p193
I4
sVjewels
p194
I1
sVcant
p195
I1
sVim
p196
I4
sVwant
p197
I1
sVseen
p198
I1
sVshit
p199
I2
sVaround
p200
I1
sVsell
p201
I1
sVthugs
p202
I1
sVhoe
p203
I1
sVbulet
p204
I1
sVmil
p205
I1
sVpay
p206
I3
sVsix
p207
I1
sVarm
p208
I1
sVwrite
p209
I1
sVya
p210
I9
sVhot
p211
I1
sVsquare
p212
I1
sVbelly
p213
I1
sVpeoples
p214
I1
sVinch
p215
I1
sVfiring
p216
I1
sVstomp
p217
I3
sVweekday
p218
I1
sVweek
p219
I1
sVdeally
p220
I1
sVpapi
p221
I1
sVrhyme
p222
I2
sVassist
p223
I1
sVspot
p224
I1
sVweed
p225
I1
sVfeds
p226
I1
sVmad
p227
I1
sVsnitch
p228
I1
sVperili
p229
I1
sVslang
p230
I1
sVman
p231
I1
sVlight
p232
I1
sVrapping
p233
I1
sVfraudulent
p234
I3
sVna
p235
I1
sVfirst
p236
I1
sVtalk
p237
I1
s.