(dp1
Vall
p2
I1
sVhardheaded
p3
I1
sVlyrics
p4
I2
sVdirtiest
p5
I1
sVdance
p6
I1
sVmoney
p7
I4
sVkeep
p8
I1
sVmove
p9
I1
sVsouped
p10
I1
sVfelt
p11
I1
sVyears
p12
I1
sVkill
p13
I1
sVgang
p14
I1
sVhell
p15
I2
sVstill
p16
I1
sVmister
p17
I1
sVyonder
p18
I1
sVima
p19
I1
sVspokesman
p20
I1
sVslow
p21
I1
sVdepended
p22
I1
sVeverything
p23
I1
sVchips
p24
I1
sVdummyll
p25
I1
sVfailed
p26
I1
sVfinally
p27
I1
sVgoing
p28
I3
sVpitchin
p29
I2
sVyoungster
p30
I1
sVunder
p31
I1
sVfik
p32
I1
sVchill
p33
I1
sVski
p34
I1
sVta
p35
I1
sVfool
p36
I1
sVhit
p37
I1
sVget
p38
I3
sVya
p39
I2
sVsucker
p40
I1
sVdope
p41
I1
sVwatch
p42
I1
sVvallejo
p43
I1
sVgame
p44
I1
sVdisobedient
p45
I1
sVnew
p46
I1
sVbuyer
p47
I1
sVintersection
p48
I1
sVburnt
p49
I1
sVday
p50
I1
sVdreams
p51
I1
sVcool
p52
I1
sVschool
p53
I1
sVlike
p54
I5
sVill
p55
I1
sValways
p56
I1
sVrage
p57
I1
sVturnt
p58
I1
sVbad
p59
I1
sVstressmatic
p60
I1
sVnight
p61
I1
sVhigher
p62
I1
sVcourteous
p63
I1
sVpage
p64
I1
sVmean
p65
I1
sVem
p66
I2
sVnigga
p67
I5
sVacquired
p68
I1
sVtorch
p69
I2
sVback
p70
I8
sVup
p71
I3
sVnail
p72
I1
sVsee
p73
I1
sVball
p74
I1
sVbare
p75
I1
sVlawyer
p76
I1
sVhoes
p77
I1
sVbrodie
p78
I1
sVsport
p79
I2
sVport
p80
I1
sVwhip
p81
I1
sVgon
p82
I4
sVfederal
p83
I1
sVfeat
p84
I1
sVspendin
p85
I1
sVcameras
p86
I1
sVmelt
p87
I1
sVyet
p88
I1
sVlooking
p89
I2
sVprevailed
p90
I1
sVgot
p91
I8
sVsuckers
p92
I1
sVforth
p93
I7
sVmindframe
p94
I1
sVaint
p95
I2
sVburn
p96
I1
sVfuneral
p97
I1
sVnever
p98
I2
sV40cal
p99
I1
sVpockets
p100
I1
sVgrandma
p101
I1
sVactive
p102
I1
sVcousin
p103
I2
sVweed
p104
I1
sVdice
p105
I1
sVfaced
p106
I1
sVshove
p107
I1
sVgetting
p108
I3
sVhealthy
p109
I1
sVtaking
p110
I1
sVbitches
p111
I1
sVnewass
p112
I1
sVmagazine
p113
I1
sVrepellent
p114
I1
sVsmoke
p115
I1
sVturf
p116
I1
sVwhole
p117
I1
sVstoplight
p118
I1
sVroad
p119
I1
sVfake
p120
I1
sVitll
p121
I1
sVdont
p122
I5
sVdenim
p123
I1
sVsol
p124
I1
sVsnub
p125
I1
sVthirtyish
p126
I1
sVfiend
p127
I1
sVcocaine
p128
I1
sVsinging
p129
I1
sVcaliharmya
p130
I1
sVeverybody
p131
I1
sVps
p132
I1
sVsonny
p133
I1
sVmailman
p134
I1
sVwould
p135
I1
sVarea
p136
I1
sVstainless
p137
I1
sVtwo
p138
I2
sVbump
p139
I1
sVcall
p140
I1
sVmotherfuck
p141
I1
sVblow
p142
I1
sVmama
p143
I1
sVdamn
p144
I1
sVcookin
p145
I1
sVtell
p146
I2
sVlife
p147
I1
sVstreets
p148
I1
sVbitchs
p149
I1
sVspit
p150
I1
sVporch
p151
I2
sVfire
p152
I1
sVheal
p153
I1
sVnobody
p154
I2
sVgas
p155
I1
sVsickest
p156
I1
sVkitchen
p157
I1
sVyeah
p158
I1
sVdowntown
p159
I1
sVforward
p160
I1
sVwake
p161
I1
sVpinch
p162
I1
sVeat
p163
I1
sVhe
p164
I1
sVme
p165
I7
sVe40
p166
I1
sVshowed
p167
I1
sVniggas
p168
I2
sVskrilla
p169
I1
sVshow
p170
I1
sVery
p171
I1
sVclips
p172
I1
sVlaveranues
p173
I1
sVuh
p174
I1
sVfried
p175
I1
sVcould
p176
I1
sVtheres
p177
I1
sVrototiller
p178
I1
sVgive
p179
I3
sVflow
p180
I1
sVmind
p181
I1
sVsomebody
p182
I1
sVcant
p183
I2
sVhomie
p184
I1
sVim
p185
I2
sVwant
p186
I1
sVneed
p187
I4
sVseen
p188
I2
sVeducation
p189
I1
sVshit
p190
I2
sVsell
p191
I1
sVweights
p192
I1
sVcourt
p193
I2
sVlil
p194
I1
sVna
p195
I2
sVprobly
p196
I1
sVmilk
p197
I1
sVconnection
p198
I1
sVcrack
p199
I1
sVtil
p200
I1
sVfar
p201
I1
sVtake
p202
I1
sVgreen
p203
I1
sVsmell
p204
I2
sVcoke
p205
I2
sVnice
p206
I1
sVeternity
p207
I2
sVgrown
p208
I1
sVused
p209
I1
sVrolaids
p210
I1
sVwelcome
p211
I1
sVfucker
p212
I1
sVstay
p213
I3
sVchance
p214
I1
sVsaid
p215
I2
sVmouth
p216
I1
sVmen
p217
I1
sVsnitch
p218
I1
sVnothing
p219
I1
sVend
p220
I1
sVman
p221
I3
sVforever
p222
I1
sVcause
p223
I1
sVmask
p224
I1
sV357
p225
I1
sVjail
p226
I1
sVclean
p227
I1
sVgod
p228
I1
sVyell
p229
I1
sVmake
p230
I1
sVtalk
p231
I2
s.