(dp1
Vgates
p2
I5
sVlyrics
p3
I2
sVless
p4
I1
sVmoney
p5
I1
sVburners
p6
I2
sVwedding
p7
I1
sVinvent
p8
I1
sVgo
p9
I2
sVhell
p10
I2
sVcold
p11
I1
sVstill
p12
I1
sVfeat
p13
I1
sVroots
p14
I1
sVbloods
p15
I1
sVaint
p16
I2
sVgold
p17
I2
sVhead
p18
I1
sVmusta
p19
I1
sVpoppin
p20
I2
sVcuz
p21
I1
sVbetter
p22
I2
sVlets
p23
I1
sVactin
p24
I1
sVrich
p25
I1
sVhomies
p26
I1
sVregal
p27
I1
sVmail
p28
I1
sVmight
p29
I3
sVta
p30
I1
sVreal
p31
I1
sVme
p32
I2
sVcube
p33
I3
sVhit
p34
I1
sVyo
p35
I3
sVget
p36
I3
sVya
p37
I1
sVbig
p38
I4
sVdope
p39
I1
sVuhh
p40
I2
sVcrackalatin
p41
I1
sVridin
p42
I2
sVgrew
p43
I1
sVevery
p44
I2
sVknow
p45
I3
sVplates
p46
I1
sVblast
p47
I2
sVprojects
p48
I1
sVplacin
p49
I1
sVearl
p50
I1
sVheaven
p51
I2
sVlike
p52
I7
sVeverytime
p53
I1
sVcleaners
p54
I1
sVfartin
p55
I1
sVslide
p56
I1
sVdip
p57
I1
sVside
p58
I1
sVwrote
p59
I1
sVduck
p60
I1
sVbets
p61
I1
sVnigga
p62
I4
sVneighborhood
p63
I1
sVhabitat
p64
I1
sVpeople
p65
I1
sVcomin
p66
I1
sVbacon
p67
I1
sVback
p68
I1
sVrolex
p69
I1
sVhair
p70
I1
sVtouch
p71
I2
sVsee
p72
I4
sVfull
p73
I1
sVcollege
p74
I1
sVcant
p75
I4
sVbluffin
p76
I1
sVgirl
p77
I1
sVgodzillaass
p78
I1
sVyknow
p79
I3
sVreally
p80
I1
sVeven
p81
I2
sVheaters
p82
I1
sVpenthouses
p83
I1
sVsaid
p84
I1
sVcarts
p85
I1
sVice
p86
I3
sVcalfironia
p87
I1
sVgrizzliest
p88
I1
sVbehind
p89
I4
sVfinger
p90
I1
sVgot
p91
I8
sVbunch
p92
I1
sVever
p93
I1
sVslugs
p94
I1
sVass
p95
I3
sVeagle
p96
I1
sVtoes
p97
I1
sVwan
p98
I1
sVcars
p99
I1
sVnever
p100
I1
sVlittle
p101
I1
sVmotherfucker
p102
I1
sVhours
p103
I1
sVhouses
p104
I2
sVtracks
p105
I1
sVcalifornia
p106
I3
sVsmokin
p107
I1
sVput
p108
I1
sVpeep
p109
I1
sVcome
p110
I1
sVlegit
p111
I1
sVol
p112
I2
sVlanguage
p113
I1
sVfifteen
p114
I1
sVsex
p115
I1
sVtruck
p116
I1
sVplayers
p117
I2
sVitty
p118
I1
sVlet
p119
I1
sVwheels
p120
I1
sVshootin
p121
I1
sVshittin
p122
I1
sVmotherfuckers
p123
I1
sVshoppin
p124
I1
sVthats
p125
I2
sVbitty
p126
I1
sVlove
p127
I1
sVdont
p128
I2
sVmakin
p129
I2
sVmobass
p130
I1
sVbitch
p131
I7
sVcraps
p132
I1
sVscottish
p133
I1
sVsober
p134
I1
sVold
p135
I1
sVsoul
p136
I1
sVcocaine
p137
I1
sVmayonnaisezinas
p138
I1
sVhood
p139
I1
sVflamboastin
p140
I1
sVhorse
p141
I1
sVnaps
p142
I1
sVten
p143
I2
sVstuck
p144
I1
sVdestined
p145
I1
sVtogether
p146
I1
sVdub
p147
I1
sVconstantly
p148
I1
sVdude
p149
I1
sVtwo
p150
I2
sVpuuhpurposes
p151
I1
sVstart
p152
I1
sVmayne
p153
I1
sVruffnecks
p154
I1
sVlow
p155
I1
sVrollin
p156
I2
sVjingle
p157
I1
sVwhite
p158
I1
sVtell
p159
I1
sVreflects
p160
I1
sVflat
p161
I1
sVbowed
p162
I1
sVnickel
p163
I1
sVpimpin
p164
I4
sVpark
p165
I1
sVnegro
p166
I1
sVit
p167
I1
sVtickinass
p168
I1
sVheat
p169
I2
sVbroke
p170
I2
sVours
p171
I1
sVbelieve
p172
I1
sVtown
p173
I1
sVpull
p174
I1
sVe40
p175
I3
sVstolen
p176
I1
sVtapes
p177
I1
sVservin
p178
I1
sVthis
p179
I1
sVcar
p180
I1
sVthumper
p181
I2
sVsingle
p182
I1
sVniggaz
p183
I3
sVlapd
p184
I1
sVtrick
p185
I1
sVsupposed
p186
I1
sVfakin
p187
I1
sVpiece
p188
I1
sVminutes
p189
I1
sVexcursion
p190
I1
sVlingo
p191
I1
sVrent
p192
I2
sVconstipated
p193
I1
sVbitin
p194
I1
sVbentley
p195
I1
sVsay
p196
I2
sVim
p197
I8
sVforizzo
p198
I1
sVdress
p199
I1
sVevidently
p200
I1
sVshit
p201
I3
sVdifferent
p202
I2
sVstrength
p203
I1
sVfool
p204
I1
sVturn
p205
I1
sVna
p206
I1
sVmic
p207
I2
sVmills
p208
I1
sV40
p209
I1
sVtearin
p210
I1
sVtil
p211
I1
sVsick
p212
I1
sVjail
p213
I3
sVfools
p214
I1
sVenemies
p215
I1
sVnice
p216
I1
sVstatus
p217
I1
sVplay
p218
I1
sVmustard
p219
I1
sVthough
p220
I1
sVtrack
p221
I1
sVdoin
p222
I1
sVevil
p223
I1
sVkeepin
p224
I1
sVfore
p225
I1
sVmansion
p226
I2
sVford
p227
I1
sVdesert
p228
I1
sVsomethin
p229
I1
sVwhole
p230
I1
sVgame
p231
I1
sVnothin
p232
I1
sVconcrete
p233
I1
sVego
p234
I1
sVblock
p235
I1
sVoffend
p236
I1
sVlookin
p237
I1
sVspend
p238
I1
sVtalk
p239
I1
s.