(dp1
Vlyrics
p2
I2
sVshow
p3
I1
sVstove
p4
I1
sVyadadamean
p5
I1
sVraised
p6
I1
sVthumbs
p7
I1
sVpitch
p8
I1
sVgo
p9
I1
sVtone
p10
I1
sVraddish
p11
I1
sVfeat
p12
I1
sVjerome
p13
I1
sVscorchers
p14
I1
sVhah
p15
I1
sVjose
p16
I1
sVvet
p17
I1
sVlicks
p18
I1
sVcherry
p19
I1
sVyoung
p20
I1
sVfilipinos
p21
I1
sVparents
p22
I1
sVregan
p23
I1
sVta
p24
I2
sVmobbed
p25
I1
sVgood
p26
I1
sVhit
p27
I2
sVfederation
p28
I1
sVget
p29
I1
sVbushmasters
p30
I1
sVcould
p31
I1
sVtricking
p32
I1
sVstop
p33
I2
sVtrees
p34
I1
sValbino
p35
I2
sVknow
p36
I2
sVlistening
p37
I2
sVtaking
p38
I1
sVreplace
p39
I1
sVcoon
p40
I1
sVtongans
p41
I1
sVtreating
p42
I1
sVlike
p43
I6
sVlettuce
p44
I1
sVflowers
p45
I1
sVrocks
p46
I1
sVstressmatic
p47
I1
sVoooh
p48
I3
sVsidewalk
p49
I1
sVprecaution
p50
I1
sVstraight
p51
I1
sVclothes
p52
I2
sVheavy
p53
I1
sVtwelve
p54
I1
sVmurk
p55
I1
sVold
p56
I1
sVboi
p57
I11
sVscraper
p58
I1
sVholler
p59
I1
sVroof
p60
I1
sVhoes
p61
I1
sVhome
p62
I1
sVbest
p63
I1
sVvigils
p64
I1
sVcandlelight
p65
I1
sVbarstow
p66
I1
sVgod
p67
I2
sVeverything
p68
I1
sVtremendo
p69
I1
sVhood
p70
I1
sVsacramento
p71
I1
sVgot
p72
I4
sVever
p73
I1
sV33yearold
p74
I1
sVbody
p75
I1
sVaint
p76
I4
sVaugust
p77
I1
sVnoriega
p78
I1
sVsideways
p79
I1
sVkangaroo
p80
I1
sVnever
p81
I2
sVlem
p82
I1
sVunheathable
p83
I1
sVhours
p84
I1
sVsmacking
p85
I1
sVstudio
p86
I1
sVput
p87
I3
sVsuckers
p88
I1
sVwanted
p89
I1
sVextreme
p90
I1
sVscary
p91
I1
sVboast
p92
I1
sVbroken
p93
I1
sVtheirs
p94
I1
sVpits
p95
I2
sVdays
p96
I1
sVfeasible
p97
I1
sVchevy
p98
I3
sVthing
p99
I4
sVmagazine
p100
I2
sVunc
p101
I2
sVplus
p102
I1
sVturf
p103
I2
sVwaterbed
p104
I1
sVhead
p105
I3
sVblock
p106
I35
sVthats
p107
I1
sVar70s
p108
I1
sValready
p109
I2
sVlove
p110
I1
sVdont
p111
I2
sVradish
p112
I1
sVone
p113
I6
sVwash
p114
I1
sVmomma
p115
I1
sVright
p116
I1
sVpatriots
p117
I1
sVtoys
p118
I1
sVcocaine
p119
I1
sV22s
p120
I1
sVrolls
p121
I1
sVflamboast
p122
I1
sVwan
p123
I1
sVvan
p124
I2
sVbeef
p125
I1
sVchrome
p126
I1
sVfunerals
p127
I1
sVtwo
p128
I1
sVmuch
p129
I1
sVcall
p130
I1
sVrock
p131
I1
sVman
p132
I1
sVtryna
p133
I2
sVlife
p134
I1
sVbuy
p135
I1
sVbblock
p136
I6
sVmiko
p137
I1
sVogs
p138
I1
sVit
p139
I2
sVgrief
p140
I1
sVheat
p141
I1
sVsmoking
p142
I2
sVflawless
p143
I2
sVme
p144
I2
sVpull
p145
I1
sVe40
p146
I1
sVvalley
p147
I1
sVlook
p148
I8
sVmeek
p149
I1
sVcar
p150
I1
sVride
p151
I3
sVthumper
p152
I2
sVup
p153
I2
sVus
p154
I3
sVugly
p155
I1
sVthree
p156
I2
sVturfs
p157
I1
sVpimping
p158
I1
sVpiece
p159
I1
sVplum
p160
I1
sVcleaner
p161
I1
sVcane
p162
I2
sVhotter
p163
I1
sVsan
p164
I1
sVgive
p165
I1
sVsoil
p166
I1
sVyear
p167
I1
sVpopped
p168
I1
sVmine
p169
I1
sVdeep
p170
I1
sVtalking
p171
I1
sVcant
p172
I1
sVplayboy
p173
I1
sVim
p174
I6
sVnumbers
p175
I2
sVave
p176
I2
sVturn
p177
I1
sVslab
p178
I3
sVfame
p179
I2
sVgrown
p180
I1
sVdetonate
p181
I1
sVsquat
p182
I1
sVincredible
p183
I1
sVna
p184
I1
sVmake
p185
I2
sVwatching
p186
I1
sVbeside
p187
I1
sVbeat
p188
I1
sVhot
p189
I1
sVtake
p190
I3
sVsick
p191
I2
sVroll
p192
I1
sVcholos
p193
I1
sVbabies
p194
I1
sVchurch
p195
I1
sVkeep
p196
I2
sVinvasions
p197
I1
sVrappers
p198
I1
sVfootball
p199
I2
sVblame
p200
I1
sVyoungsters
p201
I2
sVchance
p202
I1
sVstreets
p203
I1
sVbut
p204
I1
sVcabbage
p205
I2
sVlaw
p206
I1
sVguys
p207
I2
sVeyes
p208
I1
sVyeah
p209
I1
sVland
p210
I1
sVe
I1
sVlatins
p211
I1
sVm
I1
sVchemical
p212
I1
sVrallies
p213
I2
sVdisrespecting
p214
I1
sVlying
p215
I1
sVleft
p216
I1
s.