(dp1
Vsummer
p2
I1
sVkillllllllled
p3
I1
sVshot
p4
I2
sVlyrics
p5
I2
sVless
p6
I1
sVyea
p7
I1
sVscratch
p8
I1
sVdollar
p9
I1
sVsoon
p10
I1
sVyellow
p11
I1
sVfifty
p12
I1
sVbloody
p13
I1
sVkill
p14
I1
sVshoe
p15
I1
sVcds
p16
I1
sVgo
p17
I1
sVgs
p18
I2
sVstill
p19
I3
sVfeat
p20
I1
sVfind
p21
I1
sVxo
p22
I1
sVextra
p23
I1
sVblast
p24
I2
sVhead
p25
I1
sVtv
p26
I1
sVguts
p27
I1
sVbetter
p28
I3
sVrich
p29
I1
sVfiend
p30
I1
sVghetto
p31
I1
sVbeotch
p32
I1
sVsure
p33
I1
sVta
p34
I1
sVreal
p35
I2
sVhit
p36
I1
sVaround
p37
I2
sVget
p38
I5
sVya
p39
I1
sVwad
p40
I1
sVdope
p41
I1
sVe40
p42
I1
sVpocket
p43
I1
sVlukes
p44
I1
sVgame
p45
I1
sVones
p46
I2
sVevery
p47
I2
sVknow
p48
I1
sVwords
p49
I1
sVbasement
p50
I1
sVstacked
p51
I1
sVnow
p52
I1
sVlike
p53
I5
sVname
p54
I1
sVtear
p55
I1
sVdie
p56
I1
sVgettin
p57
I1
sVyield
p58
I1
sVleave
p59
I2
sVbilly
p60
I3
sVtrap
p61
I1
sVman
p62
I2
sVwrecked
p63
I1
sVdoubler
p64
I1
sVearl40
p65
I1
sVpenalized
p66
I1
sVem
p67
I1
sVtwelve
p68
I1
sVsquare
p69
I1
sVbooty
p70
I1
sVexcons
p71
I1
sVp
I1
sVhouse
p72
I1
sVhard
p73
I1
sVpopo
p74
I1
sVcash
p75
I1
sVsee
p76
I3
sVused
p77
I1
sVdumb
p78
I1
sVniggaz
p79
I7
sVpass
p80
I1
sVsplurgin
p81
I1
sVcriphop
p82
I1
sVehhh
p83
I1
sVenemies
p84
I1
sVeven
p85
I1
sVmotowns
p86
I1
sVwhat
p87
I1
sVgon
p88
I4
sV40water
p89
I2
sVtwice
p90
I1
sVmotherfuckin
p91
I2
sVnoon
p92
I1
sVsurrounded
p93
I1
sVpull
p94
I1
sVfucks
p95
I1
sVplucked
p96
I1
sVprops
p97
I1
sVtycoons
p98
I1
sVgot
p99
I1
sVcause
p100
I10
sVrappers
p101
I1
sVhustle
p102
I1
sVass
p103
I3
sVaint
p104
I1
sVfull
p105
I1
sVcity
p106
I1
sVfelony
p107
I1
sVnight
p108
I1
sVmotherfucker
p109
I1
sVfree
p110
I1
sVstrap
p111
I1
sVcake
p112
I1
sVspray
p113
I1
sVsmokin
p114
I1
sVfuck
p115
I3
sVcousin
p116
I1
sVbroccoli
p117
I1
sVwealth
p118
I1
sVon
p119
I1
sVlast
p120
I1
sVspill
p121
I2
sVill
p122
I1
sVreason
p123
I1
sVkeep
p124
I1
sVplayers
p125
I1
sVzeniths
p126
I1
sVyall
p127
I5
sVhennesey
p128
I1
sVdis
p129
I1
sVwhole
p130
I2
sVthink
p131
I3
sVblock
p132
I1
sVthats
p133
I1
sVeyebrows
p134
I1
sVmajor
p135
I1
sVwid
p136
I1
sVdont
p137
I5
sVjayo
p138
I1
sVshirt
p139
I1
sVpop
p140
I2
sVone
p141
I1
sVwit
p142
I2
sVbitch
p143
I3
sVaway
p144
I1
sVcrooks
p145
I2
sVrefill
p146
I1
sVhang
p147
I1
sVmillions
p148
I1
sVeverybody
p149
I1
sVwan
p150
I2
sVestate
p151
I1
sVzip
p152
I1
sVillegal
p153
I1
sVtop
p154
I1
sVdestination
p155
I1
sVfast
p156
I1
sVmark
p157
I2
sVhoundin
p158
I1
sVbeer
p159
I1
sVcall
p160
I1
sVway
p161
I1
sVwrapped
p162
I1
sVrode
p163
I1
sVhundred
p164
I2
sVtype
p165
I1
sVwhoa
p166
I1
sVehh
p167
I1
sVpelle
p168
I2
sVlife
p169
I3
sVplayboy
p170
I1
sVpd
p171
I1
sVbuck
p172
I1
sVgetcha
p173
I1
sVundertuckamajig
p174
I1
sVgas
p175
I1
sVweight
p176
I1
sVloco
p177
I5
sVpayne
p178
I1
sVbrougham
p179
I1
sVnigga
p180
I9
sVquick
p181
I1
sVbelieve
p182
I2
sVme
p183
I1
sVhigh
p184
I1
sVnone
p185
I1
sVgrew
p186
I1
sVfore
p187
I1
sVlook
p188
I1
sVtryin
p189
I1
sVthese
p190
I1
sVride
p191
I1
sVbill
p192
I1
sVdurin
p193
I1
sVus
p194
I4
sVprayin
p195
I1
sVwill
p196
I1
sVremi
p197
I1
sVcan
p198
I5
sVcharlie
p199
I1
sVnuthin
p200
I1
sVfortywadahhhhhhhhh
p201
I1
sVdaddy
p202
I1
sVpushin
p203
I1
sVcontrol
p204
I1
sVlick
p205
I1
sVfalse
p206
I1
sVclip
p207
I2
sVgive
p208
I1
sVam
p209
I1
sVcbo
p210
I1
sVjewels
p211
I1
sVspent
p212
I1
sVgorde
p213
I1
sVcant
p214
I3
sVthirtytwo
p215
I1
sVdropped
p216
I1
sVwant
p217
I1
sVready
p218
I1
sVtake
p219
I2
sVseem
p220
I1
sVexpedited
p221
I1
sVshit
p222
I2
sVsell
p223
I1
sVsippin
p224
I1
sVwinter
p225
I1
sVtrill
p226
I1
sVna
p227
I3
sVmake
p228
I1
sVproblems
p229
I1
sVnarcotics
p230
I1
sVwrite
p231
I1
sVhow
p232
I1
sVsquab
p233
I1
sVsick
p234
I1
sVbentleys
p235
I1
sVfools
p236
I1
sVheyday
p237
I1
sVstock
p238
I1
sVdumptrucks
p239
I1
sVcristal
p240
I1
sVplay
p241
I1
sVextended
p242
I1
sVwrists
p243
I1
sVknees
p244
I1
sVit
p245
I3
sVspot
p246
I1
sVpimpn
p247
I1
sVball
p248
I1
sVprepared
p249
I1
sVhiphop
p250
I1
sVstars
p251
I1
sVblood
p252
I1
sVcollar
p253
I1
sVeyes
p254
I1
sVdrop
p255
I1
sVdealers
p256
I1
sVtry
p257
I2
sVdeallllllllll
p258
I1
sVhaul
p259
I1
sVstash
p260
I1
sVdey
p261
I1
sVpush
p262
I1
sVtall
p263
I1
sVparole
p264
I1
sVcorporate
p265
I1
sVscream
p266
I1
sVwind
p267
I1
s.