(dp1
Vgolf
p2
I1
sVbeefin
p3
I1
sVlyrics
p4
I2
sVmoney
p5
I1
sVinmy
p6
I1
sVswerving
p7
I1
sVbrain
p8
I1
sVsatisfyin
p9
I1
sVsleep
p10
I1
sVhanging
p11
I1
sVpaul
p12
I1
sVfeat
p13
I1
sVbridges
p14
I1
sVvet
p15
I1
sVgold
p16
I1
sVbotch
p17
I2
sVswam
p18
I1
sVrose
p19
I1
sVit\u2019s
p20
I1
sVyoung
p21
I2
sVlate
p22
I1
sVgoing
p23
I1
sVrick
p24
I1
sVbout
p25
I2
sVgrippin
p26
I1
sVross
p27
I1
sVreal
p28
I1
sVthem
p29
I1
sVgood
p30
I1
sVyo
p31
I4
sVget
p32
I3
sVi\u2019m
p33
I7
sVbig
p34
I2
sVstop
p35
I1
sVtrees
p36
I1
sVearly
p37
I1
sVgame
p38
I1
sVkillers
p39
I1
sVevery
p40
I1
sVprobably
p41
I1
sVsurgeon
p42
I1
sVd
I1
sVlike
p43
I11
sVi\u2019ll
p44
I1
sVrobbin
p45
I1
sVmorning
p46
I1
sVnight
p47
I1
sVpayton
p48
I1
sVain\u2019t
p49
I1
sVbitch
p50
I4
sVnigga
p51
I3
sVdeal
p52
I1
sVback
p53
I1
sVyou\u2019re
p54
I1
sV10th
p55
I1
sVsee
p56
I1
sVused
p57
I2
sVgirl
p58
I1
sVpeter
p59
I1
sVmill
p60
I1
sVwhip
p61
I1
sVer
p62
I1
sVblue
p63
I1
sVgon
p64
I1
sVgiving
p65
I1
sVornament
p66
I1
sVtippin
p67
I1
sVdiamonds
p68
I1
sVit
p69
I2
sVgot
p70
I5
sVburned
p71
I1
sVchampagne
p72
I6
sVcan\u2019t
p73
I1
sVnever
p74
I3
sVbusiness
p75
I2
sVfuneral
p76
I1
sVmillion
p77
I2
sVfrench
p78
I1
sVlotion
p79
I1
sVmet
p80
I1
sVcalifornia
p81
I1
sVfree
p82
I1
sVbs
p83
I1
sVput
p84
I4
sVmerlin\u2019s
p85
I1
sVthrow
p86
I2
sVcubical
p87
I1
sVthumb
p88
I1
sVboy
p89
I1
sVtraining
p90
I2
sVarrive
p91
I1
sVyard
p92
I1
sVog
p93
I1
sVkeep
p94
I1
sVmane
p95
I1
sVwilin
p96
I1
sVchain
p97
I2
sVpoint
p98
I1
sVsplit
p99
I1
sVflirtin
p100
I1
sVstrap
p101
I1
sVpacify
p102
I1
sVindoors
p103
I1
sVlung
p104
I1
sVbrush
p105
I4
sVgary
p106
I1
sVballin
p107
I1
sVexpensive
p108
I1
sVpharmaceutical
p109
I4
sVfast
p110
I1
sVplastic
p111
I1
sVmusic
p112
I1
sVdon\u2019t
p113
I1
sVxan
p114
I1
sVlegs
p115
I1
sVtell
p116
I1
sVfunction
p117
I1
sVhead
p118
I1
sVsaid
p119
I1
sVcop
p120
I1
sVclub
p121
I1
sVcoke
p122
I1
sVgat
p123
I1
sVargument
p124
I1
sVglass
p125
I1
sVbaby
p126
I1
sVlast
p127
I1
sVear
p128
I1
sVweeks
p129
I1
sVmercy
p130
I1
sVe40
p131
I3
sVmade
p132
I1
sVlook
p133
I1
sVwearin
p134
I1
sVniggas
p135
I1
sVdouble
p136
I1
sVstraight
p137
I2
sVjergens
p138
I1
sVlizard
p139
I1
sVcrossed
p140
I1
sVmonument
p141
I1
sVwild
p142
I1
sVta
p143
I2
sVfull
p144
I1
sVgive
p145
I1
sVtournament
p146
I1
sVkisses
p147
I1
sVfuck
p148
I3
sVhigh
p149
I1
sVmiddle
p150
I1
sVsense
p151
I1
sVspa
p152
I1
sVforeign
p153
I1
sVsell
p154
I2
sVsippin
p155
I1
sVdrugs
p156
I2
sVair
p157
I1
sVhere
p158
I1
sVspeedboat
p159
I1
sVfire
p160
I1
sVhot
p161
I1
sVsquare
p162
I1
sVtake
p163
I2
sVtalkin
p164
I1
sV10
p165
I1
sVsprinkle
p166
I1
sVball
p167
I1
sVthat\u2019s
p168
I1
sVtime
p169
I1
sVfiretruck
p170
I1
sVwhippin
p171
I1
sVmontana
p172
I1
sVfucked
p173
I2
sVfilthy
p174
I1
sVwheels
p175
I2
sVpool
p176
I1
sVman
p177
I1
sVghost
p178
I1
sVsuffers
p179
I1
sVoff
p180
I1
sVboys
p181
I1
sV30r6
p182
I1
sVm
I1
sVface
p183
I1
sVjacket
p184
I1
sVhella
p185
I1
sVgreen
p186
I1
sVclean
p187
I1
sVteeth
p188
I4
sVfar
p189
I1
sVsmoked
p190
I1
s.