(dp1
Vsco
p2
I1
sVlyrics
p3
I2
sVamong
p4
I1
sVmoney
p5
I1
sVkrunks
p6
I1
sVhadnt
p7
I1
sVpaper
p8
I2
sVgo
p9
I1
sVwhats
p10
I1
sVcaptain
p11
I1
sVaint
p12
I4
sVstyle
p13
I1
sVcollars
p14
I1
sVcoattail
p15
I1
sVchasin
p16
I1
sVshow
p17
I1
sVpoppin
p18
I1
sVking
p19
I1
sVabout
p20
I1
sVbout
p21
I1
sVeast
p22
I1
sVmight
p23
I1
sVkick
p24
I2
sVstutterin
p25
I1
sVdad
p26
I1
sVgood
p27
I12
sVhit
p28
I3
sVlivin
p29
I1
sVget
p30
I3
sVrules
p31
I1
sVsucker
p32
I1
sVstickin
p33
I1
sVuhh
p34
I1
sVtacos
p35
I1
sVscrilla
p36
I1
sVgame
p37
I1
sVgrew
p38
I1
sVknow
p39
I9
sVnasty
p40
I1
sVdr
p41
I1
sVfag
p42
I1
sVghetto
p43
I1
sVknock
p44
I1
sVwhatchu
p45
I1
sVbar
p46
I1
sVlike
p47
I6
sValways
p48
I1
sVmoesha
p49
I1
sVpretzel
p50
I1
sVscratchin
p51
I1
sVperfume
p52
I1
sVsignin
p53
I1
sVbag
p54
I1
sVbad
p55
I1
sVveins
p56
I1
sVdialin
p57
I1
sVcounters
p58
I1
sVnerve
p59
I1
sVclothes
p60
I1
sVnigga
p61
I1
sVjust
p62
I1
sVwoulda
p63
I2
sVliquor
p64
I1
sVback
p65
I1
sVboots
p66
I1
sVcologne
p67
I1
sVmantra
p68
I1
sVsee
p69
I1
sVtaught
p70
I1
sVsponsor
p71
I1
sVhoes
p72
I1
sVsport
p73
I2
sVclick
p74
I1
sVeven
p75
I1
sVstands
p76
I1
sVlipstick
p77
I1
sVcloset
p78
I1
sVpump
p79
I1
sVblunts
p80
I1
sVprada
p81
I1
sVgot
p82
I2
sVever
p83
I1
sVhustle
p84
I1
sVfull
p85
I1
sVmonster
p86
I1
sVlove
p87
I1
sVmashin
p88
I1
sVregulationship
p89
I1
sVstep
p90
I1
sVpull
p91
I1
sVfetti
p92
I1
sVembarassing
p93
I1
sVsuper
p94
I1
sVthrow
p95
I1
sVkitchen
p96
I1
sVchickenheads
p97
I1
sVgoods
p98
I1
sVlast
p99
I1
sVbenches
p100
I1
sVstickyickies
p101
I1
sVdollars
p102
I1
sVwalkin
p103
I1
sValcohol
p104
I1
sVadmit
p105
I1
sVsmoke
p106
I1
sVact
p107
I1
sVtongue
p108
I1
sVglasses
p109
I1
sVtop
p110
I1
sVsouth
p111
I1
sVthats
p112
I2
sVcheese
p113
I1
sVraised
p114
I1
sVtough
p115
I1
sVdont
p116
I1
sVfeel
p117
I1
sVone
p118
I1
sVearring
p119
I1
sVhood
p120
I3
sVsize
p121
I1
sVbaby
p122
I1
sVarea
p123
I1
sVwest
p124
I1
sVdamp
p125
I1
sVhey
p126
I2
sVstuck
p127
I1
sVcall
p128
I1
sVtryin
p129
I1
sVautographs
p130
I1
sVdogs
p131
I1
sVvans
p132
I1
sVlungs
p133
I1
sVbus
p134
I1
sVgat
p135
I1
sVsquash
p136
I1
sVaccident
p137
I1
sVuncle
p138
I1
sVbasically
p139
I1
sVantennas
p140
I1
sVtycoon
p141
I1
sVdey
p142
I1
sVe40
p143
I1
sVmade
p144
I1
sVbartender
p145
I1
sVwatchu
p146
I1
sVcar
p147
I1
sVmo
p148
I1
sVcant
p149
I2
sVnapkins
p150
I1
sVsupposed
p151
I1
sVflo
p152
I1
sVsalty
p153
I1
sVdidnt
p154
I1
sVroute
p155
I1
sVreal
p156
I2
sVfreak
p157
I1
sVangel
p158
I1
sVloch
p159
I1
sVit
p160
I1
sVmidwest
p161
I2
sVsay
p162
I2
sVim
p163
I4
sVseen
p164
I1
sVscrew
p165
I1
sVhoe
p166
I2
sVend
p167
I1
sVfloor
p168
I1
sVlil
p169
I1
sVmake
p170
I2
sVbigfoot
p171
I1
sVtil
p172
I1
sVhot
p173
I1
sVshelf
p174
I1
sVruth
p175
I1
sVsmell
p176
I2
sVtalkin
p177
I1
sVdoubleeightseven
p178
I1
sVhotel
p179
I1
sVbrothers
p180
I1
sVbruce
p181
I1
sVrappers
p182
I1
sVness
p183
I1
sVball
p184
I1
sVnineeleven
p185
I1
sVintentions
p186
I1
sVmac
p187
I1
sVfell
p188
I1
sVfat
p189
I1
sVsisters
p190
I1
sVman
p191
I2
sVcause
p192
I2
sVburrito
p193
I1
sVthirtyone
p194
I1
sVbriscuit
p195
I1
sVyoure
p196
I1
sVbig
p197
I1
sVwalked
p198
I1
sVthangs
p199
I1
sVwithout
p200
I1
sVsparkin
p201
I1
sVdivided
p202
I1
s.