(dp1
Vnow
p2
I2
sVugh
p3
I6
sVterract
p4
I1
sVshoes
p5
I1
sVlyrics
p6
I2
sVya
p7
I1
sVdrivethru
p8
I1
sVbiatch
p9
I1
sVfucks
p10
I1
sVbring
p11
I2
sVshoe
p12
I1
sVsurpass
p13
I1
sVyears
p14
I1
sVwhats
p15
I1
sVyes
p16
I1
sVstill
p17
I1
sVhate
p18
I1
sVaint
p19
I2
sVdeath
p20
I1
sVron
p21
I1
sVitll
p22
I1
sVbust
p23
I1
sVcrack
p24
I1
sVhammers
p25
I1
sVhat
p26
I1
sVmatch
p27
I1
sVta
p28
I2
sVfool
p29
I2
sVcount
p30
I1
sVmove
p31
I1
sVsomebody
p32
I1
sVget
p33
I1
sVfood
p34
I1
sVgame
p35
I1
sVtatted
p36
I1
sVknow
p37
I4
sVnew
p38
I2
sVfront
p39
I1
sVrotation
p40
I1
sVunique
p41
I1
sVname
p42
I1
sVknock
p43
I1
sVschool
p44
I1
sVlike
p45
I4
sVpimp
p46
I1
sVstuntz
p47
I1
sValways
p48
I2
sVefor
p49
I1
sVdrop
p50
I1
sVrapper
p51
I2
sVnobodies
p52
I1
sVtheyre
p53
I1
sVslaps
p54
I1
sVquaking
p55
I1
sVside
p56
I1
sVyall
p57
I1
sVgang
p58
I1
sVem
p59
I4
sVright
p60
I2
sVold
p61
I3
sVweight
p62
I1
sVpeople
p63
I5
sVaboutcha
p64
I1
sVback
p65
I2
sValive
p66
I1
sVsee
p67
I2
sVexpect
p68
I1
sVearth
p69
I1
sVbay
p70
I7
sVarm
p71
I1
sValbum
p72
I1
sVshower
p73
I1
sVworkaholic
p74
I1
sVjeremy
p75
I1
sVsorta
p76
I1
sVjeopardy
p77
I1
sVcooking
p78
I1
sVforty
p79
I2
sVeverything
p80
I1
sVpen
p81
I1
sVoutlasting
p82
I1
sVpushers
p83
I1
sVaccompaniment
p84
I1
sVgot
p85
I6
sVkatie
p86
I1
sVass
p87
I2
sVlamas
p88
I1
sVmissing
p89
I1
sVnever
p90
I2
sVweak
p91
I1
sVfree
p92
I1
sVdisrespect
p93
I1
sVpapered
p94
I1
sVchange
p95
I1
sVkitchen
p96
I1
sVcow
p97
I1
sVgetting
p98
I1
sVthow
p99
I1
sVscript
p100
I1
sVfavorite
p101
I1
sVtwos
p102
I1
sVthing
p103
I1
sVamount
p104
I1
sVwolf
p105
I1
sValot
p106
I1
sVtongue
p107
I1
sVdestruction
p108
I1
sVheavy
p109
I1
sVlove
p110
I3
sVhungrier
p111
I1
sVfeel
p112
I1
sVdudes
p113
I1
sVone
p114
I1
sVnigga
p115
I3
sVfake
p116
I1
sVrespect
p117
I1
sVstaple
p118
I1
sVspeak
p119
I1
sVeverybody
p120
I1
sVwan
p121
I1
sVlittle
p122
I2
sVhes
p123
I1
sVwest
p124
I1
sVstrictly
p125
I1
sVsystem
p126
I1
sVfast
p127
I1
sVlive
p128
I1
sV2
I1
sVcall
p129
I2
sVway
p130
I3
sVsoil
p131
I1
sVdamn
p132
I1
sVgoin
p133
I1
sVwar
p134
I1
sVfriend
p135
I1
sVthrew
p136
I1
sVnutri
p137
I1
sVform
p138
I1
sVthat
p139
I1
sVclub
p140
I1
sVprison
p141
I1
sVgas
p142
I2
sVelse
p143
I2
sVhear
p144
I1
sVstick
p145
I1
sVbroke
p146
I1
sVchild
p147
I1
sVrepresenting
p148
I1
sVme
p149
I5
sVe40
p150
I2
sVgrew
p151
I1
sVlocked
p152
I1
sVniggas
p153
I3
sVdeformed
p154
I1
sVmight
p155
I1
sVmo
p156
I1
sVmorning
p157
I1
sVcash
p158
I1
sVwork
p159
I1
sVnature
p160
I1
sVcobbler
p161
I1
sVvoice
p162
I1
sVill
p163
I1
sVsay
p164
I2
sVtheres
p165
I1
sVreal
p166
I1
sVforce
p167
I1
sVacclaim
p168
I1
sVrap
p169
I1
sVcertain
p170
I1
sVmackin
p171
I1
sVsales
p172
I1
sVblah
p173
I1
sVcant
p174
I1
sVim
p175
I9
sVwant
p176
I1
sVstation
p177
I1
sVmoves
p178
I1
sVwhoopin
p179
I1
sVpeach
p180
I1
sVplayers
p181
I1
sVna
p182
I1
sVmake
p183
I1
sVrealest
p184
I1
sV40
p185
I1
sVrules
p186
I1
sVdigital
p187
I1
sVunderground
p188
I1
sVplus
p189
I1
sVyou
p190
I1
sVsprinkle
p191
I1
sVused
p192
I3
sVeforty
p193
I7
sVwho
p194
I1
sVstay
p195
I2
sVsaid
p196
I1
sVcoming
p197
I1
sVdrought
p198
I1
sVmack
p199
I1
sVman
p200
I1
sVe
I2
sVlater
p201
I1
sVlife
p202
I1
sVface
p203
I1
sVburgers
p204
I1
sVjocking
p205
I1
sVwithout
p206
I1
sVtalk
p207
I2
sVtime
p208
I1
sVevery
p209
I1
sVspend
p210
I1
sVcame
p211
I1
sVleft
p212
I1
s.