(dp1
Vha
p2
I1
sVshot
p3
I1
sVforget
p4
I1
sVlyrics
p5
I2
sVchances
p6
I1
sVmoney
p7
I3
sVmoneyhungry
p8
I1
sVlet
p9
I1
sVyears
p10
I1
sVhillside
p11
I1
sVkill
p12
I1
sVmob
p13
I2
sVgo
p14
I3
sVhoppin
p15
I1
sVgift
p16
I1
sVtakin
p17
I6
sVhustler
p18
I7
sVjock
p19
I1
sVaint
p20
I4
sVstyle
p21
I3
sVslow
p22
I1
sVballer
p23
I1
sVdice
p24
I1
sVones
p25
I1
sVjustice
p26
I1
sVsugat
p27
I1
sVvtown
p28
I1
sVlevitti
p29
I1
sVairplay
p30
I1
sVbetter
p31
I1
sVnickels
p32
I1
sVblack
p33
I1
sVbank
p34
I2
sVscratch
p35
I1
sVfolks
p36
I2
sVseelin
p37
I1
sVgangsta
p38
I2
sVmust
p39
I1
sVfences
p40
I1
sVtake
p41
I1
sVgrip
p42
I1
sVnothin
p43
I1
sVthem
p44
I1
sVloss
p45
I1
sVlivin
p46
I2
sVfire
p47
I1
sVget
p48
I4
sVya
p49
I4
sVbig
p50
I2
sVdope
p51
I2
sVsittin
p52
I1
sVrhyme
p53
I2
sVtelevision
p54
I1
sVmakin
p55
I3
sVdark
p56
I1
sVmention
p57
I1
sVgame
p58
I3
sVmade
p59
I1
sVtherapy
p60
I2
sVknow
p61
I15
sVkid
p62
I1
sVstudio
p63
I1
sVnot
p64
I1
sVworld
p65
I1
sVartillery
p66
I1
sVadvise
p67
I1
sVgrin
p68
I1
sVtickets
p69
I1
sVfour
p70
I1
sVlike
p71
I15
sVpedastal
p72
I1
sVniggas
p73
I1
sVmiracle
p74
I1
sVrocks
p75
I1
sVtry
p76
I1
sVtwice
p77
I1
sVbad
p78
I1
sVserious
p79
I1
sVeither
p80
I1
sVman
p81
I9
sVteam
p82
I1
sVmo
p83
I1
sVnames
p84
I1
sVem
p85
I9
sVcaller
p86
I1
sVhell
p87
I1
sVguardin
p88
I1
sVdaddy
p89
I1
sVseats
p90
I1
sVback
p91
I3
sVsoul
p92
I1
sVbooch
p93
I1
sVborn
p94
I1
sVsee
p95
I1
sVcavio
p96
I1
sVare
p97
I1
sVhoes
p98
I1
sVcant
p99
I5
sVplayin
p100
I1
sVtheyre
p101
I1
sVsexual
p102
I1
sVclick
p103
I2
sVdishin
p104
I1
sVeven
p105
I1
sVstill
p106
I2
sVfederal
p107
I21
sVaway
p108
I1
sVsince
p109
I1
sVcrucial
p110
I1
sVpotentate
p111
I2
sVlaid
p112
I2
sVpetro
p113
I1
sVdays
p114
I1
sVbootsy
p115
I1
sVplaya
p116
I1
sVwillin
p117
I1
sVit
p118
I1
sVgot
p119
I5
sVsuckers
p120
I1
sVbunch
p121
I2
sVcause
p122
I4
sVleader
p123
I1
sVbought
p124
I1
sVass
p125
I2
sVfull
p126
I1
sVcha
p127
I7
sVcars
p128
I1
sVscreen
p129
I1
sVrock
p130
I1
sVmotherfucker
p131
I4
sVhere
p132
I2
sVridin
p133
I1
sVheifers
p134
I1
sVstep
p135
I1
sVlicks
p136
I2
sVcalifornia
p137
I2
sVkeesh
p138
I1
sVshapin
p139
I1
sVput
p140
I3
sVgroup
p141
I1
sVstrong
p142
I1
sVcome
p143
I1
sVcelly
p144
I1
sVaughta
p145
I1
sVsayin
p146
I4
sVboss
p147
I1
sVpuddles
p148
I1
sVhits
p149
I2
sVol
p150
I4
sVlast
p151
I1
sVmetro
p152
I1
sVoh
p153
I2
sVof
p154
I1
sVill
p155
I3
sVhes
p156
I11
sVterrible
p157
I1
sVkeep
p158
I1
sVlegit
p159
I1
sVhog
p160
I1
sVharass
p161
I1
sVbecame
p162
I1
sVwolf
p163
I1
sVdef
p164
I1
sVscouts
p165
I1
sVroutes
p166
I1
sVnaw
p167
I1
sVshootin
p168
I1
sVwhole
p169
I1
sVmotherfuckers
p170
I3
sVfuckin
p171
I6
sVthats
p172
I5
sVraised
p173
I1
sVlove
p174
I2
sVdont
p175
I8
sVpoint
p176
I1
sVnumber
p177
I1
sVpop
p178
I1
sVone
p179
I3
sVfollower
p180
I1
sVright
p181
I2
sValleys
p182
I1
sVfast
p183
I1
sVanother
p184
I2
sVcomin
p185
I1
sVrespect
p186
I1
sVpod
p187
I1
sVkind
p188
I1
sVexpensive
p189
I1
sVspeak
p190
I1
sVeverybody
p191
I1
sVwan
p192
I3
sVlittle
p193
I1
sVkillin
p194
I1
sVwould
p195
I1
sVstuck
p196
I1
sVwantin
p197
I1
sVtop
p198
I2
sVthere
p199
I1
sVflights
p200
I1
sVlong
p201
I1
sVmobbin
p202
I1
sVneeded
p203
I1
sVmuch
p204
I1
sVdamn
p205
I3
sVsellin
p206
I1
sVway
p207
I3
sV6
I1
sVmama
p208
I1
sVcall
p209
I1
sVtryin
p210
I1
sVtype
p211
I2
sVlunatics
p212
I1
sVyac
p213
I2
sVfrontrow
p214
I1
sVbumble
p215
I1
sVhead
p216
I1
sVfights
p217
I1
sVspit
p218
I1
sVon
p219
I2
sVsquadin
p220
I1
sVtool
p221
I1
sVbitches
p222
I1
sVserve
p223
I1
sVwhats
p224
I2
sVforreal
p225
I1
sVyeah
p226
I7
sVboys
p227
I1
sVpart
p228
I1
sVhear
p229
I1
sVarms
p230
I1
sVcuttin
p231
I1
sVknown
p232
I1
sVsuperstar
p233
I1
sVline
p234
I2
sVcomfortable
p235
I1
sVmcs
p236
I1
sVnapoleon
p237
I1
sV96
p238
I1
sVme
p239
I5
sVpull
p240
I2
sVe40
p241
I3
sVflamboyant
p242
I3
sVtank
p243
I1
sVedible
p244
I1
sVhotbellied
p245
I1
sVupmost
p246
I1
sVmight
p247
I1
sVboy
p248
I1
sVwork
p249
I1
sVriches
p250
I1
sVcash
p251
I1
sVtellin
p252
I2
sVshes
p253
I1
sVcrickets
p254
I1
sVuh
p255
I1
sVyoung
p256
I1
sVmr
p257
I3
sVblam
p258
I1
sVgrass
p259
I1
sVdidnt
p260
I3
sVcalled
p261
I1
sVsay
p262
I1
sVhistory
p263
I1
sVbarbwire
p264
I1
sVreal
p265
I1
sVunderground
p266
I1
sVrap
p267
I4
sVwasnt
p268
I1
sVditches
p269
I1
sVgroovin
p270
I1
sVfuck
p271
I2
sVpig
p272
I1
sVreally
p273
I1
sVbeats
p274
I2
sVgood
p275
I2
sVim
p276
I23
sVsomething
p277
I3
sVhoggin
p278
I1
sVcheck
p279
I2
sVshit
p280
I10
sVaround
p281
I1
sVsell
p282
I1
sVfunny
p283
I1
sVmutual
p284
I1
sVsippin
p285
I2
sVthree
p286
I1
sVwant
p287
I1
sVincredible
p288
I1
sVlil
p289
I1
sVna
p290
I3
sVmic
p291
I1
sVbucksy
p292
I1
sVadmit
p293
I1
sV40
p294
I3
sVgats
p295
I1
sVafford
p296
I1
sVwithout
p297
I1
sVmacaroni
p298
I1
sVboom
p299
I1
sVunits
p300
I1
sVputtin
p301
I1
sVout
p302
I2
sVroll
p303
I1
sVgamble
p304
I1
sVnice
p305
I1
sVrecognizin
p306
I1
sVcel
p307
I1
sVblocks
p308
I2
sVhullygully
p309
I1
sVnibblin
p310
I1
sVstop
p311
I2
sVpoppos
p312
I1
sVpeas
p313
I1
sVnever
p314
I1
sVorganization
p315
I1
sVforte
p316
I1
sVflowin
p317
I1
sVtimid
p318
I1
sVgoin
p319
I19
sVpenitentiary
p320
I1
sVdshot
p321
I1
sVdrop
p322
I2
sVe
I2
sV1979
p323
I1
sVta
p324
I1
sVlame
p325
I1
sVwell
p326
I2
sVdogg
p327
I1
sVtogether
p328
I1
sVthink
p329
I1
sVmaintain
p330
I1
sVtime
p331
I3
sVspittin
p332
I3
s.