(dp1
Vshop
p2
I1
sVshot
p3
I2
sVlyrics
p4
I2
sVdeck
p5
I1
sVretire
p6
I1
sVhandcuffin
p7
I1
sVfifty
p8
I1
sVmarkin
p9
I1
sVbrain
p10
I1
sVdeep
p11
I1
sVmiralicious
p12
I1
sVcasper
p13
I1
sVgo
p14
I2
sVfeat
p15
I1
sVblow
p16
I1
sVtoilets
p17
I1
sVcopy
p18
I1
sVgold
p19
I3
sVhoney
p20
I1
sVjar
p21
I1
sVcrack
p22
I1
sVbout
p23
I1
sVmight
p24
I1
sVfriendly
p25
I1
sVkick
p26
I1
sVinterstate
p27
I1
sVshoot
p28
I2
sVhit
p29
I1
sVfederation
p30
I1
sVyo
p31
I3
sVbig
p32
I2
sVefeezy
p33
I1
sVstop
p34
I1
sVcoast
p35
I1
sVprotectas
p36
I1
sVsupplier
p37
I1
sVgame
p38
I4
sVones
p39
I3
sVfive
p40
I1
sVknow
p41
I1
sVjacob
p42
I1
sValpine
p43
I1
sVlike
p44
I3
sValways
p45
I1
sVgettin
p46
I1
sVcandy
p47
I1
sVmorning
p48
I1
sVheyey
p49
I1
sVprestink
p50
I1
sVrock
p51
I1
sVquarter
p52
I1
sVlouie
p53
I1
sVem
p54
I1
sVnigga
p55
I3
sVconcert
p56
I1
sVtrend
p57
I1
sVthumper
p58
I1
sVliquor
p59
I1
sVthirteenth
p60
I1
sVfinished
p61
I1
sVback
p62
I2
sVup
p63
I1
sVzones
p64
I1
sVsee
p65
I1
sVfull
p66
I1
sVchedda
p67
I1
sVclose
p68
I1
sVcactus
p69
I1
sVoctane
p70
I1
sVer
p71
I1
sVsausage
p72
I1
sVprolly
p73
I1
sVpedigree
p74
I1
sVweoples
p75
I1
sVchoke
p76
I1
sVforty
p77
I1
sVstate
p78
I2
sVfinger
p79
I1
sVgrits
p80
I1
sVsetta
p81
I1
sVgot
p82
I2
sVfittin
p83
I1
sVaint
p84
I1
sVdrink
p85
I1
sVcoated
p86
I1
sVequinomically
p87
I1
sVherb
p88
I1
sVnever
p89
I2
sVvicious
p90
I1
sVwater
p91
I2
sVsmokin
p92
I2
sVtrunk
p93
I1
sVbacked
p94
I1
sVsuckers
p95
I1
sVelroys
p96
I1
sVevery
p97
I1
sVbuck
p98
I1
sVbackwards
p99
I2
sVindustry
p100
I1
sVquiet
p101
I1
sVnile
p102
I1
sVfeasible
p103
I1
sVmotion
p104
I1
sVthing
p105
I1
sVpuffin
p106
I1
sVmang
p107
I3
sVredbone
p108
I1
sVturf
p109
I1
sVwhole
p110
I1
sVthink
p111
I1
sVblock
p112
I2
sVwig
p113
I1
sVwid
p114
I3
sVdont
p115
I1
sVextra
p116
I1
sVefiggady
p117
I1
sVimage
p118
I1
sVrolla
p119
I1
sVwit
p120
I1
sVcraps
p121
I1
sVinterchangeable
p122
I1
sVsober
p123
I1
sVcouldnt
p124
I1
sVyaypered
p125
I1
sVflamboast
p126
I1
sVturkey
p127
I1
sVwan
p128
I1
sVwould
p129
I1
sVspinach
p130
I1
sVsuper
p131
I1
sVshoebox
p132
I1
sVhey
p133
I5
sVcustom
p134
I1
sVdecta
p135
I1
sVpaint
p136
I1
sVmusic
p137
I1
sVlow
p138
I1
sVbrigadels
p139
I1
sVyowder
p140
I1
sVtryin
p141
I1
sVwest
p142
I1
sVempty
p143
I1
sVflat
p144
I1
sVhead
p145
I2
sVhard
p146
I1
sVmarbles
p147
I1
sVverizon
p148
I1
sVstarted
p149
I1
sVtennis
p150
I1
sVduper
p151
I1
sVgas
p152
I1
sVwireless
p153
I1
sVphone
p154
I1
sVflag
p155
I1
sVwake
p156
I1
sVliver
p157
I1
sVprices
p158
I1
sVline
p159
I1
sVtrying
p160
I1
sVelite
p161
I1
sVme
p162
I2
sVtwist
p163
I1
sVe40
p164
I1
sVtank
p165
I1
sVvendetta
p166
I1
sVboring
p167
I1
sVride
p168
I3
sVgasoline
p169
I6
sVcant
p170
I3
sVniggaz
p171
I3
sVum
p172
I1
sVdank
p173
I1
sVuh
p174
I3
sVreport
p175
I1
sVbrake
p176
I1
sVta
p177
I1
sVpickle
p178
I1
sVclaim
p179
I3
sVsixteenth
p180
I1
sVsoil
p181
I1
sVsticker
p182
I1
sVfuck
p183
I4
sVslap
p184
I1
sVbumper
p185
I3
sVhigh
p186
I1
sVneed
p187
I1
sVsay
p188
I3
sVim
p189
I4
sVdrug
p190
I1
sVabcs
p191
I2
sVthroat
p192
I1
sVsounding
p193
I1
sVcar
p194
I1
sVholla
p195
I1
sVdifferent
p196
I1
sVsippin
p197
I1
sVcourt
p198
I1
sVspit
p199
I4
sVsellin
p200
I1
sVna
p201
I1
sVmake
p202
I1
sVamerican
p203
I1
sVcamouflage
p204
I1
sVfoshelian
p205
I1
sVtake
p206
I2
sVsick
p207
I3
sVbands
p208
I1
sVunits
p209
I1
sVmicrophigadelian
p210
I1
sVplay
p211
I1
sVgammas
p212
I1
sVwatch
p213
I1
sVrallies
p214
I3
sVneeds
p215
I1
sVstay
p216
I1
sVvirus
p217
I1
sVstrength
p218
I1
sVbarber
p219
I1
sVlap
p220
I1
sVman
p221
I1
sVghost
p222
I1
sVdrop
p223
I1
sVkept
p224
I1
sVneck
p225
I1
sVboys
p226
I1
sVfoot
p227
I1
sVunreasonable
p228
I1
sVnothin
p229
I1
sVwithout
p230
I1
sVtruck
p231
I1
sVtime
p232
I1
sValloy
p233
I1
sVtraffic
p234
I1
sVdoonie
p235
I1
sVtalk
p236
I1
s.