(dp1
Vsmokin
p2
I1
sVcode
p3
I1
sVshot
p4
I1
sVlyrics
p5
I2
sVmoney
p6
I2
sVsuburban
p7
I1
sVnone
p8
I1
sVgun
p9
I1
sVshake
p10
I1
sVgo
p11
I2
sVhell
p12
I1
sVfeat
p13
I1
sVfunkin
p14
I1
sVcola
p15
I1
sVaint
p16
I1
sVcut
p17
I1
sVgold
p18
I1
sVmobster
p19
I1
sVdick
p20
I2
sVroyal
p21
I1
sVcuz
p22
I1
sVsend
p23
I1
sVblack
p24
I1
sVlate
p25
I1
sVtramp
p26
I1
sVlets
p27
I1
sVblegit
p28
I2
sVniggero
p29
I1
sVdp
p30
I1
sVpussy
p31
I1
sVmonday
p32
I1
sV31
p33
I1
sVperved
p34
I1
sVride
p35
I1
sVhope
p36
I1
sVtake
p37
I1
sVtock
p38
I1
sVhit
p39
I4
sVsick
p40
I1
sVget
p41
I4
sVya
p42
I3
sVbig
p43
I1
sVcel
p44
I2
sVwatch
p45
I1
sVe40
p46
I1
sVda
p47
I1
sVbreak
p48
I2
sVme
p49
I1
sVgame
p50
I1
sVspittin
p51
I1
sVknow
p52
I6
sVkiss
p53
I1
sVtick
p54
I1
sVday
p55
I1
sVrear
p56
I1
sVsucked
p57
I1
sVwont
p58
I1
sVcounty
p59
I1
sVlike
p60
I5
sVknockin
p61
I1
sVhussy
p62
I1
sVlouie
p63
I1
sVl
I2
sVdove
p64
I1
sVprun
p65
I1
sVnight
p66
I2
sVquick
p67
I1
sVgrab
p68
I1
sVside
p69
I2
sVvision
p70
I1
sVview
p71
I1
sVem
p72
I4
sVcreepin
p73
I1
sVnigga
p74
I9
sVold
p75
I1
sVcigaretteganish
p76
I1
sVliquor
p77
I1
sVback
p78
I2
sVmuthafuckas
p79
I2
sVjump
p80
I1
sVsee
p81
I1
sVbeen
p82
I1
sVlobster
p83
I1
sVmirror
p84
I1
sVfriday
p85
I1
sVsaturday
p86
I1
sVsaid
p87
I1
sV07
p88
I1
sVthursday
p89
I1
sVextra
p90
I1
sVhurricane
p91
I1
sVnear
p92
I2
sVindian
p93
I1
sVhill
p94
I2
sVsideways
p95
I1
sVcall
p96
I1
sVgot
p97
I2
sVbunch
p98
I1
sVblurry
p99
I1
sVtold
p100
I2
sVass
p101
I3
sVtore
p102
I1
sVblankin
p103
I1
sVtoes
p104
I1
sVrun
p105
I1
sVbreathin
p106
I1
sVherb
p107
I1
sVrock
p108
I2
sVgut
p109
I1
sVpunch
p110
I1
sVslut
p111
I1
sVwednesday
p112
I1
sVwater
p113
I2
sVdang
p114
I2
sVsafire
p115
I1
sVlet
p116
I2
sVsiggity
p117
I1
sVsquattin
p118
I1
sVput
p119
I1
sVpeep
p120
I1
sVpopeye
p121
I1
sVcare
p122
I1
sVcop
p123
I1
sValezah
p124
I1
sVlast
p125
I2
sVshriveled
p126
I1
sVcould
p127
I1
sVblowin
p128
I1
sVchop
p129
I1
sVintoxicated
p130
I1
sVfunky
p131
I2
sVplace
p132
I1
sVmean
p133
I1
sVcaught
p134
I1
sVfuckin
p135
I1
sVjoe
p136
I1
sVwid
p137
I1
sVlove
p138
I2
sVdont
p139
I4
sVbell
p140
I1
sVtweak
p141
I1
sVahh
p142
I1
sVtippy
p143
I1
sVmakin
p144
I1
sVcommunity
p145
I1
sVhighly
p146
I1
sVdown
p147
I2
sVtill
p148
I1
sVwit
p149
I1
sVclimbin
p150
I1
sVhang
p151
I1
sVtuesday
p152
I1
sVthroughout
p153
I1
sVbombay
p154
I1
sVmannish
p155
I1
sVsmells
p156
I1
sVuse
p157
I1
sVlong
p158
I1
sVpager
p159
I1
sVsalonto
p160
I1
sVhey
p161
I1
sVfast
p162
I1
sVsunday
p163
I1
sVeleven
p164
I1
sVmiggity
p165
I1
sVdamn
p166
I1
sVway
p167
I2
sVtorre
p168
I1
sVmothafucka
p169
I1
sVtell
p170
I1
sVstore
p171
I1
sVthrew
p172
I1
sVdiggity
p173
I1
sVbuck
p174
I1
sVbitches
p175
I1
sVsheriffs
p176
I1
sVshorty
p177
I1
sVaskin
p178
I1
sVconfused
p179
I1
sVhere
p180
I1
sVbeefeater
p181
I1
sVhi
p182
I2
sVeverywhere
p183
I1
sVnut
p184
I1
sVbiatch
p185
I1
sVline
p186
I1
sVhurry
p187
I1
sV95
p188
I1
sVcelly
p189
I1
sVpull
p190
I2
sVposin
p191
I1
sV12
p192
I1
sVroom
p193
I1
sVfull
p194
I1
sVniggas
p195
I3
sVdouble
p196
I3
sVstraight
p197
I2
sVcant
p198
I1
sVpo
p199
I2
sVherewere
p200
I1
sVbidi
p201
I1
sVfun
p202
I1
sVsteppin
p203
I1
sVrevenues
p204
I1
sVsquat
p205
I1
sVsteer
p206
I1
sVtwomp
p207
I1
sVive
p208
I1
sVcrazy
p209
I1
sVthatll
p210
I1
sVlives
p211
I1
sVah
p212
I3
sVpass
p213
I2
sVfuck
p214
I1
sVdash
p215
I1
sVsay
p216
I1
sVim
p217
I7
sVbend
p218
I1
sVbitch
p219
I2
sVshit
p220
I4
sVcar
p221
I1
sVhog
p222
I1
sVhoe
p223
I1
sVbottles
p224
I1
sVswervin
p225
I1
sVmake
p226
I1
sVbowl
p227
I1
sVeatin
p228
I1
sV40
p229
I3
sVbeat
p230
I1
sVhigh
p231
I1
sVbook
p232
I1
sVworry
p233
I1
sVdoors
p234
I1
sV9
I1
sVgate
p235
I1
sVgets
p236
I1
sVvallejo
p237
I1
sVabused
p238
I1
sVblanks
p239
I1
sVscrub
p240
I1
sVpervin
p241
I1
sVdoin
p242
I1
sVspot
p243
I2
sVhand
p244
I1
sVstarhate
p245
I1
sVbeta
p246
I1
sVsippin
p247
I1
sV50
p248
I1
sVbotch
p249
I1
sVmack
p250
I2
sVsmokes
p251
I1
sVfreeways
p252
I1
sVgoin
p253
I1
sVtherewere
p254
I1
sVsuperbad
p255
I1
sVniggity
p256
I1
sVoliveoil
p257
I1
sVta
p258
I1
sVwell
p259
I1
sVgin
p260
I1
sVdoe
p261
I2
sVq
I1
sVtanqueray
p262
I1
sVkeeps
p263
I1
sVmuthafuckin
p264
I1
sVkickin
p265
I1
sVcruisin
p266
I1
sVleft
p267
I2
s.