(dp1
Vgreats
p2
I1
sVstamped
p3
I1
sVlyrics
p4
I2
sVmoney
p5
I1
sVbrotha
p6
I1
sVfall
p7
I1
sVdealing
p8
I1
sVchalked
p9
I1
sVcolors
p10
I1
sVsleep
p11
I1
sVgo
p12
I1
sVchair
p13
I1
sVhate
p14
I1
sVfunkin
p15
I1
sVdont
p16
I4
sVaint
p17
I3
sVlaced
p18
I7
sVcut
p19
I1
sVdiary
p20
I1
sVgot
p21
I1
sVbragging
p22
I1
sVthinking
p23
I1
sVsituations
p24
I1
sVweekends
p25
I1
sVclubbing
p26
I1
sVbust
p27
I1
sVlate
p28
I1
sVtramp
p29
I1
sVgoing
p30
I1
sVlives
p31
I1
sVgangsta
p32
I1
sVcutie
p33
I1
sVmight
p34
I3
sVkick
p35
I1
sVta
p36
I1
sVswim
p37
I1
sVdo
p38
I1
sVwoman
p39
I2
sVhandle
p40
I1
sVaround
p41
I3
sVyo
p42
I3
sVloved
p43
I1
sVya
p44
I4
sVrepercussions
p45
I1
sVsafe
p46
I1
sVnone
p47
I2
sVdark
p48
I1
sVgame
p49
I4
sVones
p50
I1
sVevery
p51
I1
sVknow
p52
I5
sVhalf
p53
I1
sVcook
p54
I1
sVdifference
p55
I1
sVkilled
p56
I1
sVinstructions
p57
I1
sVshoulder
p58
I1
sVhandpick
p59
I1
sVlike
p60
I1
sVpamphlet
p61
I1
sVskills
p62
I1
sVcelebrity
p63
I1
sVmanual
p64
I1
sVleave
p65
I2
sVtwice
p66
I1
sVgoofy
p67
I1
sVcorrectional
p68
I1
sVclip
p69
I1
sVtruth
p70
I1
sVlose
p71
I1
sVquick
p72
I1
sVsidewalk
p73
I1
sVsoft
p74
I1
sVbitch
p75
I1
sVem
p76
I1
sVtraitors
p77
I1
sVsquare
p78
I2
sVyola
p79
I1
sVpeople
p80
I1
sVgeneration
p81
I1
sVphones
p82
I1
sVfake
p83
I1
sVback
p84
I1
sVbounce
p85
I1
sVcertain
p86
I1
sVsee
p87
I2
sVball
p88
I1
sVreally
p89
I1
sVsaid
p90
I1
sVrounding
p91
I1
sVgod
p92
I1
sVwikipedia
p93
I1
sVmines
p94
I1
sVlooking
p95
I4
sVclosed
p96
I1
sVit
p97
I1
sVnew
p98
I1
sVcause
p99
I2
sVguns
p100
I1
sVdrink
p101
I2
sVbody
p102
I1
sVfriday
p103
I1
sVability
p104
I1
sVright
p105
I1
sVbrawl
p106
I1
sVmen
p107
I1
sVmotherfucker
p108
I2
sVlotion
p109
I1
sVlet
p110
I1
sV8s
p111
I1
sVhaters
p112
I1
sVstay
p113
I5
sVcome
p114
I4
sVthrow
p115
I1
sVtenant
p116
I1
sVkitchen
p117
I1
sVbox
p118
I1
sVabout
p119
I1
sVlast
p120
I1
sVanything
p121
I2
sVgetting
p122
I1
sVdusty
p123
I1
sVguilty
p124
I1
sVkeep
p125
I1
sVhustlers
p126
I1
sVthing
p127
I1
sVplace
p128
I1
sVstand
p129
I1
sVfaces
p130
I1
sVmean
p131
I1
sVpillow
p132
I1
sVfuckin
p133
I1
sVthats
p134
I1
sVlove
p135
I1
sVapple
p136
I1
sVfacility
p137
I1
sVfeel
p138
I1
sVway
p139
I1
sVrearview
p140
I1
sVone
p141
I3
sVlettuce
p142
I1
sVset
p143
I1
sVanalyzing
p144
I1
sVbrush
p145
I1
sVchurch
p146
I1
sVtable
p147
I1
sVtrust
p148
I1
sVopen
p149
I1
sVhood
p150
I1
sVwan
p151
I1
sVstory
p152
I1
sVeye
p153
I2
sVraise
p154
I1
sVscript
p155
I1
sVflying
p156
I1
sVthree
p157
I1
sVtiny
p158
I1
sVnext
p159
I1
sVdboy
p160
I1
sVseasoned
p161
I1
sVpool
p162
I1
sVhustlin
p163
I1
sVtime
p164
I2
sVforward
p165
I1
sVtalltemper
p166
I1
sVanalyze
p167
I1
sVtell
p168
I3
sVtryna
p169
I1
sVpopped
p170
I1
sVstreets
p171
I1
sVjacks
p172
I1
sVogs
p173
I1
sVyeah
p174
I1
sVpart
p175
I1
sVnigga
p176
I2
sVstick
p177
I1
sVloose
p178
I1
sVbiatch
p179
I1
sVear
p180
I1
sVgetchu
p181
I1
sVbout
p182
I1
sVcase
p183
I1
sVpull
p184
I1
sVe40
p185
I1
sVlook
p186
I1
sVniggas
p187
I2
sVthis
p188
I1
sVsetup
p189
I1
sVcant
p190
I3
sVjergens
p191
I1
sVindividual
p192
I1
sVuh
p193
I1
sVlearn
p194
I1
sVproblem
p195
I1
sVdamned
p196
I1
sVtheres
p197
I1
sVhip
p198
I1
sVnaysayers
p199
I1
sVoutlined
p200
I1
sVslip
p201
I1
sVthirsty
p202
I1
sVtaste
p203
I1
sVsoil
p204
I1
sVfuck
p205
I2
sVsmiley
p206
I1
sVfakes
p207
I1
sVsay
p208
I1
sVhomie
p209
I3
sVim
p210
I8
sVsomething
p211
I1
sVwant
p212
I2
sVneed
p213
I1
sVocean
p214
I1
sVeveryday
p215
I1
sVchase
p216
I1
sVsip
p217
I1
sVplayers
p218
I1
sVna
p219
I1
sVmake
p220
I2
sVget
p221
I3
sVbacks
p222
I1
sVfood
p223
I1
sVrelatives
p224
I1
sVhella
p225
I1
sVtake
p226
I1
sVhop
p227
I1
sVskates
p228
I1
sVgreen
p229
I1
sVyou
p230
I1
sVcouple
p231
I1
sVappreciate
p232
I1
sVexperienced
p233
I1
sVmonday
p234
I1
sVwho
p235
I1
sVhand
p236
I1
sVrunning
p237
I1
sVmouth
p238
I1
sVnever
p239
I7
sVfucked
p240
I1
sVcabbage
p241
I1
sVfriends
p242
I1
sVsides
p243
I1
sVstructure
p244
I1
sVgoin
p245
I1
sVread
p246
I1
sVlight
p247
I1
sVcamp
p248
I1
sVwell
p249
I1
sVface
p250
I1
sVthought
p251
I1
sVwithout
p252
I2
sVencyclopedia
p253
I1
sVtalk
p254
I1
sVsun
p255
I1
sVhear
p256
I1
sVbootch
p257
I1
sVdow
p258
I1
sVgesture
p259
I1
s.