(dp1
V1st
p2
I1
sVbanger
p3
I1
sVugh
p4
I1
sVlyrics
p5
I2
sVshow
p6
I1
sVmoney
p7
I3
sVpopo
p8
I2
sVdippin
p9
I1
sVmonth
p10
I1
sVpaper
p11
I1
sVdough
p12
I1
sVknocks
p13
I1
sVgo
p14
I1
sVlove
p15
I1
sVfeat
p16
I1
sVaint
p17
I1
sVlicks
p18
I1
sVham
p19
I1
sVzone
p20
I1
sVfield
p21
I1
sVimma
p22
I1
sVexplain
p23
I1
sVit\u2019s
p24
I1
sVdeposits
p25
I1
sVbludgeon
p26
I1
sVcrime
p27
I1
sVshoota
p28
I1
sVwayne
p29
I1
sVswoop
p30
I1
sVwhips
p31
I1
sVbout
p32
I2
sVduffy
p33
I1
sVwiped
p34
I1
sVkick
p35
I1
sVloved
p36
I1
sVreal
p37
I1
sVbav
p38
I1
sVthem
p39
I1
sVhit
p40
I2
sVweeda
p41
I1
sVget
p42
I4
sVi\u2019m
p43
I8
sVbig
p44
I1
sVshowing
p45
I1
sVknocka
p46
I1
sVwatch
p47
I2
sVfat
p48
I1
sV4s
p49
I1
sVones
p50
I2
sVhitters
p51
I1
sVhands
p52
I1
sVjudge
p53
I1
sVmob
p54
I1
sVday
p55
I1
sVghetto
p56
I1
sVprime
p57
I1
sVthink
p58
I1
sVlike
p59
I2
sVspine
p60
I1
sVgettin
p61
I2
sVbetta
p62
I1
sVmorning
p63
I4
sVdrive
p64
I1
sVbag
p65
I1
sVsteps
p66
I1
sVrock
p67
I2
sVsleep
p68
I1
sVdrop
p69
I1
sVquarter
p70
I1
sVround
p71
I1
sVclothes
p72
I1
sVem
p73
I5
sVcan\u2019t
p74
I1
sVright
p75
I6
sVmilling
p76
I1
sVattic
p77
I1
sVnoodle
p78
I1
sV30
p79
I2
sVstreets
p80
I1
sVbustin
p81
I1
sVback
p82
I3
sVsign
p83
I1
sVebt
p84
I1
sVi\u2019ve
p85
I1
sVslidin
p86
I1
sVholding
p87
I1
sVrun
p88
I2
sVjlo
p89
I1
sVpacked
p90
I1
sVreally
p91
I1
sVslingers
p92
I1
sVstands
p93
I1
sVcloset
p94
I1
sVmine
p95
I1
sVgutta
p96
I2
sVbourbons
p97
I1
sVsince
p98
I1
sVtry\u2019na
p99
I2
sVdays
p100
I1
sVate
p101
I1
sVdamn
p102
I1
sVgot
p103
I4
sVpistol
p104
I1
sVbird
p105
I1
sVass
p106
I2
sV24
p107
I1
sVnigga
p108
I4
sVmonster
p109
I1
sVcars
p110
I1
sVgreenbach\u2019s
p111
I1
sVnever
p112
I1
sVoasis
p113
I1
sVdeath
p114
I1
sVlamps
p115
I1
sVsag
p116
I1
sVscheming
p117
I1
sVmeet
p118
I1
sVask
p119
I1
sVcome
p120
I1
sVsecurity
p121
I1
sVcertified
p122
I1
sVpull
p123
I1
sVplug
p124
I1
sVcop
p125
I1
sVfeeling
p126
I1
sVcould
p127
I2
sVviolence
p128
I1
sVfavorite
p129
I1
sV247
p130
I1
sVkeep
p131
I2
sVdrama
p132
I1
sVthing
p133
I1
sVsocial
p134
I1
sVusually
p135
I1
sVlet
p136
I1
sVcaught
p137
I1
sVfuckin
p138
I1
sVfirst
p139
I1
sVheavy
p140
I1
sVraised
p141
I1
sVbeeda
p142
I1
sVdanger
p143
I1
sVchoppers
p144
I1
sVpot
p145
I1
sVbread
p146
I1
sVyail
p147
I1
sVone
p148
I1
sVbro
p149
I1
sVunexpected
p150
I1
sVbitch
p151
I2
sVhomeless
p152
I1
sVblown
p153
I1
sVbra
p154
I1
sVsealer
p155
I1
sVlittle
p156
I2
sVhussla
p157
I1
sVevery
p158
I1
sVspinach
p159
I1
sVruggers
p160
I1
sVtop
p161
I3
sVtwo
p162
I1
sVpropers
p163
I1
sVnext
p164
I2
sVmawning
p165
I1
sVspread
p166
I1
sV2
I1
sVcall
p167
I1
sVdon\u2019t
p168
I3
sVway
p169
I1
sVchecks
p170
I1
sVrollin
p171
I1
sVfo
p172
I1
sVtell
p173
I2
sVlisten
p174
I2
sVselling
p175
I1
sVposting
p176
I1
sVhater
p177
I1
sVdrugs
p178
I1
sVmind
p179
I3
sVbitches
p180
I1
sVserve
p181
I1
sVslums
p182
I1
sVstuntin
p183
I1
sVcops
p184
I1
sVwarm
p185
I1
sVlives
p186
I1
sVbroke
p187
I1
sVline
p188
I1
sVcareful
p189
I1
sVspin
p190
I1
sVhidden
p191
I1
sVglad
p192
I1
sVmust
p193
I1
sVtown
p194
I1
sVcaz
p195
I1
sVe40
p196
I1
sVprob
p197
I1
sVword
p198
I2
sVhour
p199
I1
sVdopo
p200
I1
sVwish
p201
I1
sVoutsmarting
p202
I1
sVwork
p203
I2
sVflip
p204
I1
sVdirty
p205
I1
sVdisrespects
p206
I1
sVfruits
p207
I1
sVmaking
p208
I1
sVta
p209
I2
sVill
p210
I1
sVflashin
p211
I1
sVheart
p212
I1
sVready
p213
I1
sVcoz
p214
I1
sVpotholes
p215
I1
sVsinister
p216
I1
sVtabs
p217
I1
sVcertain
p218
I1
sVhoes
p219
I1
sVturned
p220
I1
sVfuck
p221
I1
sVconditioned
p222
I1
sVshame
p223
I1
sVslit
p224
I1
sVglock
p225
I1
sVstash
p226
I1
sVslip
p227
I1
sVsense
p228
I1
sVneed
p229
I1
sVrig
p230
I1
sVgelupe
p231
I1
sVmoves
p232
I1
sVhydrogen
p233
I1
sVoccur
p234
I1
sVshit
p235
I3
sVnative
p236
I1
sVgone
p237
I1
sVcropo
p238
I1
sVpastas
p239
I1
sVin
p240
I1
sVsit
p241
I1
sVpopper
p242
I1
sVthings
p243
I1
sVmake
p244
I1
sVnuts
p245
I1
sVstruggles
p246
I1
sV40
p247
I1
sVdad
p248
I1
sVrubber
p249
I1
sVya
p250
I4
sVtake
p251
I3
sVforces
p252
I1
sVbands
p253
I1
sVout
p254
I1
sVpam
p255
I1
sVpoker
p256
I1
sVsure
p257
I1
sVthat\u2019s
p258
I3
sVbangers
p259
I1
sVjuggin
p260
I1
sVwelcome
p261
I1
sVspot
p262
I1
sVclass
p263
I1
sVmad
p264
I1
sVtaco
p265
I1
sVcabbage
p266
I1
sVmobbing
p267
I1
sVbroccoli
p268
I1
sVman
p269
I1
sVkno
p270
I1
sVtask
p271
I1
sVchasing
p272
I1
sV3rd
p273
I1
sVbink
p274
I1
sVmotherfukin
p275
I1
sVup
p276
I3
sVweapon
p277
I1
sVcounter
p278
I2
sVmetal
p279
I1
sVsale
p280
I1
sVanytime
p281
I1
sVgrind
p282
I1
sVtho
p283
I1
sVswitch
p284
I1
sVjail
p285
I1
sVblock
p286
I1
sVtaking
p287
I1
sVwake
p288
I1
sVoooh
p289
I1
sVsquallered
p290
I1
sVdodging
p291
I1
s.