(dp1
Vhouston
p2
I2
sVlyrics
p3
I2
sVheater
p4
I1
sVgods
p5
I1
sVmile
p6
I1
sVpaul
p7
I1
sVgreens
p8
I1
sVblender
p9
I1
sVaint
p10
I1
sVcut
p11
I1
sVfit
p12
I1
sVcup
p13
I1
sVboomerangs
p14
I1
sVfix
p15
I1
sVtweeded
p16
I1
sVto
p17
I1
sVdolly
p18
I1
sVbroccelius
p19
I1
sVaimin
p20
I1
sVbeotch
p21
I3
sVhope
p22
I1
sVme
p23
I1
sVlifters
p24
I1
sVaround
p25
I1
sVradiator
p26
I1
sVget
p27
I3
sVread
p28
I1
sVbig
p29
I1
sVcheckin
p30
I1
sVda
p31
I1
sVknow
p32
I2
sVnew
p33
I1
sVworld
p34
I1
sVsasquatch
p35
I1
sVday
p36
I1
sVcool
p37
I1
sVnorthsides
p38
I1
sVschool
p39
I2
sVantifreeze
p40
I1
sVlike
p41
I3
sVgift
p42
I1
sVgettin
p43
I1
sVtry
p44
I1
sVstopped
p45
I1
sVcar
p46
I1
sVwent
p47
I1
sVquarter
p48
I1
sVgluteus
p49
I1
sVkeezie
p50
I1
sVbone
p51
I4
sVsho
p52
I1
sVantique
p53
I1
sVnigga
p54
I1
sVbooty
p55
I2
sVback
p56
I1
sVjump
p57
I4
sVpoppagos
p58
I1
sVstreet
p59
I1
sVdesperate
p60
I1
sVparking
p61
I1
sVdeezie
p62
I1
sVhome
p63
I1
sV8ball
p64
I1
sVout
p65
I1
sVeven
p66
I1
sVgon
p67
I1
sVvisitin
p68
I1
sV40water
p69
I1
sVheres
p70
I1
sVleak
p71
I1
sVwow
p72
I4
sVfucks
p73
I1
sVeverything
p74
I1
sVenough
p75
I1
sVgot
p76
I1
sVnet
p77
I1
sVthree
p78
I1
sVass
p79
I1
sVbe
p80
I1
sVgathered
p81
I1
sVmotherfucker
p82
I2
sVreads
p83
I1
sVlem
p84
I1
sVcenterfold
p85
I1
sVbesides
p86
I1
sValone
p87
I1
sVarticle
p88
I1
sVcities
p89
I1
sVsuper
p90
I1
sVfootin
p91
I1
sVon
p92
I1
sVdoubletree
p93
I1
sVkragens
p94
I1
sVoh
p95
I2
sVwalkin
p96
I1
sVmagazine
p97
I1
sVdentures
p98
I1
sVact
p99
I1
sVmossie
p100
I1
sVrepair
p101
I1
sVwhats
p102
I2
sVdont
p103
I2
sVxl
p104
I1
sVheaded
p105
I1
sVdudes
p106
I1
sVone
p107
I2
sVright
p108
I1
sVparton
p109
I1
sVold
p110
I2
sVdrove
p111
I1
sVnorthstar
p112
I1
sVlittle
p113
I3
sVcome
p114
I1
sVdude
p115
I1
sVtwo
p116
I1
sVstuck
p117
I1
sVdependable
p118
I1
sVlot
p119
I1
sVcall
p120
I1
sVtryin
p121
I2
sVcrackaleezie
p122
I1
sVlisten
p123
I1
sVhead
p124
I1
sVdiamond
p125
I1
sVthat
p126
I1
sVclub
p127
I2
sVbus
p128
I1
sVbitches
p129
I2
sVgas
p130
I1
sVooh
p131
I1
sVcant
p132
I1
sVsuzette
p133
I1
sVphone
p134
I1
sVmjg
p135
I1
sVstick
p136
I1
sVxxl
p137
I1
sVcount
p138
I1
sVleezie
p139
I1
sVe40
p140
I1
sVlook
p141
I1
sVniggas
p142
I1
sVdouble
p143
I1
sVstraight
p144
I1
sVdryin
p145
I1
sVdingaling
p146
I1
sVcash
p147
I1
sVmaximus
p148
I1
sVtickin
p149
I1
sVtexas
p150
I1
sVgrass
p151
I1
sVminutes
p152
I1
sVmo
p153
I2
sVpipmin
p154
I1
sVcrazy
p155
I1
sVrap
p156
I2
sVhoes
p157
I2
sVfuck
p158
I1
sVpromotional
p159
I1
sVtonight
p160
I2
sVheard
p161
I1
sVsay
p162
I4
sVim
p163
I8
sVwant
p164
I1
sVneed
p165
I3
sVcheck
p166
I1
sVshit
p167
I11
sVlivin
p168
I2
sVdifferent
p169
I1
sVhoe
p170
I1
sVheezie
p171
I1
sVscarfaces
p172
I1
sVj
I1
sVmix
p173
I3
sVbankded
p174
I1
sVparts
p175
I1
sVdrapers
p176
I1
sVtake
p177
I2
sVfo
p178
I1
sVauto
p179
I1
sVenemies
p180
I1
sVexits
p181
I1
sVweek
p182
I1
sValbum
p183
I1
sVused
p184
I1
sVokay
p185
I1
sVbeauty
p186
I1
sVshouldve
p187
I1
sVdriver
p188
I1
sVball
p189
I1
sVstay
p190
I1
sVwrong
p191
I1
sVsaid
p192
I1
sVlay
p193
I2
sVdarts
p194
I1
sVbadass
p195
I1
sVford
p196
I1
sVman
p197
I1
sVsomethin
p198
I1
sVdrop
p199
I1
sVburrito
p200
I1
sVcenter
p201
I1
sVlater
p202
I2
sVdaily
p203
I1
sVwithout
p204
I1
sVtruck
p205
I1
sVcruisin
p206
I1
sVsmoked
p207
I1
sVtalk
p208
I2
sVho
p209
I1
s.