(dp1
Vshop
p2
I1
sVugh
p3
I1
sVpotion
p4
I1
sVgangs
p5
I1
sVlyrics
p6
I2
sVnickelbag
p7
I1
sVroy
p8
I1
sVrecess
p9
I1
sVkill
p10
I1
sVwud
p11
I1
sVslippin
p12
I1
sVstill
p13
I2
sVfeat
p14
I1
sVaint
p15
I3
sV22
p16
I1
sVthang
p17
I1
sVpoppin
p18
I1
sVyoung
p19
I1
sVbust
p20
I1
sVmattress
p21
I1
sVbetter
p22
I1
sVwindow
p23
I1
sVtouched
p24
I1
sVholla
p25
I1
sVfik
p26
I1
sVmight
p27
I1
sVwaiters
p28
I1
sVpumpkin
p29
I1
sVsound
p30
I1
sVhit
p31
I1
sVfrown
p32
I1
sVyo
p33
I2
sVget
p34
I3
sVya
p35
I1
sVeulogy
p36
I1
sVsloppy
p37
I1
sVuntouchable
p38
I1
sVknow
p39
I2
sVnew
p40
I1
sVcook
p41
I1
sVfullest
p42
I1
sVbullets
p43
I1
sVmonkeys
p44
I1
sVknock
p45
I17
sVlike
p46
I3
sVclown
p47
I1
sVdriveby
p48
I1
sVguy
p49
I2
sVround
p50
I1
sVlifestyles
p51
I1
sVem
p52
I15
sVsquare
p53
I1
sVforce
p54
I1
sVhard
p55
I1
sVback
p56
I1
sVbounce
p57
I1
sVbounds
p58
I1
sVsee
p59
I2
sVstreet
p60
I1
sVcroon
p61
I1
sVcant
p62
I1
sVblues
p63
I1
sVbest
p64
I1
sVreally
p65
I1
sVpeel
p66
I1
sVfunking
p67
I1
sVgiving
p68
I1
sVtake
p69
I1
sVrims
p70
I1
sVpaddle
p71
I1
sVlooking
p72
I1
sVpop
p73
I1
sVstate
p74
I1
sVinternet
p75
I1
sVit
p76
I1
sVgot
p77
I6
sVpistol
p78
I1
sVcause
p79
I2
sVass
p80
I3
sVbe
p81
I1
sVrun
p82
I1
sVright
p83
I1
sVplot
p84
I1
sVfuneral
p85
I1
sVnever
p86
I1
sVpooch
p87
I1
sVweirdo
p88
I1
sVput
p89
I1
sVcousin
p90
I1
sVmullet
p91
I1
sVcome
p92
I2
sVshine
p93
I1
sVboy
p94
I2
sVcould
p95
I2
sVchanged
p96
I1
sVask
p97
I1
sVhitchu
p98
I1
sVflamed
p99
I1
sVnervous
p100
I1
sVusually
p101
I1
sVturf
p102
I1
sVhooch
p103
I1
sVwhole
p104
I1
sVthats
p105
I1
sVtough
p106
I1
sVdont
p107
I2
sVextra
p108
I3
sVfro
p109
I1
sVaround
p110
I1
sVdudes
p111
I1
sVone
p112
I1
sVdown
p113
I3
sVfucked
p114
I1
sVmomma
p115
I1
sVnigga
p116
I7
sVlung
p117
I1
sVbitch
p118
I1
sVanother
p119
I1
sVme
p120
I1
sVcrew
p121
I1
sVcrip
p122
I1
sVtalking
p123
I1
sVfuck
p124
I1
sVwan
p125
I1
sVlittle
p126
I1
sVfee
p127
I1
sVclip
p128
I1
sVservice
p129
I1
sVshells
p130
I1
sVchrome
p131
I1
sVcaught
p132
I2
sVdude
p133
I1
sVnext
p134
I1
sVstart
p135
I1
sVdropping
p136
I1
sVmusic
p137
I6
sVcall
p138
I2
sVbanana
p139
I2
sVfriend
p140
I2
sVloco
p141
I1
sVdry
p142
I1
sVmurder
p143
I1
sVhum
p144
I1
sVnobody
p145
I1
sVserve
p146
I1
sVmuse
p147
I4
sVmine
p148
I1
sVboys
p149
I1
sVhear
p150
I1
sVsmile
p151
I1
sVcatch
p152
I1
sVtown
p153
I1
sVpull
p154
I2
sVe40
p155
I1
sVhappen
p156
I1
sVniggas
p157
I1
sVski
p158
I1
sVup
p159
I4
sVus
p160
I1
sVclips
p161
I1
sVgruff
p162
I1
sVdumb
p163
I1
sVcalled
p164
I2
sVoutcha
p165
I1
sVcrazy
p166
I2
sVpound
p167
I2
sVoutta
p168
I2
sVthatll
p169
I1
sVpin
p170
I1
sVtelling
p171
I1
sVlock
p172
I1
sVturned
p173
I2
sVconfused
p174
I1
sVraw
p175
I1
sVsay
p176
I2
sVim
p177
I2
sVslip
p178
I1
sVin
p179
I1
sVthug
p180
I1
sVhes
p181
I1
sVshooting
p182
I1
sVeveryday
p183
I1
sVshit
p184
I4
sVlunatic
p185
I1
sVagain
p186
I2
sVsip
p187
I1
sVlet
p188
I1
sVna
p189
I1
sVtip
p190
I1
sVstrapped
p191
I1
sVneed
p192
I1
sVlip
p193
I1
sVboom
p194
I1
sVhop
p195
I1
sVvegetable
p196
I1
sVinstead
p197
I1
sVfools
p198
I1
sVout
p199
I1
sVplay
p200
I2
sVused
p201
I1
sVthough
p202
I2
sVact
p203
I1
sVpaid
p204
I1
sVweed
p205
I1
sVbarber
p206
I1
sVsnitching
p207
I1
sVhitcha
p208
I1
sVmisfit
p209
I1
sVtongue
p210
I1
sVshootout
p211
I1
sVbullet
p212
I1
sVmask
p213
I1
sVstay
p214
I1
sVface
p215
I1
sVgators
p216
I1
sVcornball
p217
I1
sVeveryone
p218
I1
sVtime
p219
I1
sVheres
p220
I1
sVtalk
p221
I1
sVwine
p222
I1
s.