(dp1
Vmaterialistic
p2
I1
sVlace
p3
I7
sVlyrics
p4
I2
sVshow
p5
I1
sVya
p6
I1
sVmoney
p7
I2
sVactress
p8
I1
sVarea
p9
I1
sValready
p10
I1
sVgo
p11
I3
sVnewest
p12
I1
sVdere
p13
I1
sVcaptain
p14
I1
sVfeat
p15
I1
sVshoes
p16
I2
sVaint
p17
I6
sVlaced
p18
I1
sVsayin
p19
I1
sVsomewhere
p20
I1
sVthang
p21
I1
sVdick
p22
I1
sVsend
p23
I1
sVmattress
p24
I1
sVbetter
p25
I1
sVhavin
p26
I1
sVlets
p27
I1
sVcrack
p28
I1
sVmail
p29
I1
sVbout
p30
I3
sVta
p31
I2
sVreal
p32
I2
sVgood
p33
I2
sVhit
p34
I2
sVaround
p35
I1
sVyo
p36
I5
sVget
p37
I5
sVrules
p38
I1
sVbig
p39
I1
sVpractice
p40
I1
sVwatch
p41
I2
sVuhh
p42
I3
sVbreak
p43
I1
sVscrilla
p44
I1
sVgame
p45
I5
sVknow
p46
I2
sVknot
p47
I1
sVcleanin
p48
I1
sVlisterine
p49
I1
sVworld
p50
I1
sVcool
p51
I1
sVearl
p52
I1
sVtrippin
p53
I1
sVbat
p54
I1
sVlike
p55
I2
sVchristine
p56
I1
sVtear
p57
I1
sVtardy
p58
I1
sVbay
p59
I1
sVclurvin
p60
I1
sVdid
p61
I1
sVbackboard
p62
I1
sVholdin
p63
I1
sVt
I1
sVtutorin
p64
I1
sVoutta
p65
I1
sVquick
p66
I1
sVchick
p67
I1
sVtold
p68
I2
sVsteal
p69
I1
sVmean
p70
I1
sVem
p71
I4
sVass
p72
I3
sVright
p73
I4
sVnuttin
p74
I1
sVpeople
p75
I1
sVcomin
p76
I1
sVpronounce
p77
I1
sVyeah
p78
I7
sVbatch
p79
I1
sVtires
p80
I1
sVsee
p81
I1
sVniggaz
p82
I2
sVhoes
p83
I1
sVplayin
p84
I1
sVclick
p85
I6
sVwhip
p86
I2
sVeven
p87
I2
sVgon
p88
I2
sVnetwork
p89
I1
sVirene
p90
I1
sVthough
p91
I1
sVrings
p92
I1
sVslick
p93
I1
sVsherrie
p94
I1
sVgot
p95
I7
sVcause
p96
I1
sVpublic
p97
I1
sVexercise
p98
I1
sVdem
p99
I1
sVbreakatrick
p100
I1
sVima
p101
I1
sVnever
p102
I1
sVrun
p103
I1
sVflo
p104
I1
sVultimatums
p105
I1
sVcars
p106
I1
sVmen
p107
I1
sVsuga
p108
I5
sVlet
p109
I2
sVclues
p110
I1
sVput
p111
I2
sVwillies
p112
I1
sVcome
p113
I2
sVchange
p114
I1
sVcollars
p115
I1
sVdry
p116
I1
sVboy
p117
I6
sVdevestatin
p118
I1
sVskanless
p119
I1
sVcot
p120
I1
sVoh
p121
I6
sVdollars
p122
I1
sVclothes
p123
I1
sVkeep
p124
I1
sVdrama
p125
I1
sVdrawers
p126
I1
sVrange
p127
I1
sVfaces
p128
I2
sVaction
p129
I1
sVnarrow
p130
I1
sVthink
p131
I1
sVfuckin
p132
I1
sVthats
p133
I2
sVcutlass
p134
I1
sVlrps
p135
I1
sVengagement
p136
I1
sVlove
p137
I1
sVgrandaddy
p138
I1
sVdrunk
p139
I1
sVpussy
p140
I2
sVpot
p141
I1
sVdudes
p142
I1
sVone
p143
I2
sVstop
p144
I1
sVgrudges
p145
I1
sVpop
p146
I3
sVschemes
p147
I1
sVpromise
p148
I3
sVparalyzed
p149
I1
sVfake
p150
I1
sVoldest
p151
I1
sVopen
p152
I1
sVbra
p153
I1
sVumbrella
p154
I1
sVshoestringsnthings
p155
I1
sVlittle
p156
I1
sVbasketball
p157
I1
sVdont
p158
I1
sVspoke
p159
I1
sVsneaky
p160
I1
sVcaught
p161
I1
sVtennis
p162
I1
sVtwo
p163
I1
sVlong
p164
I2
sVmobbin
p165
I1
sVcall
p166
I2
sVchlorine
p167
I1
sVway
p168
I2
sVahhh
p169
I1
sVswitchin
p170
I1
sVhundred
p171
I1
sVtell
p172
I1
sVfriend
p173
I1
sVscratched
p174
I1
sVflat
p175
I1
sVbuy
p176
I1
sVfemales
p177
I3
sVpimpin
p178
I3
sVafford
p179
I1
sVfuck
p180
I2
sVserve
p181
I1
sVtook
p182
I1
sVback
p183
I2
sVbuyin
p184
I1
sVhear
p185
I1
sVgin
p186
I1
sVcuming
p187
I1
sVshoelaces
p188
I1
sVbelieve
p189
I1
sVcunning
p190
I1
sVe40
p191
I1
sVtryin
p192
I3
sVdealin
p193
I1
sVstraight
p194
I1
sVstackagrip
p195
I1
sVup
p196
I2
sVus
p197
I3
sVtrick
p198
I1
sVsuckin
p199
I1
sVhustlin
p200
I1
sVthree
p201
I1
sVden
p202
I1
sVunderdig
p203
I1
sVconniving
p204
I1
sVfigure
p205
I1
sVgive
p206
I2
sVsoil
p207
I1
sVtasters
p208
I1
sVmind
p209
I1
sVit
p210
I2
sVjewels
p211
I1
sVneed
p212
I1
sVcant
p213
I2
sVim
p214
I4
sVsly
p215
I1
sVwant
p216
I2
sVyalls
p217
I1
sVsomebody
p218
I1
sVfame
p219
I1
sVshit
p220
I2
sVscrew
p221
I1
sVburnin
p222
I1
sVtrill
p223
I1
sVbosses
p224
I2
sVmake
p225
I3
sVbeotches
p226
I1
sVtutored
p227
I1
sVsquare
p228
I1
sVbest
p229
I1
sVyeahhh
p230
I1
sVtie
p231
I1
sVyou
p232
I1
sVfaulty
p233
I1
sVsmell
p234
I1
sVtalkin
p235
I1
sVplay
p236
I1
sVball
p237
I2
sVokay
p238
I2
sVtried
p239
I1
sVlie
p240
I1
sVkeys
p241
I1
sVposed
p242
I1
sVrappers
p243
I1
sVfootball
p244
I1
sVupon
p245
I1
sVtied
p246
I1
sVscratch
p247
I1
sVdorene
p248
I1
sVtheyll
p249
I1
sVcollar
p250
I1
sVclass
p251
I2
sVman
p252
I3
sVunderneath
p253
I1
sVwindows
p254
I1
sVenthusiastic
p255
I1
sVstraps
p256
I1
sVwell
p257
I1
sVnothin
p258
I1
sVorgasms
p259
I1
sVwithout
p260
I1
sVjail
p261
I1
sVbroad
p262
I1
sVmouthpiece
p263
I2
sVindo
p264
I1
sVallowance
p265
I1
sVkickin
p266
I1
s.