(dp1
Vshot
p2
I1
sVknoowww
p3
I1
sVlyrics
p4
I2
sVincareration
p5
I1
sVmuthamuthamuthamuthafucka
p6
I1
sVdrinkin
p7
I1
sVhillbilly
p8
I1
sVyears
p9
I1
sVhillside
p10
I1
sVcryin
p11
I1
sVever
p12
I1
sVkill
p13
I1
sVgo
p14
I1
sVmingle
p15
I1
sVfear
p16
I1
sVstill
p17
I1
sVtakin
p18
I1
sVyet
p19
I1
sVmake
p20
I3
sVima
p21
I1
sVdeath
p22
I1
sVdice
p23
I2
sVpeanut
p24
I2
sVdancin
p25
I1
sVcuz
p26
I4
sVsend
p27
I1
sVhuggin
p28
I1
sVlyin
p29
I1
sVhavin
p30
I1
sVlets
p31
I2
sVwalks
p32
I1
sVthump
p33
I1
sVfolks
p34
I1
sVbout
p35
I1
sVmain
p36
I1
sVmight
p37
I1
sVworth
p38
I1
sVsure
p39
I1
sVhappened
p40
I1
sVthen
p41
I1
sVdag
p42
I1
sVstreet
p43
I1
sVaround
p44
I1
sVyo
p45
I1
sVget
p46
I5
sVya
p47
I3
sVcould
p48
I1
sVsittin
p49
I1
sVstop
p50
I2
sVe40
p51
I1
sVlovin
p52
I2
sVshoot
p53
I1
sVgame
p54
I1
sVones
p55
I1
sVtraffic
p56
I1
sVknow
p57
I4
sVfront
p58
I1
sVtrouble
p59
I1
sVrealize
p60
I1
sVbaulkin
p61
I1
sVpistol
p62
I1
sVkite
p63
I1
sVlike
p64
I1
sValways
p65
I1
sVgettin
p66
I2
sVtissue
p67
I1
sVmuthafuckas
p68
I3
sVmorning
p69
I1
sVleave
p70
I1
sVjokes
p71
I1
sVgood
p72
I1
sVwit
p73
I1
sVroast
p74
I1
sVquick
p75
I1
sVsleep
p76
I3
sVwent
p77
I2
sVtold
p78
I1
sVorgen
p79
I1
sVmean
p80
I2
sVem
p81
I3
sVnigga
p82
I7
sVfun
p83
I1
sVmuthafuckmuthafucka
p84
I1
sVcount
p85
I1
sVhouse
p86
I1
sVhard
p87
I1
sVyeah
p88
I1
sVdead
p89
I1
sVkitchen
p90
I1
sVsee
p91
I2
sVused
p92
I1
sVdayroom
p93
I1
sVhurst
p94
I1
sVplead
p95
I1
sVfine
p96
I1
sVhome
p97
I1
sVclick
p98
I1
sVreally
p99
I1
sVeven
p100
I1
sVdungeon
p101
I1
sVsaid
p102
I3
sVmissed
p103
I1
sVsilly
p104
I1
sVwaiting
p105
I1
sVmiss
p106
I1
sVsince
p107
I1
sVwop
p108
I2
sVthrill
p109
I1
sVeverything
p110
I1
sVpen
p111
I1
sVnope
p112
I1
sVcountys
p113
I1
sVshingle
p114
I1
sVgot
p115
I3
sVpotna
p116
I1
sVcause
p117
I1
sVguns
p118
I1
sVhogan
p119
I1
sVbought
p120
I1
sVass
p121
I5
sV24
p122
I1
sVshut
p123
I2
sVdrink
p124
I1
sVstate
p125
I1
sVcommits
p126
I1
sVbitches
p127
I1
sVnever
p128
I2
sVmuthafucka
p129
I6
sVfree
p130
I1
sVliquors
p131
I1
sVmet
p132
I1
sVtracks
p133
I1
sVlet
p134
I6
sVhere
p135
I1
sVtrunk
p136
I1
sVhave
p137
I1
sVtalking
p138
I1
sVstay
p139
I1
sVfaggot
p140
I1
sVwait
p141
I2
sVevery
p142
I1
sVhours
p143
I1
sVstone
p144
I1
sVkids
p145
I1
sVlast
p146
I1
sVknowin
p147
I1
sVoh
p148
I1
sVof
p149
I1
sVill
p150
I2
sVpunk
p151
I1
sVstep
p152
I1
sVpage
p153
I2
sVwalkin
p154
I1
sVfunky
p155
I1
sVstand
p156
I1
sVretarded
p157
I1
sVmercedes
p158
I1
sVhead
p159
I1
sVthink
p160
I2
sVfuckin
p161
I1
sVfirst
p162
I1
sVspotted
p163
I1
sVwhats
p164
I3
sVdont
p165
I3
sV400
p166
I1
sVdrunk
p167
I1
sVfeel
p168
I3
sVstuck
p169
I1
sVmakin
p170
I1
sVone
p171
I1
sVdown
p172
I1
sVtouchin
p173
I1
sVbitch
p174
I3
sVcousin
p175
I1
sVcarry
p176
I1
sVplastic
p177
I1
sVopen
p178
I1
sVkind
p179
I1
sVeverybody
p180
I1
sVguess
p181
I1
sVkillin
p182
I1
sVwould
p183
I1
sVaint
p184
I1
sVtwisted
p185
I2
sVfast
p186
I1
sVnext
p187
I2
sVbreath
p188
I1
sValmost
p189
I1
sV2
I1
sVdamn
p190
I1
sV187
p191
I1
sVway
p192
I2
sVgoin
p193
I1
sVtype
p194
I2
sVtell
p195
I1
sVtoe
p196
I1
sVshoulders
p197
I1
sVshank
p198
I1
sVstarted
p199
I2
sVfreedom
p200
I1
sVcant
p201
I2
sVfuck
p202
I2
sVexcuse
p203
I1
sVheat
p204
I1
sVpart
p205
I2
sVrabbit
p206
I1
sVstraight
p207
I1
sVhadnt
p208
I1
sVe
I2
sVtrue
p209
I1
sVfunk
p210
I1
sVmust
p211
I1
sVme
p212
I3
sVprovin
p213
I1
sVmade
p214
I2
sVroom
p215
I3
sVniggas
p216
I5
sVwish
p217
I2
sVlayin
p218
I1
sVcousins
p219
I1
sVup
p220
I3
sVdungeonwonderin
p221
I1
sVmiddle
p222
I1
sVdissed
p223
I1
sVdefense
p224
I1
sVdank
p225
I1
sVcase
p226
I1
sVmuggin
p227
I1
sVnewspaper
p228
I1
sVim
p229
I8
sVproblem
p230
I1
sVta
p231
I1
sVdidnt
p232
I3
sVsahob
p233
I1
sVsucka
p234
I1
sVbulkin
p235
I1
sVgone
p236
I1
sVoutta
p237
I1
sVprole
p238
I1
sVwasnt
p239
I5
sVah
p240
I2
sVin
p241
I1
sVturned
p242
I1
sVit
p243
I6
sVdeep
p244
I2
sVroll
p245
I1
sVhigh
p246
I1
sVtoilet
p247
I1
sVsay
p248
I2
sVsomeone
p249
I1
sVxboyfriend
p250
I1
sVmanner
p251
I1
sVwant
p252
I2
sVtelly
p253
I1
sVbones
p254
I1
sVmy
p255
I1
sVshit
p256
I3
sVgrown
p257
I1
sVlooked
p258
I1
sVdifferent
p259
I1
sVna
p260
I1
sVself
p261
I1
sVclub
p262
I1
sVwater
p263
I1
sVeatin
p264
I1
sVstayed
p265
I1
sVtill
p266
I1
sVwithout
p267
I1
sVtake
p268
I1
sVbig
p269
I1
sVparty
p270
I2
sVwonder
p271
I1
sVtalkin
p272
I2
sVthinkin
p273
I1
sVweek
p274
I1
sVnab
p275
I1
sVball
p276
I1
sVfelt
p277
I1
sVstrapin
p278
I1
sVweed
p279
I1
sVwrong
p280
I1
sVgon
p281
I1
sVfucked
p282
I1
sVman
p283
I1
sVcrackin
p284
I1
sVsomethin
p285
I3
sVkept
p286
I1
sVwhole
p287
I1
sVtricks
p288
I1
sVwell
p289
I1
sVanybody
p290
I1
sVfighting
p291
I1
sVface
p292
I1
sVthought
p293
I4
sVmark
p294
I1
sVpumped
p295
I1
sVcame
p296
I1
sVbrew
p297
I1
sVmuthafuckin
p298
I1
sVthats
p299
I3
sVdream
p300
I1
sVkickin
p301
I1
sVfact
p302
I1
s.