(dp1
Vserving
p2
I1
sVshot
p3
I4
sVlyrics
p4
I2
sVless
p5
I1
sVyoung
p6
I1
sVmoney
p7
I2
sVover
p8
I2
sVbutt
p9
I1
sVpopo
p10
I2
sVmission
p11
I1
sVcross
p12
I4
sVfour
p13
I1
sVcourse
p14
I1
sVrifles
p15
I2
sVsleep
p16
I1
sVsqueeze
p17
I1
sVmob
p18
I1
sVslippin
p19
I1
sVrange
p20
I1
sVfear
p21
I1
sVbeer
p22
I1
sVbank
p23
I1
sVrushing
p24
I1
sVaint
p25
I1
sVswad
p26
I1
sVwraps
p27
I1
sVcareful
p28
I2
sVpolice
p29
I2
sVsks
p30
I1
sVadvantage
p31
I1
sVsparks
p32
I2
sV12gauge
p33
I1
sVpercent
p34
I2
sVwritten
p35
I1
sVsend
p36
I4
sVkindabe
p37
I2
sVtape
p38
I2
sVchoose
p39
I1
sVrich
p40
I1
sVcrack
p41
I4
sVbeatch
p42
I4
sVmight
p43
I2
sVearthquakes
p44
I1
sVtake
p45
I5
sVgrip
p46
I1
sVmobbed
p47
I2
sVgood
p48
I2
sVhandle
p49
I1
sVrisk
p50
I1
sVyo
p51
I1
sVget
p52
I6
sVbeat
p53
I1
sVpumpin
p54
I1
sVexpress
p55
I1
sVcover
p56
I1
sVuhh
p57
I4
sVchoice
p58
I1
sVbreak
p59
I4
sVgoons
p60
I1
sVwalls
p61
I1
sVscout
p62
I1
sVtraffic
p63
I1
sVblackjack
p64
I1
sVknocks
p65
I1
sVone
p66
I3
sVchips
p67
I1
sVday
p68
I4
sVcampbell
p69
I1
sVname
p70
I1
sVgoing
p71
I5
sVremington
p72
I1
sVwhatchu
p73
I2
sVlike
p74
I7
sVroll
p75
I1
sVdidi
p76
I4
sVgun
p77
I1
sVrobbin
p78
I2
sVcalling
p79
I1
sVtry
p80
I6
sVcrushed
p81
I1
sVenterprises
p82
I4
sVbrenton
p83
I1
sVeither
p84
I1
sVman
p85
I5
sValways
p86
I4
sVquick
p87
I1
sVbeeatch
p88
I1
sVmusclin
p89
I1
sVups
p90
I1
sVrelives
p91
I1
sVem
p92
I5
sVcan
p93
I1
sVnigga
p94
I2
sVyola
p95
I3
sVten
p96
I2
sVthrowing
p97
I1
sVhard
p98
I4
sVfixture
p99
I1
sVback
p100
I2
sVmannish
p101
I1
sVideals
p102
I1
sVborn
p103
I1
sVsecond
p104
I1
sVstreet
p105
I1
sVcandy
p106
I1
sVgo
p107
I1
sVmirror
p108
I1
sVcant
p109
I4
sVill
p110
I1
sVbay
p111
I1
sVbigger
p112
I1
sVbreeded
p113
I1
sVbest
p114
I1
sVreally
p115
I1
sVmobbin
p116
I2
sVglassterboyant
p117
I1
sVgon
p118
I2
sVdraws
p119
I1
sVturks
p120
I1
sVwaiting
p121
I4
sVstuck
p122
I1
sVquality
p123
I1
sVtribulum
p124
I1
sVmedicine
p125
I1
sVlegal
p126
I1
sVfedex
p127
I1
sVweapons
p128
I1
sVtornado
p129
I1
sVenough
p130
I5
sVstuff
p131
I4
sVeyou
p132
I2
sV247
p133
I1
sVgot
p134
I11
sVcause
p135
I1
sVacross
p136
I3
sVlays
p137
I1
sVass
p138
I1
sVmed
p139
I1
sVtoes
p140
I2
sVchose
p141
I1
sVthrob
p142
I1
sVnever
p143
I2
sVmuthafucka
p144
I2
sVit
p145
I7
sVboss
p146
I1
sVwater
p147
I1
sVjob
p148
I2
sVozs
p149
I1
sVtrunk
p150
I1
sVthrowback
p151
I2
sVcough
p152
I1
sVthrow
p153
I1
sVchange
p154
I1
sVbox
p155
I1
sVcop
p156
I1
sVanything
p157
I1
sVgangbang
p158
I1
sVcoppin
p159
I2
sVtaking
p160
I1
sVsinister
p161
I1
sVoversea
p162
I1
sVquiet
p163
I1
sVrolled
p164
I1
sVflicking
p165
I1
sVjogging
p166
I1
sVplace
p167
I1
sVmane
p168
I1
sVbeotch
p169
I1
sVmean
p170
I5
sVwhole
p171
I2
sVthink
p172
I5
sVblock
p173
I1
sVdesigned
p174
I1
sVheavy
p175
I1
sVtantums
p176
I1
sVlove
p177
I1
sVdont
p178
I2
sVdanger
p179
I1
sVsmelling
p180
I1
sVwhatever
p181
I1
sVtwo
p182
I3
sVfeet
p183
I3
sVnothing
p184
I2
sVset
p185
I1
sVive
p186
I4
sVbitch
p187
I1
sVcraps
p188
I1
sVhear
p189
I1
sVunitless
p190
I1
sVsoberbees
p191
I1
sVopen
p192
I1
sVrefrigerators
p193
I1
sVhood
p194
I2
sVape
p195
I1
sVeverybody
p196
I1
sVeast
p197
I2
sVbrakes
p198
I1
sVsaran
p199
I1
sV2k11
p200
I2
sVaye
p201
I4
sVpreference
p202
I4
sVbreed
p203
I1
sVdude
p204
I1
sVthree
p205
I1
sVfast
p206
I1
sVplastic
p207
I2
sVbreath
p208
I1
sVbacking
p209
I1
sVlive
p210
I1
sVcats
p211
I1
sVmusic
p212
I1
sVbluffing
p213
I1
sVhustlin
p214
I1
sVbaggies
p215
I1
sVlions
p216
I1
sVpella
p217
I1
sVtell
p218
I6
sVyac
p219
I4
sVlowest
p220
I1
sVtryna
p221
I2
sVlife
p222
I7
sVclever
p223
I1
sVway
p224
I1
sVbatman
p225
I1
sVcoke
p226
I2
sVcapitalizing
p227
I1
sVtook
p228
I3
sVchimpanzee
p229
I1
sVyeah
p230
I3
sVunderstand
p231
I1
sVbasically
p232
I1
sVmuthamuthafucka
p233
I2
sVprices
p234
I1
sVhold
p235
I1
sVgoes
p236
I1
sVshoot
p237
I1
sVhigh
p238
I1
sVe40
p239
I1
sVflamboyant
p240
I7
sVpracticing
p241
I1
sVwore
p242
I1
sVniggas
p243
I3
sVroulette
p244
I1
sVfeddy
p245
I2
sVsay
p246
I2
sVus
p247
I9
sVchoices
p248
I1
sVaim
p249
I1
sVdaniel
p250
I1
sVhooligans
p251
I1
sVempty
p252
I1
sVden
p253
I1
sVmr
p254
I7
sVcake
p255
I1
sVta
p256
I2
sVdidnt
p257
I7
sVrobin
p258
I2
sVthunder
p259
I1
sVreal
p260
I1
sVperfecting
p261
I1
sVlately
p262
I4
sVclip
p263
I1
sVgive
p264
I2
sValmost
p265
I1
sVpunk
p266
I1
sVpro
p267
I1
sVbust
p268
I1
sVfuck
p269
I1
sVslap
p270
I1
sVmidwest
p271
I1
sVspittin
p272
I1
sVbeats
p273
I4
sVminimum
p274
I1
sVim
p275
I14
sVpushing
p276
I1
sVin
p277
I1
sVneed
p278
I3
sVevery
p279
I1
sVmoves
p280
I1
sVsouth
p281
I1
sVtrip
p282
I1
sVshit
p283
I2
sVhog
p284
I1
sVsip
p285
I4
sVfaithful
p286
I1
sVexcruciation
p287
I1
sVna
p288
I2
sVmake
p289
I3
sVwhoopin
p290
I1
sVable
p291
I1
sVsleeted
p292
I1
sVfame
p293
I1
sVstubborn
p294
I1
sVmuthafuckin
p295
I1
sVfind
p296
I1
sVcomes
p297
I1
sVmotherfuckin
p298
I1
sVbig
p299
I4
sVwhyaye
p300
I1
sVexpose
p301
I2
sVgamble
p302
I1
sVtension
p303
I1
sVused
p304
I1
sVsee
p305
I5
sVtrack
p306
I1
sVput
p307
I1
sVdoin
p308
I1
sVmovin
p309
I1
sVrain
p310
I1
sVkit
p311
I1
sVknuckleheads
p312
I1
sVlegitament
p313
I4
sVshooting
p314
I1
sVcleaning
p315
I1
sVkinda
p316
I2
sVsnitch
p317
I1
sVrolling
p318
I1
sVprolly
p319
I1
sVcoast
p320
I1
sVdamage
p321
I1
sVgoin
p322
I2
sVnight
p323
I4
sVlane
p324
I1
sVtreats
p325
I1
sVrequest
p326
I1
sVgame
p327
I1
sVknow
p328
I1
sVfreeway
p329
I1
sVways
p330
I1
sVhella
p331
I2
sVtruck
p332
I2
sVfuckin
p333
I1
sVbottle
p334
I4
sVtime
p335
I3
sVfar
p336
I2
sVfresh
p337
I1
sVyears
p338
I4
sV223s
p339
I1
sVcame
p340
I2
sVdodging
p341
I1
s.