(dp1
Vhellaloud
p2
I1
sVpopsicle
p3
I1
sVlyrics
p4
I2
sVmoney
p5
I1
sVmove
p6
I1
sVcolors
p7
I1
sVpaper
p8
I1
sVfeat
p9
I1
sVima
p10
I1
sVdice
p11
I1
sVcup
p12
I16
sVthang
p13
I1
sVdick
p14
I1
sVboard
p15
I1
sVmarks
p16
I1
sVfool
p17
I2
sVme
p18
I2
sVrb
p19
I1
sVmayn
p20
I1
sVdark
p21
I1
sVdock
p22
I2
sVgame
p23
I3
sVtraffic
p24
I1
sVknow
p25
I2
sVlife
p26
I1
sVfeelings
p27
I1
sVpimp
p28
I1
sVname
p29
I1
sVlike
p30
I6
sVhickory
p31
I1
sVbrightness
p32
I1
sVboost
p33
I1
sVbrother
p34
I1
sVcodeineing
p35
I1
sVslipping
p36
I1
sVstuff
p37
I1
sVt
I1
sVchick
p38
I1
sVside
p39
I2
sVem
p40
I3
sVhard
p41
I1
sVback
p42
I3
sVup
p43
I2
sVtoes
p44
I1
sVus
p45
I1
sVhoes
p46
I1
sVeating
p47
I1
sVout
p48
I1
sVknees
p49
I1
sVpurple
p50
I1
sVplayas
p51
I5
sVice
p52
I1
sVlooking
p53
I1
sVbehind
p54
I1
sVplaya
p55
I1
sVgot
p56
I12
sVcause
p57
I1
sVsaps
p58
I1
sVaint
p59
I1
sVdickory
p60
I1
sVfull
p61
I1
sVchristian
p62
I1
sVloose
p63
I1
sVsuga
p64
I1
sVboss
p65
I1
sVlet
p66
I3
sVweeples
p67
I1
sVothers
p68
I1
sVput
p69
I1
sVcome
p70
I2
sVtripping
p71
I1
sVswishahouse
p72
I1
sVgetting
p73
I1
sVroute
p74
I1
sVpunk
p75
I1
sVkeep
p76
I1
sVplus
p77
I1
sVpockets
p78
I1
sVusually
p79
I1
sVhead
p80
I2
sVthats
p81
I1
sVhustlas
p82
I1
sVreal
p83
I1
sVdrunk
p84
I1
sVbetting
p85
I1
sVblessed
p86
I1
sVone
p87
I2
sVthatthatthatthatthatthat
p88
I1
sVdone
p89
I1
sVcouldnt
p90
I1
sVsweating
p91
I1
sVspan
p92
I1
sVworking
p93
I1
sVhes
p94
I1
sVtop
p95
I1
sVwad
p96
I1
sVplastic
p97
I4
sVstuck
p98
I1
sVdropping
p99
I1
sVmusic
p100
I1
sVlow
p101
I1
sVway
p102
I1
sVexpected
p103
I1
sVsars
p104
I1
sVwhite
p105
I2
sVdogs
p106
I1
sVthrew
p107
I1
sVeyes
p108
I1
sVsuckas
p109
I1
sVlot
p110
I2
sVspit
p111
I1
sVafford
p112
I2
sVleaking
p113
I1
sVfuck
p114
I1
sVstick
p115
I1
sVcatch
p116
I2
sVhaters
p117
I2
sVtrue
p118
I1
sVbossy
p119
I1
sVfunk
p120
I1
sVmust
p121
I1
sVshoot
p122
I1
sVe40
p123
I1
sVballs
p124
I1
sVunlike
p125
I1
sVjuice
p126
I1
sVthis
p127
I1
sVattention
p128
I1
sVbatch
p129
I1
sVpour
p130
I1
sVuh
p131
I2
sVms
p132
I1
sVleaning
p133
I1
sVcake
p134
I1
sVgroove
p135
I1
sVill
p136
I1
sVand
p137
I1
sVgone
p138
I1
sVcheckahater
p139
I1
sVparking
p140
I1
sVit
p141
I1
sVtwist
p142
I1
sVtalking
p143
I1
sVcant
p144
I5
sVim
p145
I10
sVeveryday
p146
I1
sVcream
p147
I1
sVsimps
p148
I1
sVdate
p149
I1
sVsit
p150
I1
sVveteran
p151
I1
sVshoulders
p152
I1
sVsame
p153
I1
sVgrabbing
p154
I1
sVwanting
p155
I1
sVbuttersworth
p156
I1
sVpan
p157
I1
sVclub
p158
I1
sVstaircase
p159
I1
sVpark
p160
I1
sVfootball
p161
I1
sVreach
p162
I1
sVpimps
p163
I1
sVbrandy
p164
I1
sVbirthday
p165
I1
sVkinda
p166
I1
sVfucked
p167
I2
sVmeals
p168
I1
sVsinger
p169
I1
sVguerilla
p170
I1
sVbustas
p171
I1
sVaverage
p172
I1
sVwell
p173
I1
sVhoochies
p174
I1
sVeasmic
p175
I1
sVtime
p176
I1
sVbumping
p177
I1
sVpulled
p178
I1
s.