(dp1
Vrepresent
p2
I1
sVstandin
p3
I1
sVstores
p4
I1
sVhelp
p5
I1
sVlyrics
p6
I2
sVcopper
p7
I1
sVv12
p8
I1
sVscratch
p9
I1
sVcopy
p10
I1
sVmindgames
p11
I1
sVbacardi
p12
I1
sVpaper
p13
I1
sVparked
p14
I1
sVfile
p15
I1
sVshot
p16
I1
sVcurb
p17
I1
sVstill
p18
I1
sVfeat
p19
I1
sVfind
p20
I2
sVdrinkin
p21
I1
sV25
p22
I1
sVteasin
p23
I1
sVdeath
p24
I1
sVla
p25
I1
sVsweetest
p26
I1
sVstudio
p27
I1
sVsend
p28
I1
sVsportin
p29
I1
sVclapper
p30
I1
sVemblems
p31
I1
sVblack
p32
I2
sVmoney
p33
I1
sVfolks
p34
I1
sVbout
p35
I1
sVbeatch
p36
I2
sVballoons
p37
I1
sVgs
p38
I1
sVta
p39
I2
sVreal
p40
I2
sVme
p41
I1
sVgood
p42
I1
sVhit
p43
I2
sVlivin
p44
I2
sVcaint
p45
I1
sVget
p46
I6
sVbeat
p47
I1
sVdvds
p48
I1
sVhousewifes
p49
I1
sVkind
p50
I1
sVtrees
p51
I2
sVbreak
p52
I1
sVshoot
p53
I1
sVbang
p54
I1
sVthumpin
p55
I1
sVknow
p56
I4
sVbosses
p57
I1
sVps
p58
I1
sVwhatshername
p59
I1
sV600s
p60
I1
sVschool
p61
I1
sVmagic
p62
I1
sVlike
p63
I5
sVtoes
p64
I1
sVvader
p65
I1
sVcutlasses
p66
I1
sVdig
p67
I1
sVrapper
p68
I1
sVgun
p69
I1
sVbay
p70
I3
sVbag
p71
I1
sVbad
p72
I1
sVcrotch
p73
I1
sVliable
p74
I1
sVroscoes
p75
I1
sVfixed
p76
I1
sVstraight
p77
I2
sVyall
p78
I1
sVclothes
p79
I1
sVem
p80
I4
sVperved
p81
I1
sVnigga
p82
I23
sVnuttin
p83
I1
sVmental
p84
I1
sVslangin
p85
I1
sVthrowin
p86
I1
sVhard
p87
I2
sVback
p88
I1
sVtvs
p89
I1
sVbenzes
p90
I1
sVmotive
p91
I2
sVballers
p92
I1
sVcost
p93
I1
sVsteppin
p94
I1
sVus
p95
I2
sVhoes
p96
I1
sVclick
p97
I4
sVshows
p98
I1
sVgon
p99
I1
sVweakness
p100
I1
sVtakin
p101
I1
sVsince
p102
I1
sVgrindin
p103
I1
sVslick
p104
I1
sVice
p105
I2
sVenough
p106
I1
sVbotchs
p107
I1
sVplaya
p108
I1
sVgot
p109
I3
sVballaholics
p110
I2
sVcause
p111
I2
sVsold
p112
I1
sVhustle
p113
I1
sVbody
p114
I1
sVaint
p115
I2
sVfull
p116
I1
sVrun
p117
I1
sVstrapped
p118
I1
sVherb
p119
I1
sVscreen
p120
I1
sVmillion
p121
I1
sVmotherfucker
p122
I1
sVboss
p123
I3
sVheroin
p124
I1
sVlet
p125
I1
sVsmokin
p126
I1
sVpapered
p127
I1
sVtrunk
p128
I1
sVross
p129
I1
sVcome
p130
I1
sVthrow
p131
I2
sVcare
p132
I1
sVeightysix
p133
I1
sVlifestyle
p134
I1
sVk
I1
sVbotch
p135
I1
sVllac
p136
I1
sVkeep
p137
I1
sVwalkin
p138
I1
sVturn
p139
I1
sVpuffin
p140
I1
sVounce
p141
I1
sVgames
p142
I1
sVrecop
p143
I1
sVtestimony
p144
I1
sVpuff
p145
I1
sVos
p146
I1
sVthink
p147
I2
sVshoppin
p148
I1
sVthats
p149
I1
sVsmugglin
p150
I1
sVass
p151
I2
sVwhats
p152
I1
sVsicwidit
p153
I1
sVspliff
p154
I1
sVoutoftowner
p155
I1
sVjeans
p156
I1
sVpop
p157
I2
sVone
p158
I3
sVchronic
p159
I1
sVvip
p160
I1
sVschemes
p161
I1
sVdone
p162
I1
sVbitch
p163
I6
sVparties
p164
I1
sVgatherings
p165
I1
sVscissors
p166
I1
sVthick
p167
I1
sVrolls
p168
I1
sVhood
p169
I1
sVwan
p170
I1
sVwould
p171
I1
sVsprees
p172
I1
sVsock
p173
I1
sVlong
p174
I1
sVnext
p175
I1
sVcali
p176
I1
sVlive
p177
I1
sVcall
p178
I1
sVtell
p179
I1
sVway
p180
I1
sVgin
p181
I1
sVwhite
p182
I1
sVbigass
p183
I1
sVliquor
p184
I2
sVtoe
p185
I1
sVlife
p186
I1
sVdiamond
p187
I1
sVthat
p188
I1
sVbitches
p189
I1
sVphony
p190
I1
sVelse
p191
I1
sVbosko
p192
I1
sVbounce
p193
I1
sVcatch
p194
I1
sVmice
p195
I1
sVhaters
p196
I1
sVtrue
p197
I1
sVceremonies
p198
I1
sVsteel
p199
I1
sV10
p200
I1
sVe40
p201
I1
sVdicks
p202
I1
sVplenty
p203
I1
sVconsist
p204
I1
sVride
p205
I1
sVroley
p206
I1
sVthickest
p207
I1
sVniggaz
p208
I9
sVair
p209
I1
sVmatter
p210
I1
sVstreet
p211
I1
sVlavish
p212
I1
sVdirty
p213
I1
sVcollege
p214
I1
sVpaved
p215
I1
sVpertain
p216
I1
sVshes
p217
I2
sVirish
p218
I1
sVlick
p219
I1
sVfalse
p220
I1
sVrap
p221
I1
sVfigure
p222
I5
sVbust
p223
I1
sVpurse
p224
I1
sVfuck
p225
I1
sVclickish
p226
I1
sVsay
p227
I1
sVim
p228
I6
sVwant
p229
I1
sVready
p230
I1
sVave
p231
I1
sVid
p232
I1
sVshit
p233
I24
sVsippin
p234
I2
sVyo
p235
I2
sVna
p236
I1
sV40
p237
I1
sVeveryday
p238
I3
sVtil
p239
I1
sVhella
p240
I1
sVtake
p241
I3
sVsick
p242
I1
sVbig
p243
I7
sVparty
p244
I1
sVordinary
p245
I6
sVtalkin
p246
I1
sVnice
p247
I1
sVindependent
p248
I1
sVpennies
p249
I1
sVsmoke
p250
I3
sVsee
p251
I4
sVdoin
p252
I1
sVtime
p253
I1
sVima
p254
I1
sVnig
p255
I3
sVpaid
p256
I2
sVdenial
p257
I1
sVstab
p258
I1
sVtimin
p259
I1
sVpair
p260
I1
sVmack
p261
I4
sVcollar
p262
I1
sVpull
p263
I1
sVknown
p264
I1
sVdshot
p265
I1
sVwhores
p266
I1
sVvice
p267
I1
sVyoure
p268
I1
sVgame
p269
I2
sV2000
p270
I1
sVdawgs
p271
I1
sVhumvee
p272
I1
sVblock
p273
I1
sVpay
p274
I1
sVwalker
p275
I1
sVworst
p276
I1
sVtradin
p277
I1
sVfirst
p278
I1
sVyours
p279
I1
sVbodies
p280
I1
s.