(dp1
Vwhattup
p2
I1
sVcrept
p3
I1
sVmonth
p4
I1
sVgo
p5
I2
sVladidadi
p6
I1
sVnines
p7
I1
sVlevitti
p8
I1
sVyoung
p9
I2
sVto
p10
I8
sVworth
p11
I1
sVgino
p12
I1
sVfat
p13
I1
sVcrackin
p14
I2
sVforked
p15
I1
sVtrouble
p16
I1
sVtickets
p17
I1
sVschool
p18
I1
sVcleaners
p19
I1
sVmo
p20
I1
sVclothes
p21
I1
sVneighborhood
p22
I1
sVbaldfaced
p23
I1
sVstreet
p24
I1
sVvideo
p25
I1
sVbooth
p26
I1
sVfreezin
p27
I1
sVgiving
p28
I1
sVshon
p29
I1
sVnew
p30
I1
sVtold
p31
I1
sVbody
p32
I1
sVtoes
p33
I1
sVden
p34
I1
sVsuga
p35
I2
sVridin
p36
I1
sVwater
p37
I1
sVlet
p38
I1
sVtrunk
p39
I3
sVfifteen
p40
I1
sVboy
p41
I1
sVgreat
p42
I1
sVsmoke
p43
I2
sVaction
p44
I1
sVexplain
p45
I1
sVthats
p46
I3
sVsecure
p47
I1
sVcounty
p48
I1
sVduck
p49
I1
sVunit
p50
I1
sVstrapped
p51
I1
sVeye
p52
I1
sVoclock
p53
I1
sVdude
p54
I1
sVnext
p55
I1
sVcall
p56
I1
sVfilms
p57
I1
sVeagles
p58
I1
sVtryin
p59
I3
sVtype
p60
I1
sVtell
p61
I1
sVsheeeyit
p62
I1
sVduper
p63
I2
sVresevoir
p64
I1
sVphone
p65
I1
sVdey
p66
I10
sVword
p67
I1
sVcheapest
p68
I1
sVthis
p69
I2
sVride
p70
I2
sVniggaz
p71
I1
sVmall
p72
I1
sVfakin
p73
I1
sVmr
p74
I1
sVstubborn
p75
I1
sVtap
p76
I1
sVfuck
p77
I5
sVbosstigili
p78
I2
sVsmitty
p79
I1
sVmeans
p80
I1
sVshakin
p81
I1
sVspeeding
p82
I1
sVgurl
p83
I1
sVsprinkle
p84
I1
sVvacumn
p85
I1
sVmac
p86
I2
sVsicwidit
p87
I1
sVpurchase
p88
I1
sVstopsigns
p89
I1
sVremember
p90
I1
sVthird
p91
I1
sVzimas
p92
I1
sVgreen
p93
I1
sVsouth
p94
I2
sVtall
p95
I1
sVsix
p96
I1
sVmission
p97
I1
sVyears
p98
I1
sVima
p99
I2
sV20
p100
I1
sVfolkers
p101
I1
sVgen
p102
I3
sVlate
p103
I1
sVtyrone
p104
I1
sVbout
p105
I1
sVmain
p106
I2
sVfin
p107
I1
sVfines
p108
I1
sVthen
p109
I1
sVmotivated
p110
I1
sVyo
p111
I1
sVya
p112
I1
sVpractice
p113
I1
sVnow
p114
I3
sVday
p115
I3
sVwont
p116
I1
sVname
p117
I1
sVdrop
p118
I1
sVmillersville
p119
I1
sVllello
p120
I1
sVrock
p121
I1
sVwent
p122
I1
sVbone
p123
I1
sVmean
p124
I1
sVem
p125
I1
sVcost
p126
I1
sVbump
p127
I1
sVturnin
p128
I1
sVhard
p129
I2
sVyeah
p130
I3
sVout
p131
I1
sVgon
p132
I2
sVsince
p133
I1
sVhooked
p134
I1
sVcollaborated
p135
I1
sVrb
p136
I1
sVmax
p137
I1
sVgot
p138
I2
sVcause
p139
I3
sVass
p140
I9
sVslangin
p141
I1
sVbass
p142
I1
sVmotherfucker
p143
I6
sVshug
p144
I1
sVreason
p145
I1
sVteach
p146
I1
sVpunk
p147
I1
sVdomes
p148
I1
sVboostin
p149
I1
sVknockoffs
p150
I1
sVfuckin
p151
I5
sVfirst
p152
I1
sVblind
p153
I1
sVmajor
p154
I1
sVnaughty
p155
I2
sVdont
p156
I2
sVrelate
p157
I2
sVone
p158
I3
sVbitch
p159
I8
sVsober
p160
I1
sVlittle
p161
I2
sVboulevard
p162
I1
sVheads
p163
I2
sVblossom
p164
I1
sVbite
p165
I1
sVmobbin
p166
I2
sVhundred
p167
I1
sVlisten
p168
I1
sVthat
p169
I2
sVmuggzy
p170
I1
sVkamikaze
p171
I1
sVb
I1
sVsto
p172
I1
sVinvention
p173
I1
sVsupposed
p174
I1
sVmickey
p175
I1
sVsam
p176
I1
sVwasnt
p177
I2
sVsay
p178
I2
sVrap
p179
I1
sVsell
p180
I1
sVlie
p181
I1
sValibi
p182
I1
sVlil
p183
I1
sVmix
p184
I1
sVk1
p185
I1
sVpersonalized
p186
I1
sVdisturbin
p187
I1
sVtrack
p188
I1
sVdoin
p189
I1
sVmouth
p190
I1
sVdrought
p191
I1
sVamerica
p192
I1
sVsinger
p193
I1
sVprofessor
p194
I1
sVstranded
p195
I1
sVgordons
p196
I1
sVtooth
p197
I1
sVtraditional
p198
I1
sVskinny
p199
I1
sVshot
p200
I2
sVlyrics
p201
I2
sVcheap
p202
I1
sVhillside
p203
I1
sVdday
p204
I1
sVfind
p205
I1
sVhustler
p206
I1
sVcousins
p207
I1
sVweekends
p208
I1
sVotis
p209
I1
sVrich
p210
I1
sVemployee
p211
I1
sVbeotch
p212
I5
sVhope
p213
I1
sVget
p214
I3
sVdope
p215
I1
sVwatch
p216
I1
sVmade
p217
I1
sVbasement
p218
I1
sVslidin
p219
I1
sVds
p220
I1
sVprime
p221
I1
sVsojourn
p222
I1
sVbad
p223
I1
sVstuff
p224
I1
sVdump
p225
I1
sVliquor
p226
I1
sVsee
p227
I1
sVhoes
p228
I1
sVsaid
p229
I1
sVfederal
p230
I1
sVnature
p231
I1
sVstamps
p232
I1
sVsista
p233
I1
sVwhassup
p234
I3
sVrims
p235
I1
sVeconolodge
p236
I1
sVsold
p237
I1
sVattention
p238
I1
sVweeples
p239
I1
sVcousin
p240
I3
sVcome
p241
I1
sVbuster
p242
I1
sVlicense
p243
I1
sVtriggers
p244
I1
sVbreakin
p245
I1
sVlookin
p246
I1
sVcutlass
p247
I1
sVwritin
p248
I1
sVorienfested
p249
I1
sVlikes
p250
I2
sVuhhuh
p251
I1
sVtremendous
p252
I1
sVelroys
p253
I1
sVmuch
p254
I1
sVhoggs
p255
I1
sVhelicopter
p256
I1
sVempty
p257
I1
sVdeeper
p258
I1
sVdemand
p259
I1
sVworked
p260
I1
sVfunk
p261
I1
sVsound
p262
I1
sVhomes
p263
I1
sVe40
p264
I1
sVnovel
p265
I1
sVmight
p266
I2
sVstraight
p267
I1
sVkeveo
p268
I1
sVrhymes
p269
I1
sVit
p270
I2
sVmiddle
p271
I1
sVcant
p272
I1
sVim
p273
I4
sVdownndirty
p274
I1
sVbucks
p275
I1
sVtupac
p276
I1
sVsellin
p277
I1
sVpay
p278
I2
sVmake
p279
I4
sVstealin
p280
I1
sVfood
p281
I1
sVmotherfuckin
p282
I2
sVplates
p283
I1
sVreyimmms
p284
I1
sVelbows
p285
I1
sVused
p286
I1
sVraid
p287
I1
sVdrink
p288
I1
sVmobb
p289
I8
sVwell
p290
I1
sVgrind
p291
I1
sVthought
p292
I6
sVbottle
p293
I1
sVgivin
p294
I1
sVmoney
p295
I1
sVparlay
p296
I1
sVhah
p297
I1
sVdeath
p298
I1
sVcup
p299
I1
sVlets
p300
I1
sVblegit
p301
I2
sVboard
p302
I2
sVlivin
p303
I1
sVkirby
p304
I1
sVbig
p305
I2
sVearly
p306
I1
sVgame
p307
I3
sVknow
p308
I12
sVcel
p309
I1
sVlike
p310
I9
sVsmashin
p311
I1
sVpopos
p312
I1
sVfortywatawata
p313
I1
sVnight
p314
I1
sVnigga
p315
I19
sVold
p316
I2
sVback
p317
I2
sVdonald
p318
I1
sVproductions
p319
I1
sVsavage
p320
I1
sVstarwise
p321
I1
sVbruce
p322
I1
sVdshot
p323
I3
sVbuddha
p324
I1
sVnose
p325
I3
sVbe
p326
I1
sVsingin
p327
I1
sVnowhere
p328
I1
sVsuper
p329
I2
sVon
p330
I1
sVoh
p331
I5
sVdollars
p332
I2
sVmagazine
p333
I1
sVmarriots
p334
I1
sVbootch
p335
I1
sVheavy
p336
I1
sVstop
p337
I2
sVlexuses
p338
I1
sVwan
p339
I1
sVstrictly
p340
I2
sVlong
p341
I1
sV1989
p342
I1
sVway
p343
I1
sVgin
p344
I2
sVhead
p345
I2
sVbitches
p346
I1
sVhear
p347
I1
sVwith
p348
I1
sVcelly
p349
I1
sVpull
p350
I2
sVflamboyant
p351
I1
sVcaller
p352
I1
sVefeezee
p353
I1
sVus
p354
I1
sVrattlin
p355
I1
sVdirty
p356
I1
sVvtown
p357
I2
sVsupreme
p358
I1
sVcbo
p359
I1
sVay
p360
I1
sVshit
p361
I26
sVholla
p362
I1
sVthugs
p363
I1
sVna
p364
I3
sV45
p365
I1
sVhanded
p366
I1
sVtalkin
p367
I1
sVpervin
p368
I1
sVweebleizations
p369
I2
sVresign
p370
I1
sVstay
p371
I1
sVa1
p372
I1
sVdesert
p373
I1
sVago
p374
I1
sVgorilla
p375
I1
sVhella
p376
I2
sVtime
p377
I2
s.