(dp1
Vson
p2
I1
sVsix
p3
I1
sVshot
p4
I1
sVlyrics
p5
I2
sVscratch
p6
I1
sVfifty
p7
I1
sVbring
p8
I1
sVpaper
p9
I3
sVdough
p10
I1
sVounces
p11
I1
sVgo
p12
I1
sVpersonals
p13
I1
sVfeat
p14
I1
sVaint
p15
I4
sVslow
p16
I1
sVmossey
p17
I1
sVblowin
p18
I1
sVpersonal
p19
I6
sVthang
p20
I1
sVguts
p21
I1
sVseems
p22
I1
sVmask
p23
I1
sVsend
p24
I3
sVday
p25
I1
sVnuts
p26
I1
sVoclock
p27
I1
sVwindow
p28
I1
sVactin
p29
I1
sVfunk
p30
I1
sVcash
p31
I1
sVfolks
p32
I1
sVmail
p33
I1
sVski
p34
I1
sVta
p35
I2
sVdo
p36
I1
sVaround
p37
I5
sVmeans
p38
I1
sVe40
p39
I1
sVbreak
p40
I1
sVshoot
p41
I1
sVevery
p42
I1
sVknow
p43
I2
sVcaine
p44
I1
sVfoot
p45
I1
sVnow
p46
I1
sVlady
p47
I1
sVfools
p48
I1
sVwell
p49
I1
sVlike
p50
I6
sVkilled
p51
I1
sVhollow
p52
I1
sVwit
p53
I1
sVcommon
p54
I1
sVteam
p55
I2
sVquick
p56
I1
sVwent
p57
I1
sVhustle
p58
I1
sVside
p59
I1
sVyall
p60
I1
sVem
p61
I2
sVtwelve
p62
I1
sVsahidnab
p63
I1
sVnigga
p64
I3
sVdeal
p65
I1
sVhouse
p66
I1
sVtold
p67
I2
sVyeah
p68
I1
sVskank
p69
I1
sVchests
p70
I1
sVborn
p71
I1
sVdaylight
p72
I1
sVraid
p73
I1
sVclick
p74
I1
sVbest
p75
I1
sVreally
p76
I1
sVnem
p77
I1
sVdraws
p78
I1
sVopened
p79
I1
sV40water
p80
I1
sVmortuary
p81
I1
sVsince
p82
I1
sVhooked
p83
I1
sVnear
p84
I1
sVvest
p85
I1
sVfellows
p86
I1
sVlaid
p87
I1
sVsocalled
p88
I1
sVgot
p89
I6
sVtips
p90
I1
sVcause
p91
I2
sVpiss
p92
I1
sVass
p93
I5
sVfull
p94
I1
sVcars
p95
I1
sVnight
p96
I1
sVsuga
p97
I1
sVhere
p98
I1
sVvicious
p99
I1
sVwater
p100
I1
sVbroken
p101
I1
sVect
p102
I1
sVcalifornia
p103
I1
sVthreeway
p104
I1
sVemotional
p105
I1
sVput
p106
I2
sVcousin
p107
I1
sVcome
p108
I1
sVbleed
p109
I1
sVcard
p110
I1
sVbox
p111
I1
sVdefinition
p112
I1
sVsister
p113
I1
sVwouldnt
p114
I1
sVoh
p115
I4
sVreceive
p116
I1
sVcould
p117
I1
sVpunk
p118
I2
sVgraduation
p119
I1
sVconversation
p120
I1
sVseeds
p121
I1
sVneighbor
p122
I1
sV94591
p123
I2
sVmurder
p124
I1
sVwhole
p125
I1
sVhire
p126
I1
sVmossie
p127
I1
sVlay
p128
I1
sVdippin
p129
I1
sVsemiautos
p130
I1
sVwhats
p131
I1
sVdont
p132
I1
sVfamily
p133
I1
sVgone
p134
I1
sVlevitti
p135
I1
sVsnitch
p136
I1
sVmakin
p137
I2
sVstrap
p138
I1
sVdown
p139
I1
sVfonkin
p140
I1
sVbitch
p141
I5
sVditch
p142
I1
sVrounds
p143
I1
sVwan
p144
I2
sVguess
p145
I1
sVtakes
p146
I1
sVteddy
p147
I2
sVdude
p148
I2
sVtwo
p149
I1
sVhill
p150
I1
sVcall
p151
I2
sVway
p152
I1
sVdamn
p153
I3
sVhundred
p154
I1
sVdrugstore
p155
I1
sVfriend
p156
I1
sVlife
p157
I3
sVglock
p158
I1
sVbody
p159
I1
sVtook
p160
I1
sVfuck
p161
I5
sVphone
p162
I1
sVheat
p163
I1
sVstick
p164
I2
sVknown
p165
I1
sVline
p166
I1
sVbelieve
p167
I1
sVwith
p168
I1
sVriders
p169
I1
sVdump
p170
I1
sVtown
p171
I1
sVvallejo
p172
I2
sVlook
p173
I1
sVniggas
p174
I3
sVsplittin
p175
I1
sVwork
p176
I2
sVcant
p177
I3
sVair
p178
I1
sVfreddy
p179
I1
sVmall
p180
I1
sVsilly
p181
I1
sVden
p182
I2
sVsupa
p183
I1
sVdaddy
p184
I1
sVbucked
p185
I1
sVage
p186
I1
sVtheres
p187
I1
sVpassenger
p188
I1
sVseven
p189
I1
sVclockin
p190
I1
sVthatll
p191
I1
sVgive
p192
I2
sVlines
p193
I1
sVak
p194
I1
sVkisses
p195
I1
sVit
p196
I1
sVjewels
p197
I1
sVquietest
p198
I1
sVheard
p199
I1
sVbeats
p200
I1
sVhomie
p201
I1
sVim
p202
I3
sVready
p203
I3
sVsharp
p204
I1
sVmoves
p205
I1
sVsaw
p206
I1
sVtrip
p207
I1
sVshit
p208
I2
sVcream
p209
I1
sVhog
p210
I1
sVhoe
p211
I2
sVgoal
p212
I1
sVdishes
p213
I1
sVsit
p214
I1
sVna
p215
I2
sVmake
p216
I2
sVget
p217
I5
sVrippin
p218
I1
sVchief
p219
I1
sVmember
p220
I1
sVchest
p221
I1
sVdisappear
p222
I1
sVyou
p223
I1
sVgets
p224
I1
sVtalkin
p225
I1
sVsiders
p226
I1
sVnice
p227
I1
sVplay
p228
I1
sVpain
p229
I1
sVlookin
p230
I1
sVsee
p231
I3
sVshouldve
p232
I1
sVyesterday
p233
I1
sVme
p234
I2
sVhand
p235
I1
sVrehearsal
p236
I2
sVbulletproof
p237
I1
sVouts
p238
I1
sVgarlic
p239
I1
sVblood
p240
I1
sVkinda
p241
I1
sVintended
p242
I1
sVfucked
p243
I2
sVmachete
p244
I1
sVclass
p245
I1
sVgoin
p246
I1
sVtask
p247
I1
sVfor
p248
I1
sVcops
p249
I1
sVshady
p250
I1
sVsellin
p251
I1
sVcover
p252
I1
sVdog
p253
I2
sVnothin
p254
I1
sVthats
p255
I4
sVsavings
p256
I1
sVtime
p257
I2
sVtrippin
p258
I1
sVskinny
p259
I1
sVfirst
p260
I2
sVmacks
p261
I1
sVjack
p262
I2
s.