(dp1
Vugh
p2
I2
sVsuper
p3
I1
sVlyrics
p4
I2
sVcommrads
p5
I1
sVmoney
p6
I2
sVyears
p7
I1
sVstoned
p8
I1
sVearth
p9
I1
sVstill
p10
I2
sVaint
p11
I2
sVchinese
p12
I1
sVcrime
p13
I2
sVfinally
p14
I1
sVproduction
p15
I1
sVbout
p16
I2
sVshoot
p17
I1
sVcoffee
p18
I1
sVworkin
p19
I1
sVlivin
p20
I1
sVget
p21
I1
sVbeat
p22
I1
sVcouple
p23
I1
sVrhyme
p24
I2
sVvallejo
p25
I1
sVdat
p26
I1
sVgame
p27
I3
sVsons
p28
I1
sVknow
p29
I3
sVtheyself
p30
I1
sVslidin
p31
I1
sVblast
p32
I1
sVghetto
p33
I1
sVlike
p34
I7
sVpimp
p35
I1
sVtear
p36
I1
sVgettin
p37
I1
sVtalkin
p38
I1
sVdiggin
p39
I1
sVmaryjane
p40
I1
sVteam
p41
I1
sVmusclin
p42
I1
sVside
p43
I1
sVyall
p44
I2
sVbitch
p45
I1
sVturtle
p46
I1
sVtwited
p47
I1
sVnigga
p48
I1
sVslang
p49
I1
sVsome
p50
I1
sVyeah
p51
I1
sVstreet
p52
I1
sVhort
p53
I1
sVmagazine
p54
I3
sVsport
p55
I1
sVout
p56
I2
sVaway
p57
I1
sVafloat
p58
I1
sVhill
p59
I1
sVplaya
p60
I1
sVholdin
p61
I1
sVmisbehave
p62
I1
sVblow
p63
I1
sVpepper
p64
I1
sVdictionary
p65
I1
sVnever
p66
I1
sVmayne
p67
I2
sVridin
p68
I1
sVwater
p69
I1
sVspray
p70
I1
sVhubcap
p71
I1
sVcome
p72
I1
sVglidin
p73
I1
sVnaval
p74
I1
sVbelafonte
p75
I1
sVill
p76
I1
sVbiaaatch
p77
I3
sVharass
p78
I2
sVlookin
p79
I1
sVpoked
p80
I1
sVdis
p81
I1
sVthats
p82
I1
sVheavy
p83
I1
sVdippin
p84
I1
sVlove
p85
I1
sVdont
p86
I1
sVfamily
p87
I1
sVdrunk
p88
I1
sVone
p89
I1
sVbrought
p90
I1
sVwit
p91
I1
sVdone
p92
I1
sVstankin
p93
I2
sVheated
p94
I1
sVoutro
p95
I2
sVtable
p96
I1
sVboat
p97
I1
sVdroopy
p98
I1
sVpharmaceutical
p99
I2
sVrely
p100
I1
sVyay
p101
I1
sVwould
p102
I1
sVomega
p103
I1
sVtwisted
p104
I2
sVfast
p105
I1
sVbreath
p106
I2
sVpharmaceuticals
p107
I6
sVlive
p108
I1
sVsayer
p109
I1
sVhustlin
p110
I1
sVtryin
p111
I1
sVlife
p112
I2
sVmurder
p113
I1
sVvigorous
p114
I1
sVpimpin
p115
I1
sVgas
p116
I1
sVmine
p117
I1
sVgutter
p118
I1
sVstovetop
p119
I1
sVhurry
p120
I1
sVgangsta
p121
I1
sVyayo
p122
I1
sVrunnin
p123
I1
sVking
p124
I1
sVe40
p125
I2
sV15
p126
I1
sVlook
p127
I1
sVintergamin
p128
I2
sVcar
p129
I1
sVlayin
p130
I1
sVoh
p131
I1
sVplanet
p132
I1
sVproductions
p133
I1
sVgrass
p134
I2
sVdidnt
p135
I1
sVhistory
p136
I1
sVgone
p137
I1
sVoutta
p138
I1
sVtherap
p139
I1
sVak
p140
I1
sVfuck
p141
I1
sVsmoke
p142
I1
sVdog
p143
I1
sVsay
p144
I1
sVbuy
p145
I1
sVim
p146
I8
sVhit
p147
I1
sVshit
p148
I1
sVburnin
p149
I1
sVthings
p150
I1
sVshovlin
p151
I1
sVpuffin
p152
I1
sV40
p153
I1
sVrubber
p154
I1
sVbook
p155
I1
sV5
I2
sV9
I2
sVfools
p156
I1
sVinnovator
p157
I1
sVblanket
p158
I2
sVchannel
p159
I1
sVmotivator
p160
I1
sVpoker
p161
I1
sVchokin
p162
I1
sVelectric
p163
I2
sVdime
p164
I1
sVdoin
p165
I1
sVreach
p166
I1
sVstay
p167
I1
sVbullets
p168
I1
sVpeak
p169
I1
sValpha
p170
I1
sVmack
p171
I1
sVpool
p172
I1
sVman
p173
I2
sVdark
p174
I1
sVlane
p175
I2
sVtask
p176
I2
sVbustin
p177
I1
sVgrind
p178
I2
sVthought
p179
I2
sVblaaast
p180
I1
sVwounded
p181
I1
sVcame
p182
I1
s.