(dp1
Vlyrics
p2
I2
sVyea
p3
I1
sVmoney
p4
I2
sVsouped
p5
I1
sVfoul
p6
I1
sVmonth
p7
I2
sVlavish
p8
I1
sV\u2018punkin
p9
I1
sVdaylight
p10
I1
sV\u2018we
p11
I1
sVhate
p12
I1
sVsharks
p13
I1
sVcollectin
p14
I1
sVtill
p15
I1
sVmasses
p16
I1
sVit\u2019s
p17
I1
sVcrew
p18
I2
sVtramp
p19
I1
sVgivin
p20
I1
sVwhole
p21
I1
sVeasy
p22
I1
sVcrack
p23
I1
sVweeks
p24
I1
sVhat
p25
I1
sVcity
p26
I1
sVsmart
p27
I1
sVta
p28
I3
sVdo
p29
I2
sVsomebody
p30
I4
sVaround
p31
I1
sVyo
p32
I3
sVget
p33
I2
sVchecking
p34
I1
sVsucker
p35
I1
sVnone
p36
I1
sVdart
p37
I1
sVgoons
p38
I1
sVkillers
p39
I1
sVevery
p40
I1
sVprobably
p41
I2
sVfront
p42
I1
sVemptied
p43
I1
sVbarefaced
p44
I1
sVlike
p45
I5
sVd
I4
sVpom
p46
I3
sVwho\u2019s
p47
I1
sVwent
p48
I1
sVsoft
p49
I1
sVstraight
p50
I2
sVmean
p51
I2
sVem
p52
I21
sVdunk
p53
I1
sVeveryone
p54
I1
sVhouse
p55
I1
sVstreets
p56
I1
sVback
p57
I2
sVup
p58
I1
sVsee
p59
I4
sVneva
p60
I1
sVhoes
p61
I1
sVblues
p62
I1
sVinsurance
p63
I1
sVout
p64
I3
sVeven
p65
I1
sVwhat
p66
I1
sVnigga
p67
I1
sVpompom
p68
I2
sVgiving
p69
I1
sVfavour
p70
I1
sVkinley
p71
I1
sVmate
p72
I2
sVgot
p73
I14
sVcause
p74
I1
sVhorseradish\u2019
p75
I1
sVdem
p76
I2
sVpiranhas
p77
I1
sVnever
p78
I1
sVlettin
p79
I3
sVquit
p80
I2
sVout\u2019
p81
I1
sVfuneral
p82
I1
sVpushing
p83
I1
sVmayne
p84
I9
sVtracks
p85
I1
sVchina
p86
I1
sVdummitory
p87
I3
sVdwart
p88
I1
sVput
p89
I1
sVsuckers
p90
I1
sVpunkin
p91
I13
sVchange
p92
I2
sVsayin
p93
I1
sVmvp
p94
I1
sVgreat
p95
I1
sVbraw
p96
I1
sVcould
p97
I1
sVpunk
p98
I1
sVafternoon
p99
I1
sVvaginal
p100
I1
sVaction
p101
I1
sVharph
p102
I2
sVthink
p103
I1
sVfuckin
p104
I2
sVlove
p105
I1
sVfamily
p106
I1
sVfeel
p107
I1
sVacted
p108
I1
sVmakin
p109
I1
sVdudes
p110
I1
sVone
p111
I1
sVbro
p112
I3
sVchump
p113
I2
sVwit
p114
I1
sVbitch
p115
I4
sVanother
p116
I1
sVcomin
p117
I1
sVrespect
p118
I1
sVrompompom
p119
I1
sVhood
p120
I2
sVeverybody
p121
I3
sVthro
p122
I1
sV\u2018killer
p123
I1
sVtwo
p124
I1
sVsuburbs
p125
I1
sVnot\u2019n
p126
I2
sVdon\u2019t
p127
I3
sVmama
p128
I1
sVearnin
p129
I1
sVfo
p130
I3
sVlife
p131
I1
sVclever
p132
I1
sVknows
p133
I1
sVhomies
p134
I1
sVit
p135
I2
sVboys
p136
I1
sVdave
p137
I1
sVstan
p138
I1
sVho
p139
I1
sVcuttin
p140
I1
sVbout
p141
I2
sVrunnin
p142
I1
sVe40
p143
I1
sVma
p144
I3
sVlook
p145
I1
sVniggas
p146
I7
sVcar
p147
I1
sVain\u2019t
p148
I3
sVlitter
p149
I1
sVy\u2019all
p150
I1
sVdirty
p151
I1
sVcake
p152
I1
sVgave
p153
I1
sVcalled
p154
I2
sVoutta
p155
I1
sVclip
p156
I1
sVgive
p157
I1
sVpass
p158
I3
sVfuck
p159
I1
sVsay
p160
I4
sVburied
p161
I1
sVin
p162
I1
sVsharp
p163
I1
sVshit
p164
I1
sVlivin
p165
I1
sVhelmet
p166
I2
sVnobody
p167
I1
sVemeverybody
p168
I2
sVi\u2019m
p169
I3
sVunderestimate
p170
I1
sVbig
p171
I2
sVtalkin
p172
I2
sVstand
p173
I1
sVwonderin
p174
I1
sVplay
p175
I1
sVball
p176
I1
sVokay
p177
I1
sVhey
p178
I1
sVcartridge
p179
I1
sVtrack
p180
I1
sVme
p181
I1
sVkeepin
p182
I1
sVjealous
p183
I1
sVman
p184
I1
sVgoons\u2019
p185
I1
sVneck
p186
I1
sVfoot
p187
I1
sVcharger
p188
I1
sVfundin
p189
I1
sVthought
p190
I2
sVways
p191
I1
sVwithout
p192
I1
sVcame
p193
I1
sVbodies
p194
I2
s.