(dp1
Vlyrics
p2
I2
sVfood
p3
I1
sVmoney
p4
I1
sVbeware
p5
I1
sVyoung
p6
I1
sVyears
p7
I1
sVyoungn
p8
I2
sVended
p9
I1
sVpaper
p10
I1
sVslidin
p11
I1
sVfellas
p12
I1
sVskill
p13
I1
sVcaptain
p14
I1
sVfeat
p15
I1
sVfind
p16
I1
sVfifth
p17
I1
sVdont
p18
I1
sVaint
p19
I4
sVfield
p20
I1
sVthang
p21
I1
sVexplain
p22
I1
sVcuz
p23
I1
sVshould
p24
I1
sVpitchin
p25
I1
sVsports
p26
I2
sVlord
p27
I1
sVmain
p28
I4
sVmight
p29
I1
sVhates
p30
I1
sVta
p31
I1
sVreal
p32
I1
sVquarterbackin
p33
I12
sVgood
p34
I2
sVget
p35
I1
sVfar
p36
I1
sVcouple
p37
I1
sVwoulda
p38
I1
sVmumblers
p39
I1
sVgame
p40
I2
sVmade
p41
I1
sVcrackin
p42
I1
sVknow
p43
I2
sVdecide
p44
I1
sVfall
p45
I1
sVrappin
p46
I1
sVentrenched
p47
I1
sVkong
p48
I1
sVprojects
p49
I1
sVname
p50
I2
sVearl
p51
I1
sVenemy
p52
I1
sVearn
p53
I1
sVlike
p54
I9
sVlost
p55
I1
sVmouthin
p56
I1
sVgifted
p57
I1
sVwhether
p58
I1
sVstuff
p59
I2
sVya
p60
I7
sVteam
p61
I1
sVserved
p62
I1
sVvenus
p63
I1
sVglorifyin
p64
I1
sVmean
p65
I1
sVem
p66
I2
sVwinded
p67
I1
sVold
p68
I1
sVfair
p69
I1
sVcourse
p70
I1
sVstreets
p71
I1
sVclaimin
p72
I1
sVyeah
p73
I3
sVpusha
p74
I1
sVsee
p75
I1
sVfinish
p76
I1
sVconnect
p77
I1
sVcorner
p78
I1
sVdrivin
p79
I1
sV80
p80
I1
sVleanin
p81
I1
sVreally
p82
I1
sVeven
p83
I1
sVsection
p84
I1
sVgrindin
p85
I2
sVpisa
p86
I1
sVgenius
p87
I1
sVcall
p88
I3
sVgot
p89
I2
sVupward
p90
I1
sVleader
p91
I1
sVhustle
p92
I1
sVslangin
p93
I1
sVmamas
p94
I1
sVrun
p95
I1
sVbarracudas
p96
I1
sVnever
p97
I4
sVlittle
p98
I1
sVhere
p99
I1
sVbulls
p100
I1
sVstutta
p101
I1
sVwile
p102
I1
sVput
p103
I1
sVeye
p104
I1
sVsuper
p105
I1
sVshoulda
p106
I1
sVchange
p107
I1
sVkitchen
p108
I1
sVdefinition
p109
I1
sVabout
p110
I1
sVgrittin
p111
I1
sVg
I1
sVmany
p112
I2
sVrunnin
p113
I2
sVdays
p114
I3
sVodds
p115
I1
sVrange
p116
I1
sVish
p117
I1
sVbangs
p118
I1
sVlookin
p119
I1
sVmixed
p120
I1
sVturf
p121
I1
sVpushin
p122
I1
sVthugthizzlemajiggadale
p123
I1
sVblock
p124
I2
sVhaunted
p125
I1
sVraised
p126
I1
sVminime
p127
I1
sVheaded
p128
I1
sVgrade
p129
I1
sVjesus
p130
I1
sVsingers
p131
I1
sVwit
p132
I4
sVdone
p133
I2
sVperm
p134
I1
sVfake
p135
I1
sVhome
p136
I1
sVgorillas
p137
I1
sVendzone
p138
I2
sVtrust
p139
I3
sVhood
p140
I3
sVspeak
p141
I1
sVwan
p142
I1
sVguess
p143
I1
sVyay
p144
I1
sVstompin
p145
I1
sVhes
p146
I1
sVchrome
p147
I1
sVthere
p148
I1
sVsystem
p149
I1
sVlong
p150
I1
sVsnookin
p151
I1
sVsecret
p152
I1
sVcats
p153
I1
sVdamn
p154
I1
sVway
p155
I1
sVthru
p156
I1
sVcookin
p157
I1
sVtell
p158
I3
sVlife
p159
I2
sVlived
p160
I2
sVsquirrel
p161
I1
sVroute
p162
I1
sVthousand
p163
I1
sVgat
p164
I1
sVserve
p165
I2
sVmoneys
p166
I1
sVfinished
p167
I1
sVgettin
p168
I1
sV8
I1
sVhustlin
p169
I2
sVcoyote
p170
I1
sVbelieve
p171
I1
sVposted
p172
I1
sVsound
p173
I1
sVking
p174
I1
sVe40
p175
I1
sVfiends
p176
I3
sVjobs
p177
I1
sV19
p178
I1
sVhyenas
p179
I1
sVus
p180
I2
sVoffended
p181
I1
sVworkestratin
p182
I1
sVuh
p183
I1
sVvick
p184
I1
sVsnitches
p185
I1
sVcalled
p186
I1
sVtheres
p187
I1
sVfillin
p188
I1
sVgone
p189
I2
sVdeaths
p190
I1
sVstackin
p191
I1
sVit
p192
I4
sVbrowsin
p193
I1
sVraw
p194
I1
sVcant
p195
I3
sVim
p196
I8
sVillustratin
p197
I1
sVrap
p198
I1
sVin
p199
I1
sVseen
p200
I4
sVid
p201
I2
sVshit
p202
I1
sVgrown
p203
I1
sVmicrophone
p204
I1
sVnights
p205
I1
sVsnowcones
p206
I1
sVdinners
p207
I1
sVna
p208
I1
sVmake
p209
I1
sVmalicious
p210
I1
sVtill
p211
I1
sVgrinded
p212
I1
sVsquad
p213
I1
sVquaterbackin
p214
I1
sVtalkin
p215
I5
sVquarterback
p216
I2
sVjungle
p217
I1
sVsell
p218
I1
sVplay
p219
I2
sVused
p220
I1
sVtower
p221
I1
sVserena
p222
I1
sVdoin
p223
I1
sVbald
p224
I1
sVmuch
p225
I1
sVcomet
p226
I1
sVsong
p227
I1
sVman
p228
I2
sVgutter
p229
I1
sVe
I1
sVcops
p230
I2
sVread
p231
I1
sVclipse
p232
I1
sVclear
p233
I1
sVnothin
p234
I1
sVthought
p235
I3
sVthangs
p236
I1
sVswitch
p237
I1
sVgreen
p238
I1
sVhousin
p239
I1
sVclean
p240
I1
sVpay
p241
I1
sVvomit
p242
I1
sVwolves
p243
I1
sVhuggin
p244
I1
sVjenga
p245
I1
s.