(dp1
Vugk
p2
I1
sVrepresent
p3
I1
sVstandin
p4
I1
sVlyrics
p5
I2
sVyea
p6
I1
sVcheddar
p7
I1
sVpaper
p8
I1
sVit
p9
I1
sVmoneymakin
p10
I1
sVtwankies
p11
I1
sVgo
p12
I9
sVlove
p13
I3
sVcold
p14
I2
sVaint
p15
I3
sVfeat
p16
I1
sVmilk
p17
I1
sVground
p18
I2
sVhah
p19
I2
sVstyle
p20
I1
sVcut
p21
I1
sVchain
p22
I1
sVthang
p23
I1
sVpoppin
p24
I1
sVblack
p25
I1
sVrepresenter
p26
I1
sVplanted
p27
I1
sVpile
p28
I1
sVfolks
p29
I1
sVsmile
p30
I2
sVbout
p31
I2
sVright
p32
I1
sVhope
p33
I1
sVreachin
p34
I1
sVreal
p35
I1
sVorange
p36
I1
sVhit
p37
I1
sVaround
p38
I2
sVyo
p39
I21
sVget
p40
I2
sVya
p41
I9
sVbig
p42
I2
sVhorror
p43
I1
sVrhyme
p44
I1
sVvallejo
p45
I1
sVfat
p46
I1
sVcityyyy
p47
I4
sVbreak
p48
I2
sVgame
p49
I2
sVknow
p50
I1
sVlegendary
p51
I1
sVuhhuh
p52
I1
sVdont
p53
I3
sVem
p54
I1
sVputtin
p55
I1
sVmemph
p56
I1
sVlike
p57
I1
sVearl
p58
I1
sVtrippin
p59
I1
sVwhatchu
p60
I1
sVpimp
p61
I1
sVlost
p62
I1
sVlevel
p63
I2
sVtear
p64
I1
sValways
p65
I2
sVyeah
p66
I4
sVcandy
p67
I1
sVbay
p68
I1
sVpistol
p69
I1
sVbad
p70
I4
sVmiles
p71
I1
sVhollered
p72
I1
sVdie
p73
I1
sVwent
p74
I1
sVyall
p75
I3
sVus
p76
I1
sVmile
p77
I1
sVmanll
p78
I1
sVset
p79
I2
sVoughta
p80
I1
sVhouse
p81
I2
sVnut
p82
I2
sVhard
p83
I4
sVback
p84
I3
sVdtown
p85
I1
sVpetey
p86
I4
sVsee
p87
I1
sVnoise
p88
I2
sVwhyyy
p89
I1
sVflax
p90
I1
sVhell
p91
I1
sVfail
p92
I1
sVhome
p93
I1
sVstoppin
p94
I1
sVclick
p95
I2
sVdrinks
p96
I1
sVeven
p97
I1
sVsouth
p98
I2
sVwhat
p99
I1
sVstill
p100
I1
sVnigga
p101
I2
sVtenn
p102
I1
sVlots
p103
I1
sV22s
p104
I1
sVrep
p105
I12
sVshoppin
p106
I1
sVwoods
p107
I1
sVfreaks
p108
I1
sVwhassup
p109
I1
sVgot
p110
I7
sVchampagne
p111
I1
sVyoull
p112
I3
sVass
p113
I1
sVslangin
p114
I2
sVnever
p115
I3
sVrun
p116
I4
sVill
p117
I3
sVrolled
p118
I1
sVsorrow
p119
I1
sVloose
p120
I1
sVmotherfucker
p121
I7
sVparaphenalia
p122
I1
sVstudio
p123
I1
sVrebel
p124
I2
sVtrunk
p125
I2
sVask
p126
I1
sVpeeled
p127
I1
sVlac
p128
I1
sVspeakin
p129
I1
sVbleed
p130
I2
sVjon
p131
I2
sVraise
p132
I1
sVkeepin
p133
I1
sVyard
p134
I1
sVg
I1
sVsluts
p135
I1
sVeastside
p136
I2
sV30
p137
I2
sVwherever
p138
I6
sVerythang
p139
I1
sVkeep
p140
I2
sVhustlers
p141
I1
sVdrawers
p142
I1
sVgoddamnit
p143
I1
sVclap
p144
I1
sVact
p145
I2
sVturf
p146
I2
sVpullin
p147
I1
sVsayin
p148
I1
sVblock
p149
I2
sVthats
p150
I4
sVcheese
p151
I1
sVwhats
p152
I3
sVxo
p153
I1
sVfeel
p154
I1
sVahh
p155
I3
sVone
p156
I1
sVbrought
p157
I1
sVsmacked
p158
I1
sVdone
p159
I1
sVbitch
p160
I6
sVanother
p161
I2
sVpablo
p162
I1
sVcups
p163
I1
sVgunhandll
p164
I1
sVtomorrow
p165
I1
sVhood
p166
I1
sVcity
p167
I12
sVmississippi
p168
I1
sVdevil
p169
I2
sVfrom
p170
I2
sVstompin
p171
I2
sVarea
p172
I1
sVcrunk
p173
I1
sVunknown
p174
I1
sVtop
p175
I1
sVeightball
p176
I1
sVseat
p177
I1
sVleast
p178
I1
sVthrow
p179
I1
sVreppin
p180
I1
sVpaint
p181
I1
sVlive
p182
I1
sVdamn
p183
I1
sVcrackback
p184
I1
sVway
p185
I3
sVgoddamn
p186
I5
sVcall
p187
I1
sVswingers
p188
I1
sVbranded
p189
I1
sVsyrup
p190
I1
sVtell
p191
I1
sVvanitys
p192
I1
sVtryna
p193
I1
sVhead
p194
I1
sVplayboy
p195
I1
sVpacks
p196
I1
sVclub
p197
I2
sVtook
p198
I1
sVcant
p199
I1
sVmine
p200
I1
sVboys
p201
I3
sVflag
p202
I1
sVbun
p203
I1
sVamityville
p204
I1
sVsomma
p205
I1
sVatlanta
p206
I1
sVhold
p207
I1
sVmemphis
p208
I1
sVgstring
p209
I1
sVsteel
p210
I1
sVe40
p211
I2
sVb
I2
sVthis
p212
I1
sVcar
p213
I1
sVstraight
p214
I1
sVblunt
p215
I1
sVspitter
p216
I1
sVup
p217
I1
sVniggaz
p218
I11
sVdogs
p219
I1
sVwill
p220
I1
sVbroads
p221
I1
sVnear
p222
I1
sVpiece
p223
I1
sVdidnt
p224
I1
sVcould
p225
I2
sVsucka
p226
I2
sVcontrol
p227
I1
sVclaim
p228
I1
sVlick
p229
I1
sVoutta
p230
I1
sVfile
p231
I1
sVshowin
p232
I1
sVatl
p233
I1
sVcoupes
p234
I1
sVpopped
p235
I1
sVfuck
p236
I2
sVdeep
p237
I4
sVsticky
p238
I1
sVjuice
p239
I1
sVsay
p240
I2
sVim
p241
I1
sVdropped
p242
I2
sVwant
p243
I3
sVneed
p244
I1
sVave
p245
I3
sVchurn
p246
I1
sVfame
p247
I1
sVshit
p248
I4
sVcream
p249
I1
sVsell
p250
I1
sVthugs
p251
I1
sVhoe
p252
I4
sVlet
p253
I1
sVshirt
p254
I1
sVtrill
p255
I1
sVlil
p256
I2
sVnah
p257
I4
sVoak
p258
I1
sVhomeboy
p259
I2
sVid
p260
I1
sVdrugs
p261
I1
sVhot
p262
I1
sVdawgs
p263
I2
sVtake
p264
I1
sVfools
p265
I2
sVseveral
p266
I1
sVuhh
p267
I3
sVcouple
p268
I1
sVllello
p269
I2
sVmonkey
p270
I1
sVball
p271
I1
sVboppers
p272
I1
sVsymbol
p273
I1
sV94591
p274
I1
sVhand
p275
I1
sVseriousness
p276
I1
sVplannin
p277
I1
sVlay
p278
I1
sVtrucks
p279
I1
sVcliff
p280
I1
sVbutter
p281
I1
sVchoppin
p282
I1
sVland
p283
I2
sVoff
p284
I1
sVrollie
p285
I1
sVriide
p286
I1
sVmia
p287
I1
sVkangol
p288
I1
sVmaintain
p289
I1
sVtruck
p290
I1
sVfuckin
p291
I3
sVunderstand
p292
I1
sVyell
p293
I2
sVsmoked
p294
I1
sVstacks
p295
I1
s.