(dp1
Vvalve
p2
I1
sVgs
p3
I2
sVbeefin
p4
I1
sVlyrics
p5
I2
sVsound
p6
I1
sVspook
p7
I2
sVpopo
p8
I1
sVsmeb
p9
I1
sVyellow
p10
I1
sVbring
p11
I1
sVsession
p12
I1
sVairbags
p13
I1
sVwelfare
p14
I1
sVfeat
p15
I1
sVfunkin
p16
I1
sVissues
p17
I1
sVblocked
p18
I1
sVaint
p19
I5
sVchasin
p20
I1
sVdick
p21
I1
sVpoppin
p22
I1
sVsend
p23
I2
sVbetter
p24
I3
sVchoppers
p25
I1
sVcherries
p26
I1
sVtape
p27
I1
sVrich
p28
I1
sVlate
p29
I1
sV2020
p30
I1
sVgravel
p31
I1
sVhat
p32
I1
sVnate
p33
I2
sVtown
p34
I1
sVgood
p35
I1
sVvictims
p36
I1
sVrescue
p37
I2
sVyo
p38
I1
sVget
p39
I7
sVbein
p40
I1
sVwatch
p41
I1
sVlovin
p42
I2
sVdark
p43
I1
sVfamous
p44
I2
sVgame
p45
I2
sVzzzzoom
p46
I1
sVknow
p47
I2
sVgot
p48
I3
sVmob
p49
I3
sVprojects
p50
I1
sVdts
p51
I1
sVlike
p52
I1
sVlost
p53
I1
sVrapper
p54
I1
sVkingpins
p55
I1
sVchecks
p56
I1
sVtry
p57
I1
sVate
p58
I1
sVgears
p59
I1
sVnight
p60
I2
sVride
p61
I3
sVyall
p62
I3
sVdis
p63
I1
sVprevent
p64
I1
sVnigga
p65
I4
sVstump
p66
I1
sVjaws
p67
I1
sVstreets
p68
I1
sVback
p69
I1
sVskank
p70
I1
sVsee
p71
I1
sVcost
p72
I1
sVjawjackin
p73
I1
sVcnote
p74
I1
sVpicked
p75
I1
sVhoes
p76
I2
sVcant
p77
I1
sVclose
p78
I1
sVsport
p79
I1
sVbest
p80
I1
sVeven
p81
I1
sVknees
p82
I2
sVgon
p83
I8
sVhide
p84
I3
sValcohol
p85
I1
sVwreck
p86
I1
sVthough
p87
I1
sVplease
p88
I1
sVinside
p89
I1
sVice
p90
I1
sVmayor
p91
I1
sVcadillac
p92
I1
sVscrewed
p93
I1
sVbosses
p94
I1
sVbitchass
p95
I1
sVcause
p96
I1
sVmonsters
p97
I1
sVwheelies
p98
I1
sVjacklin
p99
I1
sVsirens
p100
I1
sVbe
p101
I2
sVjobs
p102
I1
sVpower
p103
I1
sVbreathin
p104
I1
sVbitches
p105
I1
sVnever
p106
I2
sVblame
p107
I1
sVhouses
p108
I1
sVreason
p109
I1
sVlet
p110
I3
sValthough
p111
I2
sVima
p112
I1
sVput
p113
I1
sVwitcho
p114
I1
sVsuper
p115
I1
sVbleed
p116
I2
sVbattlin
p117
I1
sVairlifted
p118
I1
sVol
p119
I3
sVskanless
p120
I2
sVtemper
p121
I1
sV32
p122
I1
sVsinister
p123
I3
sVpunk
p124
I1
sVjelly
p125
I1
sVside
p126
I2
sVeatin
p127
I1
sVdespair
p128
I1
sVvision
p129
I1
sVdogg
p130
I2
sVpoverty
p131
I1
sVluck
p132
I1
sVthink
p133
I2
sVblock
p134
I1
sVcheese
p135
I1
sVeightball
p136
I1
sVlove
p137
I1
sVdont
p138
I2
sVwall
p139
I1
sVsicwid
p140
I1
sVmakin
p141
I1
sVfucked
p142
I1
sVright
p143
I2
sVdone
p144
I1
sVbitch
p145
I2
sVfake
p146
I1
sVblows
p147
I1
sVthroughout
p148
I2
sVmiss
p149
I1
sVsize
p150
I1
sVlyin
p151
I1
sVlittle
p152
I1
sVkillin
p153
I1
sVheated
p154
I1
sVlieutenants
p155
I1
sVtop
p156
I1
sVthere
p157
I1
sVtherefo
p158
I2
sVtwisted
p159
I1
sVlong
p160
I1
sVthrow
p161
I1
sVpenelopes
p162
I1
sVcats
p163
I1
sVchangin
p164
I1
sVway
p165
I1
sVdeville
p166
I1
sVswitchin
p167
I1
sVtryin
p168
I1
sVtell
p169
I1
sVbloodshed
p170
I1
sVbagged
p171
I1
sVflat
p172
I1
sVhead
p173
I2
sVglow
p174
I1
sVbrand
p175
I1
sVnobody
p176
I1
sVtook
p177
I1
sVnegro
p178
I1
sVmarkass
p179
I1
sVglass
p180
I1
sVneedles
p181
I1
sVsolar
p182
I1
sVhatin
p183
I1
sVboyfriend
p184
I1
sVshoot
p185
I2
sVmd
p186
I1
sVe40
p187
I1
sVgrew
p188
I1
sVcar
p189
I2
sVlayin
p190
I1
sVup
p191
I2
sVniggaz
p192
I14
sVn
I1
sVmommas
p193
I1
sVhousin
p194
I1
sVnear
p195
I1
sVsilly
p196
I1
sVdirty
p197
I1
sVdang
p198
I1
sVproblem
p199
I2
sVthrew
p200
I1
sVdidnt
p201
I1
sVmo
p202
I1
sVmouses
p203
I1
sVhookers
p204
I2
sVviolence
p205
I1
sVoutta
p206
I1
sVtar
p207
I1
sVmirrors
p208
I1
sVkisses
p209
I1
sVit
p210
I3
sVdeep
p211
I1
sVanger
p212
I1
sVtinted
p213
I1
sVim
p214
I5
sVdropped
p215
I1
sVrap
p216
I1
sVplayin
p217
I1
sVniggazll
p218
I2
sVsomebody
p219
I1
sVshit
p220
I4
sVray
p221
I1
sVhoe
p222
I2
sVbuilt
p223
I1
sVnoises
p224
I1
sVdeserve
p225
I1
sVmake
p226
I1
sV40
p227
I1
sVtight
p228
I4
sVsquare
p229
I1
sVadjitudes
p230
I1
sVsick
p231
I1
sVnew
p232
I2
sVused
p233
I1
sVtried
p234
I1
sVprovided
p235
I1
sVears
p236
I1
sVdoin
p237
I1
sVproblems
p238
I1
sVme
p239
I1
sVsaid
p240
I1
sVpotnah
p241
I2
sVhollered
p242
I1
sVnothing
p243
I1
sVdrought
p244
I1
sVfriends
p245
I1
sVman
p246
I5
sVago
p247
I1
sVstudio
p248
I1
sVdoo
p249
I6
sVwhenever
p250
I1
sVtricks
p251
I1
sVwind
p252
I1
sVreception
p253
I1
sVtime
p254
I1
sVbodies
p255
I1
s.