(dp1
Vstandin
p2
I1
sVlyrics
p3
I2
sVknown
p4
I2
sVhustler
p5
I2
sVperfect
p6
I1
sVdeuce
p7
I1
sVcollectin
p8
I1
sVzone
p9
I2
sVdick
p10
I2
sVjar
p11
I1
sVyoung
p12
I1
sVfade
p13
I1
sVbout
p14
I1
sVholiday
p15
I2
sVlocal
p16
I1
sVfool
p17
I1
sVcaint
p18
I1
sVget
p19
I1
sVfar
p20
I2
sVsucker
p21
I1
sVcheckin
p22
I1
sVbeam
p23
I1
sVgame
p24
I2
sVknow
p25
I1
sVnasty
p26
I1
sVday
p27
I1
sVlike
p28
I4
sVpackin
p29
I1
sVknock
p30
I2
sVbar
p31
I1
sVfoolery
p32
I1
sVlavish
p33
I2
sVtrappin
p34
I1
sVgettin
p35
I1
sVbrother
p36
I1
sVsteps
p37
I1
sVhittin
p38
I2
sVdouble
p39
I1
sVstinger
p40
I1
sVround
p41
I1
sVnigga
p42
I4
sVcraps
p43
I2
sVweight
p44
I1
sVhecka
p45
I1
sVnut
p46
I1
sVfixture
p47
I1
sVcrop
p48
I1
sVery
p49
I1
sVgoose
p50
I2
sVborn
p51
I1
sVsee
p52
I2
sVstreet
p53
I1
sVslummin
p54
I5
sVstrung
p55
I1
sVreally
p56
I1
sVliving
p57
I2
sVjewelry
p58
I2
sVcavity
p59
I1
sVextra
p60
I2
sVcooter
p61
I1
sVenough
p62
I1
sVaint
p63
I1
sVloose
p64
I2
sVcars
p65
I1
sVnever
p66
I3
sVboss
p67
I2
sVflyer
p68
I1
sVsmokin
p69
I3
sVchick
p70
I2
sVput
p71
I1
sVyay
p72
I1
sVthrow
p73
I1
sVstuntin
p74
I2
sVsuperstar
p75
I1
sVnough
p76
I1
sVinvolved
p77
I2
sVkeep
p78
I2
sVwalkin
p79
I1
sVthing
p80
I1
sVbeitch
p81
I2
sVact
p82
I1
sVcountin
p83
I1
sVfuckin
p84
I2
sVthats
p85
I1
sVraised
p86
I1
sVpolished
p87
I1
sVdont
p88
I1
sVpresence
p89
I1
sVowe
p90
I1
sVmakin
p91
I1
sVmomma
p92
I1
sVright
p93
I2
sVbitch
p94
I3
sVoughta
p95
I1
sVcomin
p96
I4
sVmannish
p97
I2
sVlittle
p98
I1
sVfast
p99
I1
sVdna
p100
I1
sVdude
p101
I2
sVtwisted
p102
I1
sVlong
p103
I1
sVdamn
p104
I1
sVway
p105
I1
sVsettin
p106
I1
sVrockin
p107
I1
sVliquor
p108
I1
sVmackin
p109
I1
sVspit
p110
I2
sVmannishness
p111
I1
sVgutter
p112
I2
sVhear
p113
I1
sVcuttin
p114
I1
sVcatch
p115
I1
sVsqueeze
p116
I1
sVtraps
p117
I2
sVe40
p118
I1
sVduster
p119
I1
sVcar
p120
I2
sVhomey
p121
I1
sVgrey
p122
I1
sVloot
p123
I2
sVpickle
p124
I1
sVtheres
p125
I1
sVfreak
p126
I1
sVsight
p127
I1
sVshowin
p128
I2
sVsunroof
p129
I2
sVit
p130
I3
sVim
p131
I5
sVtriple
p132
I1
sVready
p133
I3
sVsharp
p134
I1
sVcheck
p135
I2
sVpar
p136
I2
sVsippin
p137
I2
sVflippin
p138
I4
sVlil
p139
I1
sVpay
p140
I1
sVmake
p141
I1
sVtip
p142
I1
sVgats
p143
I2
sVfood
p144
I2
sVbig
p145
I1
sVcashed
p146
I1
sVparty
p147
I1
sVroll
p148
I1
sVstatus
p149
I2
sVtipper
p150
I1
sVstar
p151
I1
sVgrittin
p152
I1
sVrude
p153
I2
sVhutleholic
p154
I1
sVstay
p155
I1
sVlouis
p156
I2
sVcabbage
p157
I2
sVfisted
p158
I2
sVracks
p159
I2
sVtotin
p160
I1
sVlane
p161
I1
sVshootin
p162
I1
sVneck
p163
I2
sVprofit
p164
I4
sVhella
p165
I5
sVblock
p166
I1
sVbottle
p167
I1
sVclassy
p168
I1
sVcame
p169
I1
s.