(dp1
Valo
p2
I2
sVtaller
p3
I1
sVshot
p4
I1
sVrecstreet
p5
I1
sVlyrics
p6
I2
sVscratch
p7
I2
sVdrinkin
p8
I1
sVcatch
p9
I1
sVhatest
p10
I1
sVsleep
p11
I1
sVnicky
p12
I1
sVclos
p13
I1
sVgo
p14
I1
sVlove
p15
I1
sVnorthern
p16
I1
sVdrunker
p17
I1
sVhalfway
p18
I1
sVgnat
p19
I1
sVtraders
p20
I1
sVpause
p21
I1
sVfit
p22
I2
sVsomewhere
p23
I1
sVbroom
p24
I1
sVdrunk
p25
I1
sVpoppin
p26
I1
sVbetter
p27
I2
sVtyler
p28
I1
sVtape
p29
I2
sVeasy
p30
I1
sVswimmin
p31
I1
sVima
p32
I1
sVset
p33
I2
sVrighteous
p34
I2
sVmight
p35
I1
sVta
p36
I4
sVswoll
p37
I1
sVgood
p38
I1
sVhandle
p39
I1
sVaround
p40
I1
sVyo
p41
I1
sVget
p42
I2
sVya
p43
I4
sVbig
p44
I1
sV711
p45
I1
sVgrit
p46
I1
sVtucker
p47
I1
sVwalls
p48
I1
sVspittin
p49
I5
sVrank
p50
I1
sVstrivin
p51
I1
sVprejudiced
p52
I1
sVbubbles
p53
I1
sVnow
p54
I1
sVlike
p55
I3
sVcar
p56
I1
sVforth
p57
I1
sVgettin
p58
I1
sVscratchin
p59
I1
sVexplode
p60
I1
sVtwice
p61
I1
sVmiles
p62
I1
sVnight
p63
I1
sVbought
p64
I1
sVmeal
p65
I1
sVyall
p66
I1
sVbitch
p67
I3
sVem
p68
I1
sVmotherfuckas
p69
I1
sVnigga
p70
I5
sVdump
p71
I1
sVbeeitch
p72
I1
sVbusts
p73
I2
sVstreets
p74
I1
sVmediterranean
p75
I1
sVback
p76
I2
sVass
p77
I1
sVphantoms
p78
I1
sVwassup
p79
I2
sVsee
p80
I1
sVniggaz
p81
I4
sVsnatched
p82
I1
sVbulkin
p83
I1
sVhome
p84
I1
sVyouth
p85
I1
sVtiptoein
p86
I1
sVgon
p87
I1
sVpruneau
p88
I1
sVheres
p89
I1
sVmotherfuckin
p90
I4
sVsince
p91
I1
sVforty
p92
I3
sVeverything
p93
I1
sVprops
p94
I1
sVgot
p95
I12
sVcause
p96
I1
sVuh
p97
I3
sVpacin
p98
I1
sVaint
p99
I7
sVbed
p100
I1
sVdirt
p101
I1
sVspot
p102
I1
sVteam
p103
I1
sVdome
p104
I3
sVhere
p105
I1
sVmotherfucker
p106
I1
sVwater
p107
I1
sVstep
p108
I1
sVbase
p109
I1
sVlet
p110
I1
sVrebel
p111
I1
sVkey
p112
I1
sVtrunk
p113
I1
sVcclliick
p114
I1
sVstay
p115
I1
sVwin
p116
I1
sVpopos
p117
I1
sVmotherfucka
p118
I1
sVbuck
p119
I2
sVungreatful
p120
I1
sVinstant
p121
I1
sVbol
p122
I1
sVoh
p123
I1
sVwaiter
p124
I1
sVstarts
p125
I1
sVcould
p126
I1
sVguide
p127
I2
sVdrawers
p128
I2
sVadmit
p129
I1
sVpatrons
p130
I1
sVlookin
p131
I2
sVtactical
p132
I1
sVstrugglin
p133
I1
sVwhoppin
p134
I1
sVsoundin
p135
I1
sVthink
p136
I2
sVfuckin
p137
I6
sVsmokin
p138
I1
sVfeed
p139
I1
sVcalifornia
p140
I1
sVmotherfuckers
p141
I1
sVtone
p142
I1
sVdont
p143
I2
sVextra
p144
I2
sVfeel
p145
I2
sVpussy
p146
I1
sVcranium
p147
I1
sVhighly
p148
I1
sVwhoop
p149
I1
sVright
p150
I1
sVive
p151
I1
sVlikes
p152
I2
sVhang
p153
I1
sVduck
p154
I1
sVmiss
p155
I1
sVstaple
p156
I1
sVsecond
p157
I1
sVyouse
p158
I2
sVmanagin
p159
I1
sVhey
p160
I1
sVpaint
p161
I1
sVcall
p162
I2
sVway
p163
I2
sVteeth
p164
I1
sVbite
p165
I1
sVtell
p166
I1
sVwoke
p167
I1
sVobese
p168
I1
sVlife
p169
I2
sVhard
p170
I1
sVbitches
p171
I1
sVserve
p172
I1
sVtook
p173
I3
sVcant
p174
I1
sVit
p175
I1
sVdowntown
p176
I1
sVcatchin
p177
I1
sVstick
p178
I1
sVbroke
p179
I1
sVbaby
p180
I1
sV96
p181
I1
sVme
p182
I2
sVungrateful
p183
I1
sVe40
p184
I1
sVdanz
p185
I1
sVhostess
p186
I2
sVniggas
p187
I1
sVcrack
p188
I1
sV1luv
p189
I1
sVcash
p190
I1
sVmedley
p191
I1
sVfuhah
p192
I1
sVshower
p193
I1
sVmatter
p194
I1
sVconverted
p195
I1
sVfriend
p196
I1
sVsquash
p197
I2
sVjoke
p198
I1
sVim
p199
I2
sVdisplay
p200
I1
sVbet
p201
I1
sVnigglet
p202
I1
sVtoilet
p203
I1
sVclit
p204
I2
sVpound
p205
I2
sVmoney
p206
I1
sVbumble
p207
I2
sVah
p208
I2
sVrubble
p209
I1
sVfuck
p210
I3
sVsting
p211
I1
sVhigh
p212
I1
sVready
p213
I1
sVsay
p214
I3
sVniagara
p215
I1
sVterminator
p216
I2
sVneed
p217
I2
sVhit
p218
I1
sVcheck
p219
I1
sVshit
p220
I6
sVrisk
p221
I2
sVgone
p222
I1
sVmicrophone
p223
I2
sVus
p224
I1
sVopen
p225
I3
sVpay
p226
I1
sVmake
p227
I4
sVbeat
p228
I1
sV40
p229
I5
sVlapds
p230
I1
sVtil
p231
I2
sVuhbah
p232
I1
sVbear
p233
I1
sVtake
p234
I1
sVambitious
p235
I1
sVpickin
p236
I1
sVplace
p237
I1
sVhangin
p238
I1
sVmack1
p239
I1
sVtoasted
p240
I1
sVpoor
p241
I1
sVinstigator
p242
I1
sVambitiousness
p243
I1
sVedged
p244
I1
sVdrink
p245
I2
sVchiminey
p246
I2
sVfalls
p247
I1
sVbeast
p248
I1
sValarms
p249
I1
sVwrong
p250
I1
sVsaid
p251
I1
sVsooner
p252
I1
sVtrader
p253
I1
sVflushed
p254
I1
sVexplosives
p255
I1
sVman
p256
I3
sVsomethin
p257
I1
sVmanute
p258
I1
sVrules
p259
I1
sVlight
p260
I1
sVuhbarney
p261
I1
sVhumble
p262
I1
sVbugs
p263
I1
sVnothin
p264
I2
sVface
p265
I1
sVwithout
p266
I1
sVgreen
p267
I2
sVdeserve
p268
I1
sVat
p269
I1
sVtall
p270
I1
sVtha
p271
I1
sVknow
p272
I1
s.