(dp1
Vlyrics
p2
I3
sVseptember
p3
I1
sVfall
p4
I1
sV43
p5
I1
sVtop
p6
I1
sVshoe
p7
I1
sVsayin
p8
I1
sVshake
p9
I2
sVtakin
p10
I1
sValbums
p11
I1
sVbased
p12
I1
sVlargeass
p13
I1
sVslow
p14
I1
sVzomba
p15
I1
sVgold
p16
I1
sVfit
p17
I1
sVtalkin
p18
I1
sVexplain
p19
I1
sVhad
p20
I1
sVairplay
p21
I1
sVyea
p22
I2
sVverse
p23
I1
sVprogram
p24
I1
sVblaze
p25
I1
sVfolks
p26
I1
sVbeatch
p27
I2
sVbeotch
p28
I1
sVta
p29
I1
sVreal
p30
I1
sVdo
p31
I1
sVgood
p32
I1
sVmarch
p33
I1
sVmainstream
p34
I1
sVyo
p35
I2
sVget
p36
I3
sVcharacters
p37
I1
sVstop
p38
I1
sVe40
p39
I2
sVuhh
p40
I4
sVcoast
p41
I1
sVfamous
p42
I1
sVgame
p43
I3
sVroyalty
p44
I1
sVspittin
p45
I2
sVknow
p46
I5
sVgot
p47
I2
sVnow
p48
I2
sVghetto
p49
I2
sVflipflop
p50
I1
sVwhatchu
p51
I1
sVlike
p52
I5
sVever
p53
I1
sVmillenium
p54
I1
sV50
p55
I1
sVbay
p56
I1
sVbad
p57
I1
sVtruth
p58
I1
sVhype
p59
I1
sVhustle
p60
I2
sVyall
p61
I2
sVassassinatin
p62
I1
sVem
p63
I1
sVnigga
p64
I5
sVnuttin
p65
I1
sVdums
p66
I1
sVdeal
p67
I1
sVslangin
p68
I1
sVattached
p69
I1
sVboohoon
p70
I1
sVback
p71
I1
sValive
p72
I1
sVsee
p73
I2
sVshinin
p74
I1
sVvideo
p75
I1
sVyear
p76
I3
sVbillboard
p77
I1
sVconcern
p78
I3
sVgon
p79
I2
sVnetwork
p80
I1
sVways
p81
I1
sVaway
p82
I1
sVsince
p83
I1
sVmay
p84
I3
sVfans
p85
I1
sVink
p86
I1
sVplaya
p87
I1
sVinternet
p88
I2
sVit
p89
I3
sVnew
p90
I3
sVcause
p91
I2
sVuh
p92
I1
sVaint
p93
I7
sVsixteen
p94
I1
sVburn
p95
I1
sVnever
p96
I3
sVhere
p97
I2
sVquite
p98
I1
sVlet
p99
I1
sVwear
p100
I1
sVima
p101
I1
sVask
p102
I2
sVfetti
p103
I1
sVhand
p104
I2
sVcome
p105
I3
sVshoulda
p106
I1
sVwait
p107
I1
sVon
p108
I1
sVthirty
p109
I1
sVoh
p110
I3
sVindustry
p111
I1
sVbreakin
p112
I1
sVdays
p113
I1
sVeatin
p114
I1
sVsidin
p115
I1
sVsweat
p116
I2
sVlookin
p117
I1
sVwest
p118
I1
sVthink
p119
I1
sVroad
p120
I1
sVthats
p121
I4
sVenjoy
p122
I1
sVstatements
p123
I1
sVdont
p124
I4
sVnumber
p125
I1
sVone
p126
I1
sVdown
p127
I1
sVright
p128
I2
sVdone
p129
I1
sVfool
p130
I1
sVrespect
p131
I1
sVaints
p132
I1
sVtake
p133
I2
sVwan
p134
I2
sVdum
p135
I1
sVwould
p136
I2
sVsource
p137
I1
sVperk
p138
I1
sVfinicky
p139
I2
sVsupport
p140
I1
sVquotable
p141
I1
sVdude
p142
I2
sVfast
p143
I1
sVnext
p144
I3
sVdoubt
p145
I1
sVdamn
p146
I1
sVpassed
p147
I1
sVhundred
p148
I1
sVtell
p149
I2
sVsort
p150
I1
sVplayboy
p151
I1
sVjournalists
p152
I1
sVthousand
p153
I2
sVshorty
p154
I1
sVaward
p155
I1
sVfuck
p156
I3
sVlistenin
p157
I1
sVheat
p158
I2
sVunrecouped
p159
I1
sVcircumstances
p160
I1
sVme
p161
I1
sVnone
p162
I2
sVrappin
p163
I1
sVsit
p164
I3
sVsoundscan
p165
I1
sVmtv
p166
I1
sVflip
p167
I1
sVniggaz
p168
I1
sVrecord
p169
I1
sVbudgets
p170
I1
sVcharlie
p171
I2
sVsituation
p172
I1
sVdidnt
p173
I1
sVfinsta
p174
I1
sVhip
p175
I1
sVunderground
p176
I1
sVfigure
p177
I1
sVran
p178
I2
sVmeasure
p179
I1
sVsales
p180
I1
sVdeep
p181
I1
sVthoughtamajig
p182
I1
sVraw
p183
I1
sVmurder
p184
I1
sVim
p185
I5
sVseen
p186
I1
sVballers
p187
I1
sVpolitics
p188
I1
sVsaw
p189
I1
sVcheck
p190
I1
sVshit
p191
I6
sVaround
p192
I1
sVhog
p193
I1
sVdifferent
p194
I1
sVhoe
p195
I1
sVtheyll
p196
I3
sVlame
p197
I1
sVna
p198
I3
sVmake
p199
I1
sVloyal
p200
I1
sV40
p201
I2
sVid
p202
I1
sVya
p203
I1
sVpac
p204
I1
sVworry
p205
I1
sVhop
p206
I1
sVunits
p207
I1
sVanthems
p208
I1
sVsmell
p209
I1
sVcongratulations
p210
I1
sVirkin
p211
I1
sVindependent
p212
I1
sVadvancements
p213
I1
sVrappers
p214
I2
sVpaid
p215
I1
sVpredicated
p216
I1
sVhiphop
p217
I2
sVkinda
p218
I1
sVopinionation
p219
I1
sVnoticeable
p220
I1
sVprove
p221
I1
sVlight
p222
I1
sVclear
p223
I1
sVyoure
p224
I3
sVdog
p225
I1
sVmotherfuckers
p226
I1
sVthought
p227
I1
sVdirectors
p228
I1
sVhella
p229
I1
sVevery
p230
I1
sVfirst
p231
I1
sVsongs
p232
I1
s.