(dp1
Vnow
p2
I1
sVcode
p3
I1
sVshot
p4
I1
sVkastro
p5
I1
sVlyrics
p6
I2
sVindeed
p7
I1
sVbeware
p8
I1
sVhatin
p9
I1
sVeverybody
p10
I1
sVsnip
p11
I1
sVcatch
p12
I1
sVnoble
p13
I1
sVkill
p14
I1
sVvictim
p15
I1
sVfreakin
p16
I1
sVgo
p17
I1
sVhell
p18
I2
sVstill
p19
I2
sVpos
p20
I1
sVneedin
p21
I1
sVaint
p22
I7
sVgrandmother
p23
I1
sVstyle
p24
I1
sVdeath
p25
I3
sVgivin
p26
I1
sVscheam
p27
I1
sVjustice
p28
I1
sVexplain
p29
I1
sVseems
p30
I1
sVcuz
p31
I4
sVbust
p32
I1
sVcrime
p33
I1
sVmakaveli
p34
I1
sVtramp
p35
I1
sVfinally
p36
I2
sVmarks
p37
I1
sVcrack
p38
I1
sVlets
p39
I1
sVscripture
p40
I1
sVhope
p41
I2
sVgrip
p42
I1
sVme
p43
I3
sVlonely
p44
I1
sVvictims
p45
I1
sVlivin
p46
I1
sVyo
p47
I2
sVget
p48
I4
sVbein
p49
I1
sVwatch
p50
I1
sVparasites
p51
I1
sVfat
p52
I1
sVscene
p53
I1
sVbreak
p54
I1
sVbeam
p55
I1
sVgame
p56
I1
sVtruely
p57
I1
sVjack
p58
I1
sVwords
p59
I1
sVthugged
p60
I1
sVconfetti
p61
I1
sVworld
p62
I1
sVblast
p63
I1
sVroaches
p64
I1
sVday
p65
I1
sVarrange
p66
I1
sVstate
p67
I1
sVlike
p68
I5
sVcar
p69
I1
sVmade
p70
I1
sVsnitchin
p71
I1
sVpositions
p72
I1
sVyawnin
p73
I1
sVgun
p74
I1
sVmorning
p75
I1
sVexplode
p76
I2
sVpeepin
p77
I1
sVstupid
p78
I1
sVholdin
p79
I1
sVvictory
p80
I1
sVman
p81
I1
sVteam
p82
I2
sVkato
p83
I1
sVfound
p84
I1
sVautomatic
p85
I1
sVride
p86
I1
sVwrote
p87
I1
sVmean
p88
I1
sVcreepin
p89
I1
sVnigga
p90
I4
sVeh
p91
I1
sVburst
p92
I1
sVbleedin
p93
I1
sVhard
p94
I1
sVback
p95
I3
sVbounce
p96
I1
sVself
p97
I1
sVnail
p98
I1
sVsee
p99
I3
sVstreet
p100
I2
sVeverbody
p101
I1
sVaccelerate
p102
I1
sVfist
p103
I1
sVdie
p104
I1
sVwont
p105
I1
sVwin
p106
I1
sVblinded
p107
I1
sVcreep
p108
I1
sVenemies
p109
I1
sVcloser
p110
I1
sVjewelry
p111
I1
sVspace
p112
I1
sVmine
p113
I1
sVmemories
p114
I1
sVcha
p115
I1
sVsweaty
p116
I1
sVcompetitions
p117
I1
sV3
I1
sVhostile
p118
I1
sVpassion
p119
I1
sVwrath
p120
I1
sVwhats
p121
I2
sVit
p122
I2
sVgot
p123
I4
sVguns
p124
I1
sVmanaged
p125
I1
sVadvaced
p126
I1
sVwarrior
p127
I1
sVdrink
p128
I1
sVrun
p129
I2
sVright
p130
I1
sVbreathin
p131
I1
sVsiege
p132
I1
sVdoubt
p133
I1
sVnever
p134
I1
sVweak
p135
I1
sVridin
p136
I1
sVpossibility
p137
I1
sVswole
p138
I1
sVstrap
p139
I1
sVtracks
p140
I1
sVsurely
p141
I1
sVfree
p142
I1
sVmight
p143
I2
sVstay
p144
I3
sVcome
p145
I1
sVextreme
p146
I1
sVfoes
p147
I1
sVbackwards
p148
I1
sVmobb
p149
I1
sVg
I1
sVmash
p150
I1
sVcould
p151
I2
sVmonths
p152
I1
sVpunk
p153
I1
sVreason
p154
I1
sVscreamin
p155
I1
sVtimes
p156
I1
sVchosen
p157
I1
sVadmit
p158
I1
sVounce
p159
I1
sVah
p160
I1
sVstand
p161
I1
sVlookin
p162
I1
sVformation
p163
I1
sVtongue
p164
I1
sVwhole
p165
I1
sVpillow
p166
I1
sVfuckin
p167
I1
sVout
p168
I2
sVblind
p169
I1
sVpistols
p170
I1
sVlove
p171
I1
sVdont
p172
I2
sVsoley
p173
I1
sVmadman
p174
I1
sVyoud
p175
I1
sVmakin
p176
I1
sVson
p177
I1
sVscandalouz
p178
I1
sVfumes
p179
I1
sVwit
p180
I8
sVbitch
p181
I3
sVlaugh
p182
I1
sVtheyd
p183
I1
sVraw
p184
I1
sVfight
p185
I1
sVcloud
p186
I1
sVspeak
p187
I1
sVinfared
p188
I1
sVcity
p189
I1
sVscarred
p190
I1
sVeye
p191
I1
sVsilent
p192
I1
sVbeef
p193
I1
sVfew
p194
I1
sVwould
p195
I2
sVdevils
p196
I1
sVhalfs
p197
I1
sVattack
p198
I2
sVfast
p199
I1
sVhollows
p200
I1
sVoutlaws
p201
I1
sVstuck
p202
I1
sVlive
p203
I1
sVwindow
p204
I1
sVcall
p205
I1
sVlow
p206
I1
sV6
I1
sVswitchin
p207
I1
sVattach
p208
I1
sVkitchen
p209
I1
sVbreathe
p210
I1
sVlife
p211
I9
sVsuckas
p212
I1
sVholy
p213
I1
sVbehind
p214
I1
sVbelieve
p215
I1
sVnobody
p216
I2
sVfindin
p217
I1
sVsnatch
p218
I1
sVheat
p219
I1
sVpart
p220
I1
sVdeep
p221
I3
sVkamikaze
p222
I1
sVknown
p223
I1
sVfadin
p224
I1
sVsurrender
p225
I1
sVtrue
p226
I1
sV2pac
p227
I1
sVmatter
p228
I2
sVlistenin
p229
I1
sVpull
p230
I1
sVkind
p231
I1
sVfiends
p232
I1
sVthug
p233
I1
sVlook
p234
I3
sVniggas
p235
I7
sVwish
p236
I1
sVoutlaw
p237
I6
sVtheives
p238
I1
sVcash
p239
I1
sVus
p240
I1
sVbreath
p241
I1
sVyears
p242
I1
sVbustas
p243
I1
sVun
p244
I1
sVuh
p245
I1
sVexhale
p246
I1
sVleft
p247
I1
sVeven
p248
I1
sVgunfire
p249
I1
sVsay
p250
I1
sVflashin
p251
I1
sVvest
p252
I1
sVyoure
p253
I1
sVoutta
p254
I2
sVup
p255
I1
sVfury
p256
I1
sVrecognize
p257
I1
sVis
p258
I1
sVmind
p259
I2
sVfuck
p260
I2
sVjewels
p261
I1
sVdash
p262
I1
sVheard
p263
I1
sVcant
p264
I4
sVbreathing
p265
I1
sVim
p266
I4
sVrap
p267
I1
sVready
p268
I2
sVsomebody
p269
I1
sVplan
p270
I1
sVkeep
p271
I1
sVgive
p272
I1
sVunholy
p273
I1
sVshit
p274
I2
sVchase
p275
I2
sVfunny
p276
I1
sVthugs
p277
I1
sVbullets
p278
I1
sVlet
p279
I2
sVsellin
p280
I1
sVperhaps
p281
I1
sVmake
p282
I1
sVfoolin
p283
I1
sVfame
p284
I1
sVsnakes
p285
I1
sVtill
p286
I2
sVneed
p287
I1
sVbelly
p288
I1
sVyou
p289
I1
sVcream
p290
I1
sVdope
p291
I2
sVpicture
p292
I2
sVplay
p293
I1
sVbitches
p294
I1
sVslave
p295
I1
sVtime
p296
I1
sVtrace
p297
I1
sVtrack
p298
I1
sVknew
p299
I1
sVevil
p300
I1
sVhand
p301
I2
sVfeds
p302
I1
sVclippers
p303
I1
sVplenty
p304
I2
sVdark
p305
I2
sVapproved
p306
I1
sVexplosives
p307
I1
sVitchin
p308
I2
sVyeah
p309
I1
sVnight
p310
I1
sVforever
p311
I1
sVland
p312
I2
sVmercy
p313
I1
sVeffective
p314
I1
sVunload
p315
I1
sVwhenever
p316
I1
sVstraps
p317
I1
sVwell
p318
I1
sVlost
p319
I2
sVdaily
p320
I1
sVface
p321
I1
sVknowin
p322
I1
sVcontact
p323
I1
sVkeeps
p324
I1
sVtryin
p325
I1
sVplotted
p326
I1
sVsleepin
p327
I1
sVfact
p328
I2
sVknow
p329
I1
s.