(dp1
Vlyrics
p2
I2
sVbrain
p3
I1
sVkill
p4
I1
sVviolate
p5
I1
sVfade
p6
I1
sVbout
p7
I1
sVride
p8
I2
sVreal
p9
I1
sVbeat
p10
I1
sVbig
p11
I1
sVkiller
p12
I1
sVnation
p13
I1
sVknow
p14
I1
sVhands
p15
I1
sVfront
p16
I1
sVworld
p17
I1
sVprojects
p18
I1
sVwont
p19
I2
sVlike
p20
I1
sVlost
p21
I1
sVdie
p22
I1
sVleave
p23
I1
sVbad
p24
I1
sVround
p25
I6
sVheavyweight
p26
I1
sVcatching
p27
I1
sVpain
p28
I3
sVbest
p29
I2
sVcloser
p30
I1
sVsaid
p31
I1
sVhesitation
p32
I1
sVplease
p33
I1
sVremain
p34
I1
sVcell
p35
I2
sVbruno
p36
I1
sVdenied
p37
I3
sVprobably
p38
I1
sVchains
p39
I1
sVfilled
p40
I1
sVass
p41
I2
sVnever
p42
I1
sVlet
p43
I1
sVstrong
p44
I1
sVthrow
p45
I1
sVill
p46
I3
sVtimes
p47
I2
sVbrutalize
p48
I1
sVwhole
p49
I1
sVroad
p50
I3
sVfirst
p51
I2
sVdont
p52
I1
sVone
p53
I1
sVlies
p54
I2
sVtrained
p55
I1
sVprobation
p56
I1
sVcouldnt
p57
I1
sVnext
p58
I1
sVcall
p59
I1
sVthoughts
p60
I1
sVrecognize
p61
I2
sVtell
p62
I2
sVmike
p63
I1
sVchampion
p64
I1
sVhaha
p65
I1
sVtrain
p66
I1
sVcases
p67
I1
sVbelieve
p68
I1
sV2pac
p69
I1
sVme
p70
I1
sVglory
p71
I3
sVinside
p72
I2
sVsecond
p73
I2
sVstrategize
p74
I1
sVmr
p75
I1
sVcrazy
p76
I2
sVlock
p77
I1
sVit
p78
I1
sVtonight
p79
I1
sVim
p80
I2
sVdemonstration
p81
I1
sVagain
p82
I1
sVmedia
p83
I2
sVstruggles
p84
I1
sVtil
p85
I1
sVproduct
p86
I1
sVintend
p87
I1
sVinformation
p88
I1
sVfelt
p89
I2
sVplan
p90
I1
sVtyson
p91
I1
sVwhy
p92
I1
sVshamed
p93
I1
sVthird
p94
I2
sVi
I1
sVspent
p95
I2
sVfluent
p96
I1
sVthorns
p97
I1
sVcame
p98
I1
s.