(dp1
Vsurrounded
p2
I1
sVgs
p3
I1
sVlyrics
p4
I2
sVcrazy
p5
I1
sVbring
p6
I1
sVsoulja
p7
I15
sVwelfare
p8
I1
sVtouch
p9
I1
sVfollow
p10
I1
sVyes
p11
I1
sVstill
p12
I1
sVbail
p13
I1
sVdont
p14
I3
sVaint
p15
I1
sVblast
p16
I1
sVpolice
p17
I1
sVeverything
p18
I1
sVtracks
p19
I1
sVflash
p20
I1
sVyoung
p21
I1
sVsend
p22
I1
sVcrime
p23
I1
sVarrest
p24
I1
sVfinally
p25
I1
sVblack
p26
I4
sVminute
p27
I1
sVcrack
p28
I2
sVdodge
p29
I1
sVme
p30
I5
sVuzthick
p31
I1
sVhit
p32
I3
sVworse
p33
I1
sVget
p34
I6
sVya
p35
I3
sVscreams
p36
I1
sVblessed
p37
I1
sVbreak
p38
I1
sVpickin
p39
I1
sVbang
p40
I1
sVquest
p41
I1
sVevery
p42
I2
sVmom
p43
I2
sVnew
p44
I2
sVbrothers
p45
I1
sVnow
p46
I3
sVhall
p47
I1
sVbigger
p48
I2
sVballs
p49
I1
sVbrought
p50
I1
sVheaven
p51
I1
sVlike
p52
I4
sVyoull
p53
I2
sVbutton
p54
I1
sVdrop
p55
I2
sVchest
p56
I1
sVbrother
p57
I7
sVtry
p58
I1
sVgood
p59
I1
sVwish
p60
I1
sVquick
p61
I1
sVbecome
p62
I1
sVtold
p63
I1
sVyall
p64
I2
sVem
p65
I5
sVseventeen
p66
I1
sVnigga
p67
I2
sVhouse
p68
I1
sVbleedin
p69
I1
sVstreets
p70
I1
sVback
p71
I1
sVgun
p72
I1
sVsee
p73
I1
sVtellin
p74
I1
sVpacked
p75
I1
sVout
p76
I2
sVcoppers
p77
I1
sVmotherfucker
p78
I1
sVblamin
p79
I1
sVdestiny
p80
I1
sVblacks
p81
I4
sVheres
p82
I1
sVsince
p83
I1
sVdeserve
p84
I1
sVpen
p85
I1
sVstall
p86
I1
sVexit
p87
I1
sVgot
p88
I11
sVjock
p89
I1
sVcause
p90
I3
sVbought
p91
I2
sVass
p92
I3
sVsouljas
p93
I4
sVchose
p94
I1
sVsold
p95
I1
sVnever
p96
I3
sVlittle
p97
I1
sVpunks
p98
I1
sVdome
p99
I1
sVstep
p100
I1
sVdeath
p101
I2
sVlet
p102
I1
sVhectic
p103
I1
sVduckin
p104
I1
sVwanted
p105
I9
sVcome
p106
I2
sVshot
p107
I2
sVcop
p108
I2
sVgoods
p109
I1
sVlast
p110
I1
sVjet
p111
I1
sVfault
p112
I1
sVill
p113
I1
sVpunk
p114
I3
sVquiet
p115
I1
sVkeep
p116
I1
sVwalkin
p117
I2
sVbusted
p118
I1
sVplace
p119
I1
sVsweat
p120
I1
sVsmoke
p121
I1
sVmouth
p122
I1
sVrodney
p123
I1
sVfootsteps
p124
I1
sVthink
p125
I2
sVfuckin
p126
I2
sVking
p127
I2
sVcocked
p128
I1
sVfamily
p129
I1
sVwhites
p130
I1
sVpow
p131
I1
sVmakin
p132
I4
sVone
p133
I2
sVdown
p134
I3
sVna
p135
I1
sVmomma
p136
I1
sVset
p137
I1
sVdone
p138
I1
sVlaugh
p139
I1
sVcomin
p140
I1
sVmessage
p141
I1
sVcrew
p142
I1
sVanorexic
p143
I1
sVboat
p144
I1
sVspeak
p145
I1
sVwan
p146
I1
sVstory
p147
I2
sVkillin
p148
I3
sVwould
p149
I1
sVto
p150
I1
sVfifteen
p151
I1
sVcaught
p152
I2
sVtail
p153
I1
sVfast
p154
I4
sVwhos
p155
I1
sVmuch
p156
I1
sVcall
p157
I1
sVtoo
p158
I2
sVforward
p159
I1
sVjackass
p160
I1
sVtell
p161
I1
sVkingpin
p162
I1
sVcoolin
p163
I1
sVhead
p164
I1
sVglock
p165
I3
sVbuck
p166
I2
sVsingsing
p167
I1
sVtook
p168
I2
sVsales
p169
I1
sVcops
p170
I4
sVpart
p171
I1
sVhear
p172
I1
sVcuttin
p173
I1
sVpig
p174
I1
sV2pac
p175
I1
sVcase
p176
I2
sVpull
p177
I2
sV1993
p178
I1
sVmade
p179
I1
sVlocked
p180
I1
sVbullet
p181
I2
sVwearin
p182
I1
sVuz
p183
I1
sVthis
p184
I1
sVsplittin
p185
I1
sVstraight
p186
I3
sVtree
p187
I1
sVniggaz
p188
I4
sVaim
p189
I1
sVdroppin
p190
I1
sVmany
p191
I1
sVfollowing
p192
I1
sVmale
p193
I1
sVpack
p194
I1
sVwants
p195
I1
sVvest
p196
I1
sVpound
p197
I1
sVthatll
p198
I1
sVmask
p199
I1
sVmoved
p200
I1
sVfuck
p201
I1
sVjewels
p202
I1
sVdaddys
p203
I1
sVheard
p204
I1
sVsingle
p205
I1
sVmurder
p206
I1
sVim
p207
I10
sVgorden
p208
I1
sVready
p209
I1
sVshit
p210
I5
sVneeds
p211
I1
sVthings
p212
I2
sVtip
p213
I1
sVgats
p214
I1
sVtil
p215
I1
sVhot
p216
I1
sVbest
p217
I1
sVwall
p218
I1
sVtest
p219
I1
sVyou
p220
I1
sVseveral
p221
I1
sVlife
p222
I1
sVleavin
p223
I1
sVtried
p224
I1
sVmess
p225
I1
sVmother
p226
I1
sVproblems
p227
I1
sVweed
p228
I2
sVjiffy
p229
I1
sVgon
p230
I3
sVstab
p231
I1
sVwarden
p232
I1
sVfucked
p233
I1
sVkid
p234
I1
sVtricky
p235
I1
sVrisin
p236
I1
sVtask
p237
I2
sVkept
p238
I2
sVremember
p239
I1
sVcalls
p240
I2
sVolder
p241
I1
sVshout
p242
I1
sVsteady
p243
I1
sVdouble
p244
I1
sVprepared
p245
I1
sVblock
p246
I4
sVpay
p247
I1
sVthats
p248
I1
sVcame
p249
I1
sVleft
p250
I1
s.