(dp1
Vrealest
p2
I1
sVstamps
p3
I1
sVlyrics
p4
I2
sVfood
p5
I1
sVmoney
p6
I2
sVwatchin
p7
I1
sVdisguise
p8
I1
sVever
p9
I1
sVkill
p10
I3
sVkilo
p11
I1
sVgo
p12
I2
sVhell
p13
I1
sVcold
p14
I1
sVstill
p15
I1
sVtakin
p16
I1
sVfullest
p17
I2
sVcocked
p18
I1
sVdrinkin
p19
I1
sVhold
p20
I1
sVdice
p21
I1
sVtrigger
p22
I2
sVpoint
p23
I1
sVyoung
p24
I5
sVbetter
p25
I3
sVfinally
p26
I1
sVgivin
p27
I1
sVfade
p28
I1
sVfolks
p29
I1
sVbout
p30
I1
sVfences
p31
I1
sVtake
p32
I2
sVfool
p33
I1
sVrunnin
p34
I1
sVvillian
p35
I1
sVservin
p36
I1
sVhit
p37
I2
sVboomin
p38
I1
sVget
p39
I3
sVbeat
p40
I1
sVcould
p41
I2
sVsurvival
p42
I1
sVwatch
p43
I2
sVpocket
p44
I2
sVmention
p45
I1
sVgame
p46
I4
sVcook
p47
I1
sVridin
p48
I1
sVnow
p49
I1
sVday
p50
I1
sVprojects
p51
I1
sVghetto
p52
I1
sVlike
p53
I3
sVlost
p54
I1
sVdie
p55
I5
sVgettin
p56
I3
sVrocks
p57
I1
sVbad
p58
I1
sVhittin
p59
I1
sVquarter
p60
I1
sVem
p61
I3
sVnigga
p62
I8
sVanother
p63
I1
sVslangin
p64
I1
sVbump
p65
I1
sVliquor
p66
I2
sVblank
p67
I1
sVback
p68
I2
sVyayyo
p69
I1
sVcash
p70
I1
sVborn
p71
I1
sVsee
p72
I2
sVfull
p73
I1
sVtellin
p74
I1
sVhoes
p75
I1
sVaids
p76
I1
sVfiveo
p77
I1
sVtheyre
p78
I2
sVsunrise
p79
I1
sVmight
p80
I2
sVeven
p81
I3
sVgon
p82
I1
sVopen
p83
I1
sVposse
p84
I1
sVlegal
p85
I1
sVlowlife
p86
I1
sVpen
p87
I1
sVgot
p88
I4
sVpistol
p89
I2
sVcause
p90
I5
sVslugs
p91
I1
sVtold
p92
I1
sVass
p93
I1
sVaint
p94
I4
sVends
p95
I1
sVkicked
p96
I1
sVslight
p97
I1
sVdevil
p98
I1
sVsold
p99
I1
sVmillion
p100
I2
sVmotherfucker
p101
I8
sVdressin
p102
I1
sVonetime
p103
I1
sVkillin
p104
I1
sVlet
p105
I2
sVput
p106
I1
sVstrong
p107
I1
sVblasted
p108
I1
sVdry
p109
I1
sVbuck
p110
I1
sVg
I2
sVdollars
p111
I1
sVchanged
p112
I1
sVscreamin
p113
I1
sVkeep
p114
I3
sVthing
p115
I1
sVrange
p116
I1
sVounce
p117
I2
sVparlaying
p118
I1
sVstand
p119
I1
sVsmoke
p120
I1
sVthink
p121
I1
sVblock
p122
I4
sVfirst
p123
I3
sVmotherfucking
p124
I2
sVmajor
p125
I1
sVdont
p126
I5
sVdamned
p127
I3
sVmakin
p128
I1
sVna
p129
I1
sVjealous
p130
I1
sVlaugh
p131
I1
sVstrip
p132
I1
sVkinda
p133
I1
sVcounts
p134
I1
sVballin
p135
I10
sVblunts
p136
I1
sVcity
p137
I1
sVlittle
p138
I2
sVcasket
p139
I1
sVraise
p140
I1
sVwould
p141
I1
sVslept
p142
I1
sVhey
p143
I2
sVlong
p144
I2
sVplastic
p145
I1
sVlive
p146
I2
sVcry
p147
I2
sVmusic
p148
I1
sVlow
p149
I1
sVway
p150
I2
sVmama
p151
I1
sVsurvive
p152
I1
sVwhite
p153
I1
sVtryin
p154
I2
sVst8
p155
I7
sVtell
p156
I1
sVtoday
p157
I1
sVeyes
p158
I1
sVclever
p159
I1
sVinches
p160
I1
sVdefinition
p161
I1
sVfire
p162
I1
sVbitches
p163
I2
sVcant
p164
I1
sVit
p165
I3
sVcops
p166
I1
sVcorner
p167
I1
sVcatch
p168
I1
sV165
p169
I1
sVha
p170
I1
sV2pac
p171
I1
sVcoverin
p172
I1
sVme
p173
I5
sVpull
p174
I3
sVmade
p175
I1
sVlocked
p176
I1
sVdealin
p177
I1
sVniggas
p178
I7
sVwish
p179
I1
sVbucket
p180
I1
sVup
p181
I1
sVpour
p182
I1
sVcurb
p183
I1
sVta
p184
I1
sVcock
p185
I1
sVill
p186
I2
sVweighin
p187
I1
sVgone
p188
I1
sVready
p189
I1
sVoutta
p190
I1
sVdo
p191
I1
sVbenz
p192
I1
sVshare
p193
I1
sVfuck
p194
I4
sVhigh
p195
I1
sVneed
p196
I2
sVsay
p197
I2
sVcallin
p198
I1
sVim
p199
I15
sVwant
p200
I2
sVhollar
p201
I1
sVid
p202
I1
sVshit
p203
I2
sVdrugs
p204
I1
sVbastard
p205
I1
sVstr8
p206
I2
sVrather
p207
I2
sVdeserve
p208
I1
sVmake
p209
I3
sV45
p210
I1
sVballing
p211
I1
sVtil
p212
I1
sVtill
p213
I1
sVshakin
p214
I1
sVhos
p215
I1
sVyou
p216
I1
sVbeach
p217
I1
sVroll
p218
I2
sVsweat
p219
I1
sVpoor
p220
I1
sVthug
p221
I1
sVpain
p222
I2
sVlookin
p223
I1
sVstop
p224
I1
sVglock
p225
I1
sVmissin
p226
I1
sVblame
p227
I1
sVthugs
p228
I1
sVpaid
p229
I1
sVstay
p230
I2
sVregular
p231
I1
sVlay
p232
I1
sVnever
p233
I2
sVnarcs
p234
I1
sVon
p235
I1
sVstack
p236
I1
sVslang
p237
I1
sVgoin
p238
I1
sVpenitentiary
p239
I1
sVtotin
p240
I1
sVtramps
p241
I1
sVshady
p242
I1
sVyoure
p243
I2
sVlife
p244
I1
sVbustin
p245
I1
sVmotherfuckers
p246
I1
sVthangs
p247
I1
sVblast
p248
I1
sVso
p249
I1
sVfuckin
p250
I1
sVrepresentin
p251
I1
sVtime
p252
I3
sVskinny
p253
I2
sVparole
p254
I1
sVcame
p255
I1
s.