(dp1
Vincarcerate
p2
I1
sVcute
p3
I1
sVsprayed
p4
I1
sVshot
p5
I1
sVlyrics
p6
I2
sVwhoever
p7
I1
sVyea
p8
I1
sVpraying
p9
I1
sVbrain
p10
I1
sVkill
p11
I2
sVgo
p12
I1
sVearth
p13
I1
sVfear
p14
I1
sVstill
p15
I1
sVfind
p16
I1
sVmarching
p17
I1
sVdieing
p18
I2
sVha
p19
I1
sVfamily
p20
I1
sVswam
p21
I1
sVcriminals
p22
I1
sVtrying
p23
I1
sVyoung
p24
I3
sVfeel
p25
I1
sVgoing
p26
I1
sVblack
p27
I5
sVcrack
p28
I1
sVreal
p29
I1
sVdivision
p30
I1
sVdiseases
p31
I1
sVyo
p32
I2
sVget
p33
I4
sVbig
p34
I1
sVstop
p35
I10
sVcaps
p36
I1
sVband
p37
I1
sVkillers
p38
I1
sVevery
p39
I3
sVtingle
p40
I1
sVbirth
p41
I1
sVinstead
p42
I2
sVtelling
p43
I1
sVjesus
p44
I1
sVghetto
p45
I1
sVdingo
p46
I1
sVgifted
p47
I1
sVlaying
p48
I1
sVslavery
p49
I2
sVworried
p50
I1
sVcoincidence
p51
I1
sVrealistic
p52
I1
sVabolishing
p53
I1
sVcells
p54
I1
sVlove
p55
I3
sVspiritual
p56
I1
sVnigga
p57
I1
sVpeople
p58
I11
sVback
p59
I1
sVdead
p60
I1
sVsoul
p61
I1
sVtires
p62
I1
sVsee
p63
I1
sVfull
p64
I1
sVpreaching
p65
I1
sVflavor
p66
I1
sVpopping
p67
I2
sVeven
p68
I2
sVleave
p69
I1
sVgon
p70
I1
sVblacks
p71
I2
sVgod
p72
I1
sVposse
p73
I10
sVshares
p74
I1
sVweapons
p75
I1
sVbehind
p76
I1
sVoooohhh
p77
I1
sVeliminate
p78
I1
sVabove
p79
I1
sVgot
p80
I3
sVcause
p81
I4
sVgathered
p82
I1
sVmovement
p83
I1
sVflurries
p84
I1
sVaint
p85
I1
sVfelons
p86
I1
sVeating
p87
I1
sVsmidget
p88
I1
sVwan
p89
I1
sVdevil
p90
I1
sVsold
p91
I1
sVpeeled
p92
I1
sVstory
p93
I1
sVpunks
p94
I1
sVheavens
p95
I1
sVdrug
p96
I1
sVdeath
p97
I1
sVpoverty
p98
I2
sVseparate
p99
I1
sVima
p100
I1
sVstrong
p101
I1
sVcome
p102
I2
sVthrow
p103
I1
sVrevolutionary
p104
I1
sVfeeling
p105
I1
sVahead
p106
I1
sVoh
p107
I1
sVcould
p108
I1
sVviolence
p109
I1
sVchance
p110
I1
sVscurry
p111
I1
sVlieing
p112
I1
sVshakur
p113
I1
sVscams
p114
I1
sVmisery
p115
I1
sVclips
p116
I1
sVlet
p117
I1
sVtheres
p118
I1
sVthink
p119
I1
sVfuckin
p120
I1
sVfirst
p121
I2
sVduke
p122
I1
sVdwelling
p123
I1
sVdont
p124
I1
sVburning
p125
I2
sVgrade
p126
I1
sVson
p127
I4
sVna
p128
I1
sVoppositions
p129
I1
sVchurch
p130
I1
sVpoor
p131
I1
sVstrapped
p132
I1
sVlittle
p133
I1
sVstatistics
p134
I1
sVpolitical
p135
I1
sVimperial
p136
I1
sVanyone
p137
I1
sVattack
p138
I1
sVdamn
p139
I1
sVslang
p140
I1
sVsuit
p141
I1
sVcuter
p142
I1
sVmeans
p143
I1
sVmothafuckas
p144
I1
sVuplifted
p145
I1
sVfiles
p146
I1
sVeyes
p147
I1
sVadamic
p148
I1
sVform
p149
I1
sVsilenced
p150
I1
sVstarted
p151
I1
sVbelieve
p152
I1
sVhurt
p153
I1
sVmillionth
p154
I1
sVtalents
p155
I1
sVopposing
p156
I1
sVhear
p157
I1
sVbaby
p158
I1
sVhurry
p159
I1
sVwhite
p160
I1
sV2pac
p161
I1
sVme
p162
I20
sVmade
p163
I1
sVmiddle
p164
I1
sVlook
p165
I2
sVniggas
p166
I6
sVride
p167
I1
sVcant
p168
I10
sVus
p169
I7
sVwar
p170
I1
sVyouth
p171
I1
sVdroppin
p172
I10
sVcovenant
p173
I1
sVuh
p174
I3
sVattention
p175
I1
sVstopping
p176
I1
sVmaking
p177
I1
sVbalance
p178
I1
sVcock
p179
I1
sVgunfire
p180
I1
sVhistory
p181
I1
sVgone
p182
I1
sVseven
p183
I1
sV30
p184
I1
sVappreciate
p185
I2
sVfloor
p186
I1
sVshare
p187
I1
sVlife
p188
I2
sVrip
p189
I1
sVstrain
p190
I1
sVsay
p191
I10
sVim
p192
I12
sVcans
p193
I1
sVwant
p194
I1
sVneed
p195
I2
sVplan
p196
I2
sVburried
p197
I1
sVshit
p198
I3
sVshirt
p199
I1
sVtupac
p200
I1
sVchiefing
p201
I1
sVpay
p202
I1
sVmake
p203
I1
sVgovernment
p204
I15
sVrebellion
p205
I1
sVfield
p206
I2
sVhot
p207
I1
sVamaru
p208
I1
sVdestroy
p209
I1
sVmotherfuckas
p210
I1
sVthug
p211
I1
sVsure
p212
I1
sVthough
p213
I1
sVwatch
p214
I11
sVmother
p215
I1
sVevil
p216
I11
sVstay
p217
I3
sVmac
p218
I1
sVmoving
p219
I1
sVmad
p220
I1
sVnever
p221
I2
sVcoming
p222
I2
sVsong
p223
I1
sVsix
p224
I1
sVsingle
p225
I1
sVman
p226
I1
sVpottery
p227
I1
sVhows
p228
I1
sVforever
p229
I1
sVland
p230
I1
sVgrams
p231
I1
sVpotters
p232
I2
sVshooter
p233
I1
sVstronger
p234
I1
sVdave
p235
I1
sVtrapped
p236
I1
sVtime
p237
I1
sVserious
p238
I1
sVbarrel
p239
I1
sVthats
p240
I1
sVlying
p241
I1
sVjack
p242
I1
s.