(dp1
Vgs
p2
I3
sVhelp
p3
I1
sVlyrics
p4
I2
sVfall
p5
I1
sVyall
p6
I1
sVrest
p7
I1
sVdose
p8
I1
sVproduced
p9
I1
sVdough
p10
I1
sVfarther
p11
I1
sVparticipate
p12
I1
sVtouch
p13
I1
sVfollow
p14
I2
sVfind
p15
I1
sVaint
p16
I9
sVnow
p17
I1
sVgold
p18
I1
sVtwentyfo
p19
I1
sVpen
p20
I1
sVitll
p21
I1
sVfather
p22
I1
sVyoung
p23
I4
sVsend
p24
I1
sVcrime
p25
I1
sVbetter
p26
I1
sVlets
p27
I1
sVparents
p28
I1
sVthose
p29
I1
sVfade
p30
I2
sVprison
p31
I1
sVlord
p32
I1
sVbout
p33
I1
sVta
p34
I4
sVgrip
p35
I2
sVdo
p36
I1
sVlonely
p37
I1
sVhit
p38
I1
sVlivin
p39
I10
sVyo
p40
I6
sVget
p41
I2
sVya
p42
I1
sVbig
p43
I1
sVwatch
p44
I3
sVfeelin
p45
I1
sVbreak
p46
I2
sVgame
p47
I2
sVknow
p48
I2
sVhands
p49
I1
sVworld
p50
I1
sVhollow
p51
I1
sVchips
p52
I1
sVds
p53
I1
sVghetto
p54
I1
sVwont
p55
I1
sVheaven
p56
I1
sVbrother
p57
I1
sVrider
p58
I1
sVleave
p59
I1
sVrobbery
p60
I1
sVside
p61
I1
sVtodays
p62
I1
sVem
p63
I2
sVnigga
p64
I1
sVten
p65
I1
sVhouse
p66
I1
sVsigns
p67
I1
sVback
p68
I1
sVgo
p69
I1
sVsee
p70
I2
sVcost
p71
I1
sVhell
p72
I1
sVhome
p73
I1
sVimpalas
p74
I1
sVenemies
p75
I1
sVeven
p76
I2
sVexplode
p77
I1
sVchildren
p78
I1
sVlights
p79
I1
sVfloss
p80
I1
sVskippin
p81
I1
sVgoes
p82
I1
sVheavenly
p83
I1
sVgot
p84
I4
sVpistol
p85
I1
sVdoin
p86
I1
sVred
p87
I1
sVshows
p88
I1
sVass
p89
I1
sVrun
p90
I1
sValarmin
p91
I1
sVnever
p92
I2
sVdisappeared
p93
I1
sVfeelings
p94
I1
sVpump
p95
I1
sVstep
p96
I1
sVlet
p97
I3
sVbrakes
p98
I1
sVput
p99
I2
sVpeep
p100
I1
sVstrong
p101
I1
sVbleed
p102
I3
sVchange
p103
I1
sVfoes
p104
I3
sVsearch
p105
I1
sVg
I2
sVsimilar
p106
I1
sVgivin
p107
I1
sVviolence
p108
I1
sVraisin
p109
I1
sVchoke
p110
I1
sVdrug
p111
I1
sVkeep
p112
I2
sVchevy
p113
I1
sVturn
p114
I1
sVseeds
p115
I1
sVplus
p116
I2
sVdue
p117
I1
sVthreat
p118
I1
sVgunfire
p119
I1
sVswallow
p120
I1
sVadolescents
p121
I1
sVthats
p122
I1
sVfeed
p123
I1
sVdippin
p124
I1
sVlove
p125
I1
sVfroze
p126
I1
sVlords
p127
I1
sVone
p128
I1
sVmomma
p129
I1
sVsmaller
p130
I1
sVbitch
p131
I1
sVrespect
p132
I1
sVtools
p133
I1
sVtomorrow
p134
I2
sVmillions
p135
I1
sVyourself
p136
I1
sVuse
p137
I1
sVkillin
p138
I1
sVtakes
p139
I4
sVwould
p140
I2
sVjewelsl
p141
I1
sVthree
p142
I1
sVfast
p143
I1
sVthrow
p144
I1
sVstuck
p145
I1
sVtrigger
p146
I1
sVrates
p147
I1
sVlot
p148
I1
sVphones
p149
I1
sVtryin
p150
I1
sVtell
p151
I1
sVhoe
p152
I1
sVmurder
p153
I1
sVway
p154
I1
sVtrapped
p155
I1
sVbecomes
p156
I1
sVhomies
p157
I2
sVprotect
p158
I1
sVogs
p159
I1
sVfools
p160
I2
sVboys
p161
I1
sVnobodys
p162
I1
sVhear
p163
I1
sVchild
p164
I1
sV2pac
p165
I1
sVme
p166
I2
sVcar
p167
I1
sVride
p168
I1
sVus
p169
I1
sVair
p170
I1
sVyouth
p171
I1
sVstreet
p172
I1
sVnine
p173
I1
sVloves
p174
I1
sVheyy
p175
I1
sVgrass
p176
I1
sVdidnt
p177
I1
sVmo
p178
I1
sVgone
p179
I1
sVseven
p180
I1
sVjohnny
p181
I1
sVgive
p182
I1
sVtoss
p183
I1
sVlife
p184
I6
sVtonight
p185
I1
sVcant
p186
I1
sVright
p187
I1
sVclose
p188
I1
sVnation
p189
I2
sVbusta
p190
I1
sVshit
p191
I1
sVrescue
p192
I1
sVwalkin
p193
I1
sVthugs
p194
I1
sVsippin
p195
I1
sVsoak
p196
I1
sVcheck
p197
I1
sVmake
p198
I4
sVid
p199
I1
sVtil
p200
I1
sVrules
p201
I1
sVpac
p202
I1
sVtake
p203
I1
sVoppose
p204
I1
sVyou
p205
I2
sVout
p206
I1
sVtapped
p207
I1
sVtalkin
p208
I1
sVblue
p209
I1
sVintend
p210
I1
sVstop
p211
I1
sVsacrifice
p212
I1
sVenter
p213
I1
sVflossin
p214
I1
sVhand
p215
I1
sVclass
p216
I1
sVstarin
p217
I1
sVjealous
p218
I1
sVlaw
p219
I1
sVfriends
p220
I1
sVgrow
p221
I1
sVreappeared
p222
I1
sVread
p223
I1
sVindustry
p224
I1
sVtime
p225
I1
sVdos
p226
I1
sVpulled
p227
I1
sVthinkin
p228
I1
sVgreed
p229
I1
sVwine
p230
I1
s.