(dp1
Vtodays
p2
I1
sVlyrics
p3
I2
sVyea
p4
I1
sVgang
p5
I1
sVshake
p6
I1
sVgo
p7
I2
sVhell
p8
I1
sVmill
p9
I2
sVstill
p10
I5
sVmister
p11
I1
sVlmnop
p12
I1
sVaint
p13
I2
sVdeath
p14
I1
sVcuppard
p15
I1
sVla
p16
I1
sVscreaming
p17
I1
sVdick
p18
I1
sVcuz
p19
I1
sVcrew
p20
I1
sVsportin
p21
I1
sVjam
p22
I1
sVpussy
p23
I2
sVeast
p24
I2
sVmidwest
p25
I1
sVgave
p26
I1
sVfool
p27
I1
sVshoot
p28
I1
sVgood
p29
I1
sVcackies
p30
I1
sVyo
p31
I2
sVget
p32
I2
sVya
p33
I11
sVbid
p34
I1
sVcoast
p35
I1
sVheard
p36
I1
sVyeppie
p37
I2
sVlittle
p38
I1
sVlady
p39
I1
sVday
p40
I1
sVbigger
p41
I1
sVtrippin
p42
I1
sVdoggy
p43
I4
sVlike
p44
I3
sVchronic
p45
I1
sVdie
p46
I1
sVfag
p47
I1
sVtry
p48
I2
sVp
I1
sValways
p49
I2
sVwent
p50
I1
sVside
p51
I2
sVyippie
p52
I2
sVmean
p53
I1
sVem
p54
I2
sVnigga
p55
I11
sVold
p56
I1
sVanother
p57
I1
sVpeople
p58
I1
sVback
p59
I2
sVup
p60
I1
sVgangster
p61
I1
sVvanwinkle
p62
I1
sVez
p63
I1
sV86
p64
I1
sVgon
p65
I2
sVsleepin
p66
I1
sVheres
p67
I1
sVwow
p68
I4
sVgot
p69
I1
sVeazye
p70
I2
sVcause
p71
I1
sVbody
p72
I1
sVone
p73
I2
sVrun
p74
I3
sVwan
p75
I1
sVnever
p76
I5
sVmotherfucker
p77
I8
sVslammn
p78
I1
sVwussy
p79
I1
sVlet
p80
I2
sVtrunk
p81
I1
sVsing
p82
I1
sVchange
p83
I1
sVon
p84
I2
sVg
I10
sVmasscara
p85
I1
sVrow
p86
I1
sVjoke
p87
I1
sVk
I1
sVpunk
p88
I2
sVyeeeeah
p89
I1
sVoccupation
p90
I1
sVbow
p91
I2
sVbecame
p92
I1
sVbone
p93
I1
sVsmoke
p94
I5
sVdogg
p95
I2
sVmakes
p96
I1
sVmotherfuckers
p97
I1
sVfuckin
p98
I2
sVfirst
p99
I1
sVsee
p100
I2
sVdont
p101
I2
sVpays
p102
I1
sVhey
p103
I1
sVsherm
p104
I1
sVset
p105
I2
sVbitch
p106
I4
sVbionic
p107
I1
sVloc
p108
I1
sVstory
p109
I1
sVsnoop
p110
I2
sVwest
p111
I1
sVthere
p112
I1
sVtwo
p113
I1
sVcall
p114
I2
sVyah
p115
I1
sVh
I1
sVtell
p116
I3
sVwoke
p117
I1
sV187
p118
I1
sVbitches
p119
I1
sVimpress
p120
I1
sVcant
p121
I1
sVfuck
p122
I3
sVstick
p123
I1
sVbroke
p124
I1
sVbaby
p125
I1
sVsmoking
p126
I1
sVsex
p127
I1
sVwith
p128
I1
sVme
p129
I2
sVstickin
p130
I1
sVballs
p131
I2
sVwore
p132
I1
sVniggas
p133
I3
sVride
p134
I2
sVj
I1
sVdingaling
p135
I1
sVlbc
p136
I1
sVniggaz
p137
I1
sVazy
p138
I1
sVnuthin
p139
I1
sVlisten
p140
I1
sVphillie
p141
I1
sVprankster
p142
I2
sVwearing
p143
I1
sVcrazy
p144
I1
sVwreckin
p145
I1
sVtoss
p146
I1
sVpass
p147
I1
sVsag
p148
I1
sVeazy
p149
I1
sVrip
p150
I1
sVchoke
p151
I1
sVlocs
p152
I1
sVsay
p153
I1
sVim
p154
I2
sVwant
p155
I1
sVthroat
p156
I1
sVshit
p157
I2
sVwuffin
p158
I1
sVna
p159
I3
sVmake
p160
I2
sVnuts
p161
I4
sVneed
p162
I1
sVbook
p163
I1
sVlip
p164
I1
sVmotherfuckin
p165
I2
sVcling
p166
I1
sVtest
p167
I1
sVpuppy
p168
I1
sVblunt
p169
I1
sVtalkin
p170
I1
sVpint
p171
I1
sVplay
p172
I1
sVslippin
p173
I1
sVswing
p174
I1
sVflossin
p175
I1
sVhand
p176
I1
sVpumps
p177
I1
sVwater
p178
I1
sVphase
p179
I1
sVsuck
p180
I4
sVman
p181
I1
sVyeah
p182
I1
sVe
I3
sVdre
p183
I4
sVwell
p184
I3
sVswitch
p185
I1
sVtha
p186
I3
sVsteathoscope
p187
I1
sVcpt
p188
I1
sVtrooper
p189
I1
sVtalk
p190
I1
s.