(dp1
Vright
p2
I1
sVlyrics
p3
I2
sVanyway
p4
I1
sVyears
p5
I2
sVhahahahah
p6
I2
sVim
p7
I1
sVsomething
p8
I1
sVwant
p9
I1
sVfucker
p10
I1
sVhome
p11
I1
sVcouldnt
p12
I1
sVeverybody
p13
I1
sVthought
p14
I1
sVbuddy
p15
I4
sVdick
p16
I1
sVhey
p17
I3
sV5150hahahahah
p18
I1
sVsick
p19
I1
sVgot
p20
I1
sVeazye
p21
I1
sVpisp
p22
I2
sVfucka
p23
I2
sVya
p24
I1
sVevil
p25
I2
sVmutha
p26
I3
sVnew
p27
I2
sVhahahahahah
p28
I1
sVeat
p29
I1
sVboy
p30
I2
sVhahahahahahahaha
p31
I1
sVstupid
p32
I1
sVhahahahahahahahahahahahahahaahahahahahahahahaa
p33
I1
sVbaaaaaaack
p34
I1
sVhahahah
p35
I1
sVtha
p36
I2
sVknow
p37
I2
s.