(dp1
Vthings
p2
I1
sVoutta
p3
I1
sVlyrics
p4
I2
sVya
p5
I1
sVgoodie
p6
I1
sVbring
p7
I1
sVsay
p8
I1
sVus
p9
I3
sVsense
p10
I1
sVpieced
p11
I1
sVdevil
p12
I1
sVgod
p13
I1
sVeverything
p14
I1
sVway
p15
I3
sVsave
p16
I1
sVyaknowhatimsayin
p17
I2
sVdo
p18
I1
sVeyes
p19
I1
sVworkin
p20
I1
sVopening
p21
I1
sVsomething
p22
I1
sVknew
p23
I1
sVevil
p24
I2
sVhelping
p25
I1
sVunderstand
p26
I3
sVkinda
p27
I2
sVmob
p28
I1
sVtrying
p29
I1
sVman
p30
I1
sVknowhatimsayin
p31
I2
sVmade
p32
I1
sVceelo
p33
I2
sVtogether
p34
I1
sVbad
p35
I2
sVsupposed
p36
I1
sVwhatimsayin
p37
I2
sVcrackers
p38
I1
sVmean
p39
I2
s.