(dp1
Vsaying
p2
I3
sVugh
p3
I1
sVlyrics
p4
I2
sVtext
p5
I1
sVhadnt
p6
I1
sVwifey
p7
I1
sVgo
p8
I2
sVkanye
p9
I1
sVstill
p10
I1
sVfind
p11
I1
sVcut
p12
I4
sVdick
p13
I1
sVrihanna
p14
I3
sVgoing
p15
I1
sVbout
p16
I4
sVmight
p17
I1
sVquarterbrick
p18
I1
sVdo
p19
I1
sVget
p20
I2
sVwoulda
p21
I1
sVknow
p22
I6
sVhalf
p23
I1
sVfront
p24
I3
sVnow
p25
I1
sVlike
p26
I6
sVlost
p27
I1
sVforth
p28
I1
sVstupid
p29
I6
sVside
p30
I1
sVem
p31
I1
sVnigga
p32
I4
sVdeal
p33
I2
sVtired
p34
I1
sVfucking
p35
I1
sVback
p36
I4
sVsex
p37
I1
sVtouch
p38
I2
sVhoes
p39
I3
sVeven
p40
I3
sVnew
p41
I3
sVcause
p42
I2
sVass
p43
I1
sVchose
p44
I1
sVgot
p45
I1
sVnever
p46
I2
sVhere
p47
I1
sVlet
p48
I1
sVask
p49
I1
sVcome
p50
I1
sVthirty
p51
I1
sVtimes
p52
I1
sVplace
p53
I1
sVbet
p54
I4
sVact
p55
I3
sVthink
p56
I1
sVthats
p57
I2
sVdont
p58
I9
sVdown
p59
I1
sVright
p60
I1
sVdone
p61
I1
sVbitch
p62
I13
sVanother
p63
I1
sVtrust
p64
I1
sVquit
p65
I2
sVbathroom
p66
I4
sVaye
p67
I1
sVwest
p68
I1
sVtoo
p69
I1
sVbruh
p70
I1
sVbrick
p71
I1
sVtell
p72
I3
sVtryna
p73
I2
sVcelibate
p74
I1
sVtested
p75
I1
sVho
p76
I2
sVbroke
p77
I1
sVbaby
p78
I1
sVprobably
p79
I1
sVmust
p80
I1
sVahead
p81
I1
sVniggas
p82
I1
sVsay
p83
I1
sVus
p84
I1
sVpiece
p85
I1
sVdidnt
p86
I1
sVsucka
p87
I1
sVcatch
p88
I1
sVcrazy
p89
I1
sVthirsty
p90
I1
sVis
p91
I1
sVmind
p92
I1
sVfuck
p93
I2
sVheard
p94
I1
sVcant
p95
I6
sVim
p96
I3
sVneed
p97
I2
sVshit
p98
I4
sVsit
p99
I2
sVlit
p100
I1
sVyou
p101
I1
sVtalkin
p102
I1
sVbitches
p103
I5
sVthough
p104
I6
sVmidas
p105
I2
sVfucked
p106
I5
sVsuck
p107
I1
sVwhy
p108
I8
sVgutter
p109
I1
sVlight
p110
I1
sVwell
p111
I1
sVfighting
p112
I1
sVplaying
p113
I2
sVmother
p114
I1
sVorder
p115
I1
s.