(dp1
Vny
p2
I1
sVboos
p3
I1
sVlyrics
p4
I2
sVyea
p5
I2
sVmoney
p6
I1
sVhands
p7
I2
sVlabels
p8
I1
sVyall
p9
I1
sVpsyche
p10
I1
sVidols
p11
I1
sVclocks
p12
I2
sVgetcho
p13
I1
sVgo
p14
I4
sVkanye
p15
I1
sVrewarded
p16
I1
sVstill
p17
I1
sVfeat
p18
I1
sVfictional
p19
I1
sVislam
p20
I1
sVaint
p21
I2
sVnumber
p22
I3
sVpope
p23
I1
sVjay
p24
I1
sVrose
p25
I1
sVdick
p26
I1
sVyoung
p27
I1
sVrumors
p28
I1
sVto
p29
I2
sVsomethin
p30
I1
sVhey
p31
I3
sVboard
p32
I1
sVdance
p33
I1
sVwhooo
p34
I1
sVours
p35
I1
sVbout
p36
I2
sVmight
p37
I1
sVover
p38
I1
sVmaybach
p39
I1
sVta
p40
I3
sVfly
p41
I1
sVsunglasses
p42
I1
sVcaint
p43
I1
sVbeotches
p44
I1
sVbig
p45
I1
sVcouple
p46
I1
sVstop
p47
I6
sVhate
p48
I1
sVfeelin
p49
I1
sVshoot
p50
I1
sVpictures
p51
I1
sVknow
p52
I7
sVmom
p53
I1
sVgot
p54
I10
sVmisuse
p55
I1
sVworld
p56
I2
sVem
p57
I6
sVwalk
p58
I1
sVcontinued
p59
I1
sVnet
p60
I1
sVprojects
p61
I1
sVtrippin
p62
I3
sVlike
p63
I3
sVlost
p64
I2
sVrhymin
p65
I1
sVplayin
p66
I1
sVyeaeah
p67
I6
sVdrop
p68
I3
sVmichael
p69
I1
sVbrother
p70
I1
sVgave
p71
I1
sVacross
p72
I1
sVwit
p73
I1
sVlosers
p74
I1
sVtruth
p75
I2
sVlose
p76
I1
sVbecome
p77
I1
sVgrab
p78
I1
sVehay
p79
I4
sVfuturistic
p80
I1
sVmean
p81
I1
sVye
p82
I5
sVass
p83
I2
sVbars
p84
I1
sVright
p85
I1
sVcrowd
p86
I1
sVpeople
p87
I5
sVbacon
p88
I1
sVback
p89
I2
sVdonny
p90
I1
sVsee
p91
I5
sVcost
p92
I1
sVdope
p93
I1
sVniggaz
p94
I1
sVgoin
p95
I1
sVhell
p96
I1
sVrun
p97
I1
sVair
p98
I1
sVtalkin
p99
I1
sVhit
p100
I1
sVeven
p101
I2
sVliving
p102
I1
sVgon
p103
I5
sVhuuuh
p104
I1
sVexcuse
p105
I1
sVnailed
p106
I1
sVwheaties
p107
I1
sVeverytime
p108
I1
sVlooking
p109
I1
sVeverything
p110
I1
sVeating
p111
I1
sVgoes
p112
I1
sVnew
p113
I2
sVnaaaaah
p114
I1
sVyoull
p115
I1
sVrappers
p116
I1
sVdunk
p117
I1
sVima
p118
I2
sVnotice
p119
I1
sVkorea
p120
I1
sViran
p121
I1
sVbombs
p122
I1
sVpower
p123
I23
sVdrinkin
p124
I1
sVseconds
p125
I1
sVwhooooooo
p126
I1
sVtripin
p127
I1
sVboss
p128
I1
sVhours
p129
I2
sVcoat
p130
I1
sVgreedy
p131
I1
sVask
p132
I2
sVburned
p133
I1
sViraq
p134
I1
sVcome
p135
I1
sVlegend
p136
I1
sVwait
p137
I1
sVplug
p138
I1
sVon
p139
I2
sVsearch
p140
I1
sVol
p141
I1
sVlast
p142
I1
sVpoke
p143
I1
sVanything
p144
I1
sVoh
p145
I19
sVbop
p146
I1
sVafterwarrrrrds
p147
I1
sVprove
p148
I1
sVkeep
p149
I3
sVthing
p150
I1
sVamerican
p151
I1
sVimportant
p152
I1
sVplace
p153
I2
sVclap
p154
I12
sVlookin
p155
I2
sVact
p156
I1
sVyeezy
p157
I3
sVwhole
p158
I3
sVthink
p159
I2
sVthats
p160
I3
sVnumbs
p161
I1
sVflies
p162
I1
sValready
p163
I1
sVdont
p164
I4
sVjeff
p165
I1
sVfeel
p166
I1
sVpussy
p167
I1
sVassalaamsalam
p168
I1
sVprivate
p169
I1
sVone
p170
I12
sVelude
p171
I1
sVjayz
p172
I1
sVwhoaxl
p173
I1
sVawaaaaards
p174
I1
sVbitch
p175
I2
sVaway
p176
I1
sVshits
p177
I1
sVscrewin
p178
I1
sVfiction
p179
I1
sVfiji
p180
I1
sVstumble
p181
I1
sVvamanos
p182
I1
sVeverybody
p183
I3
sVwan
p184
I1
sVuse
p185
I1
sVvan
p186
I1
sVtroops
p187
I2
sVsecond
p188
I1
sVprophets
p189
I1
sVrhyme
p190
I1
sVwest
p191
I1
sVassalaam
p192
I1
sVquestion
p193
I1
sVvision
p194
I1
sVleast
p195
I1
sVnext
p196
I2
sVspaz
p197
I1
sVshowin
p198
I1
sVcamera
p199
I1
sVstorm
p200
I1
sVworlds
p201
I1
sVtiming
p202
I1
sVmeans
p203
I1
sVjohn
p204
I1
sVtell
p205
I2
sVwants
p206
I1
sVlife
p207
I3
sVfamilies
p208
I1
sVbooooards
p209
I1
sVhathaway
p210
I1
sVsilenced
p211
I1
sVclub
p212
I1
sVeyyyeaaaah
p213
I1
sVsound
p214
I1
sVsaid
p215
I2
sVhuh
p216
I6
sVtook
p217
I1
sVit
p218
I6
sV31st
p219
I1
sVgettin
p220
I2
sVhear
p221
I1
sVgogh
p222
I1
sVtrying
p223
I1
sVcmon
p224
I3
sVbefo
p225
I1
sVbulletproof
p226
I1
sVchill
p227
I8
sVcount
p228
I2
sVchristmas
p229
I1
sVb
I1
sVhour
p230
I2
sVniggas
p231
I1
sVthis
p232
I1
sVphotos
p233
I1
sVhomey
p234
I1
sVsay
p235
I2
sVus
p236
I4
sVprayin
p237
I1
sVrecording
p238
I1
sVrecord
p239
I1
sVtickin
p240
I2
sVcrucifixion
p241
I1
sVflex
p242
I1
sVbring
p243
I1
sVjordan
p244
I2
sVsister
p245
I2
sVhater
p246
I1
sVdidnt
p247
I1
sVcould
p248
I1
sVwhoo
p249
I2
sVpenthouse
p250
I1
sVive
p251
I1
sVcrazy
p252
I5
sVtaylor
p253
I1
sVclose
p254
I1
sVcentury
p255
I1
sVshowtime
p256
I1
sVhalf
p257
I1
sVsunroof
p258
I1
sVfuck
p259
I3
sVwatches
p260
I1
sVcant
p261
I1
sVslam
p262
I1
sVim
p263
I10
sVdre
p264
I1
sVwant
p265
I1
sValaikum
p266
I2
sVay
p267
I4
sVseen
p268
I2
sVbeatz
p269
I1
sVtrip
p270
I1
sVshit
p271
I4
sVgrown
p272
I2
sVjacket
p273
I1
sVend
p274
I2
sVyo
p275
I2
sVdishes
p276
I1
sVjigga
p277
I1
sVlil
p278
I2
sVna
p279
I1
sVget
p280
I7
sVcross
p281
I1
sVramadon
p282
I1
sVtil
p283
I1
sVimmune
p284
I1
sVnap
p285
I1
sVswift
p286
I1
sVtake
p287
I2
sVoscar
p288
I1
sVplates
p289
I1
sVyou
p290
I4
sVmayer
p291
I1
sVmailer
p292
I1
sVbein
p293
I1
sVgordon
p294
I1
sValbum
p295
I1
sVplay
p296
I1
sVpain
p297
I1
sVnorman
p298
I1
sVswizz
p299
I1
sVviral
p300
I1
sVwatch
p301
I1
sVdoin
p302
I2
sVwelcome
p303
I1
sVcali
p304
I2
sVaiyyo
p305
I1
sVhand
p306
I1
sVrumble
p307
I2
sVabuse
p308
I1
sVnigga
p309
I1
sVmuhfucker
p310
I2
sVgurls
p311
I1
sVprolly
p312
I1
sVsong
p313
I1
sVlap
p314
I1
sVeviction
p315
I1
sVman
p316
I13
sVyeah
p317
I1
sVforever
p318
I1
sVremix
p319
I2
sVcause
p320
I3
sVgive
p321
I1
sVchillchill
p322
I1
sVyaknahmtalkin
p323
I1
sVhome
p324
I1
sVmaybe
p325
I1
sVclear
p326
I1
sVsometimes
p327
I1
sVrule
p328
I1
sVthought
p329
I1
sVyeaeiyeaeiyeaeiyeaeiyeaaaaaaaeah
p330
I1
sVvietnam
p331
I1
sVjungle
p332
I1
sVtime
p333
I2
sVfive
p334
I1
sVfresh
p335
I1
sVfirst
p336
I1
sVdream
p337
I1
sVorder
p338
I1
s.