(dp1
Vall
p2
I1
sVlyrics
p3
I2
sVswitched
p4
I1
sVmoney
p5
I2
sVslippin\u2019
p6
I1
sVciroc
p7
I1
sVbaby
p8
I1
sVthrough
p9
I1
sVkanye
p10
I1
sVfear
p11
I1
sVstill
p12
I1
sV24
p13
I1
sVunhuh
p14
I1
sVmo\u2019
p15
I1
sVcoloring
p16
I1
sV23
p17
I1
sVit\u2019s
p18
I3
sVyoung
p19
I7
sVbetter
p20
I3
sVsippin\u2019
p21
I1
sVlate
p22
I1
sVriding
p23
I1
sVta
p24
I1
sVwearing
p25
I1
sVhit
p26
I2
sVfontaine
p27
I1
sVfar
p28
I1
sV92\u2019
p29
I1
sVknow
p30
I1
sVgot
p31
I2
sVbath
p32
I1
sVprime
p33
I2
sVlike
p34
I5
sVmiami
p35
I1
sVboost
p36
I1
sVmastered
p37
I1
sVnight
p38
I7
sVbasking
p39
I1
sVfound
p40
I1
sVpuff\u2019s
p41
I1
sVbleu
p42
I1
sVnigga
p43
I1
sVold
p44
I1
sVpeople
p45
I1
sVyeah
p46
I1
sVcall
p47
I1
sVgoose
p48
I1
sVyear
p49
I2
sVbeyond
p50
I1
sVbest
p51
I1
sVreally
p52
I2
sVtrippin\u2019
p53
I1
sVfountain
p54
I1
sVit
p55
I2
sVnew
p56
I1
sVchampagne
p57
I2
sV911
p58
I1
sVtold
p59
I1
sVcan\u2019t
p60
I1
sVrun
p61
I1
sVnever
p62
I2
sVmotherfucker
p63
I3
sV23\u2019s
p64
I1
sVsubtract
p65
I1
sVboy
p66
I1
sVcarried
p67
I1
sVace
p68
I1
sVcassius
p69
I1
sVturn
p70
I1
sVswear
p71
I1
sVyeezy
p72
I1
sVdimes
p73
I1
sVfirst
p74
I1
sVheaded
p75
I1
sVfloat
p76
I1
sVsocks
p77
I1
sVhome\u201d
p78
I1
sVjayz
p79
I1
sVfloors
p80
I1
sVstretched
p81
I1
sVlaugh
p82
I1
sV1st
p83
I1
sVsays
p84
I1
sVhovercraft
p85
I1
sVlime
p86
I1
sVwan
p87
I4
sVprimetime
p88
I7
sVwest
p89
I1
sVheights
p90
I1
sVlive
p91
I1
sV2
I1
sVmusic
p92
I1
sVdon\u2019t
p93
I2
sV6
I1
sVmean
p94
I2
sVdamn
p95
I2
sVbubble
p96
I1
sVback
p97
I1
sVlife
p98
I1
sVflight
p99
I1
sVon
p100
I1
sVclub
p101
I1
sVdion
p102
I1
sVnobody
p103
I1
sVhuh
p104
I6
sV96\u2019
p105
I1
sVmine
p106
I1
sVlanded
p107
I1
sVwarm
p108
I1
sVlives
p109
I1
sVbeat
p110
I2
sVline
p111
I1
sVdeuce
p112
I2
sVcolored
p113
I2
sVcase
p114
I1
sV15
p115
I1
sVniggas
p116
I1
sVlying
p117
I1
sVgrey
p118
I1
sVroof
p119
I1
sVyouth
p120
I1
sVgave
p121
I1
sVminutes
p122
I1
sVmarble
p123
I1
sVordered
p124
I1
sVgive
p125
I1
sVtaste
p126
I1
sVwell
p127
I1
sVmind
p128
I1
sVfuck
p129
I8
sVdoesn\u2019t
p130
I1
sVright
p131
I1
sV16\u2019s
p132
I1
sVwant
p133
I1
sVrib
p134
I1
sVfame
p135
I1
sVshit
p136
I2
sVdifferent
p137
I1
sV48
p138
I1
sVna
p139
I4
sV88\u2019
p140
I1
sV45
p141
I1
sV42
p142
I1
sV40
p143
I1
sVtil
p144
I1
sVstarted
p145
I1
sVphenom
p146
I1
sVstock
p147
I1
sVthat\u2019s
p148
I4
sVkill
p149
I1
sVooh
p150
I1
sVcoming
p151
I1
sVrolling
p152
I1
sV\u201cwhen
p153
I1
sVclass
p154
I1
sVcause
p155
I1
sVsoak
p156
I1
sVthird
p157
I1
sVwife
p158
I1
sVi\u2019m
p159
I7
sVlines
p160
I1
sVeon
p161
I1
sVgon\u2019
p162
I4
sVtext
p163
I1
sVadam
p164
I1
sVtime
p165
I2
sVmake
p166
I1
sVcame
p167
I1
sVlaws
p168
I1
s.