(dp1
Vaint
p2
I8
sVphi
p3
I4
sVmoney
p4
I3
sVdont
p5
I1
sVlyrics
p6
I2
sVget
p7
I1
sVwest
p8
I1
sVcars
p9
I3
sVniggas
p10
I1
sVskit
p11
I2
sVit
p12
I4
sVbuncha
p13
I1
sVcant
p14
I1
sV2
I2
sVhos
p15
I2
sVbroke
p16
I26
sVgot
p17
I13
sVkanye
p18
I1
sVspend
p19
I1
sVclothes
p20
I3
s.