(dp1
Vlyrics
p2
I2
sVmoney
p3
I2
sVroc
p4
I3
sVsurpass
p5
I1
sVhell
p6
I1
sVaint
p7
I2
sVcrew
p8
I2
sVbetter
p9
I1
sVactin
p10
I1
sVreal
p11
I1
sVaround
p12
I1
sVget
p13
I7
sVhaly
p14
I1
sVknow
p15
I3
sVmob
p16
I1
sVcool
p17
I1
sVsmash
p18
I1
sVschool
p19
I1
sVlike
p20
I3
sVever
p21
I1
sVgangsters
p22
I1
sVnight
p23
I1
sVwent
p24
I1
sVside
p25
I1
sVyall
p26
I1
sVnigga
p27
I2
sVneggle
p28
I1
sVsear
p29
I1
sV702
p30
I1
sVsee
p31
I2
sVkanye
p32
I4
sVreally
p33
I1
sVfucks
p34
I1
sVcell
p35
I1
sVnew
p36
I1
sVcause
p37
I2
sVpossies
p38
I1
sVbought
p39
I1
sVass
p40
I1
sVnahana
p41
I1
sVteam
p42
I1
sVhere
p43
I2
sVg
I1
sVjob
p44
I1
sVhostages
p45
I1
sVby
p46
I1
sVcare
p47
I1
sVdry
p48
I1
sVon
p49
I1
sVwouldnt
p50
I2
sVbarely
p51
I1
sVamerican
p52
I1
sVwhole
p53
I1
sVstrippers
p54
I1
sVdont
p55
I1
sVsweet
p56
I1
sVpop
p57
I1
sVone
p58
I2
sVduce
p59
I1
sVgiven
p60
I1
sVwest
p61
I1
sVcaught
p62
I1
sVgirls
p63
I3
sVfabolous
p64
I1
sVfast
p65
I1
sVfight
p66
I1
sVlive
p67
I1
sVdogs
p68
I1
sVlow
p69
I1
sVtell
p70
I1
sVlisten
p71
I1
sVblueprint
p72
I1
sVlife
p73
I1
sVboy
p74
I1
sVhotel
p75
I1
sVfuck
p76
I5
sVphone
p77
I1
sVlift
p78
I1
sVbroke
p79
I1
sVwith
p80
I1
sVme
p81
I1
sVhigh
p82
I1
sVnone
p83
I1
sVroom
p84
I1
sVthis
p85
I2
sVsay
p86
I1
sVwhoa
p87
I1
sVmeet
p88
I1
sVhip
p89
I1
sVgive
p90
I2
sVis
p91
I2
sVpass
p92
I1
sVoha
p93
I1
sVtonight
p94
I1
sVcant
p95
I1
sVim
p96
I1
sVshit
p97
I2
sVlivin
p98
I2
sVbottles
p99
I1
sVostriches
p100
I1
sVhop
p101
I1
sVyou
p102
I1
sVnice
p103
I1
sVplay
p104
I1
sVmodels
p105
I2
sVbrainshot
p106
I1
sVlay
p107
I1
sVgetten
p108
I1
sVlobby
p109
I1
sVman
p110
I1
sVneck
p111
I1
sVcrowded
p112
I1
sVwell
p113
I1
sVthought
p114
I1
sVupperclass
p115
I1
sVdream
p116
I2
sVcame
p117
I1
sVleft
p118
I1
s.