(dp1
Vammo
p2
I1
sVlistening
p3
I1
sVlyrics
p4
I2
sVshow
p5
I1
sVdepends
p6
I1
sVmoney
p7
I6
sVkilt
p8
I1
sVprynce
p9
I1
sVraekwon
p10
I1
sVcrotches
p11
I1
sVfour
p12
I1
sVkill
p13
I1
sVfoggy
p14
I1
sVkanye
p15
I1
sVrough
p16
I1
sVstill
p17
I1
sVfeat
p18
I1
sVits
p19
I1
sVhounded
p20
I1
sVblow
p21
I1
sVock
p22
I1
sVhaters
p23
I2
sVbaltimore
p24
I1
sV21
p25
I1
sVcall
p26
I1
sVwon\u2019t
p27
I1
sVit\u2019s
p28
I1
sVsky
p29
I1
sVpushing
p30
I1
sVlate
p31
I1
sVstutterin\u2019
p32
I2
sVbush
p33
I1
sVblack
p34
I1
sVrich
p35
I1
sVfolks
p36
I1
sVsiblings
p37
I1
sVgangsta
p38
I1
sVwould\u2019ve
p39
I1
sVevenin\u2019
p40
I1
sVhope
p41
I1
sV\u2018ye
p42
I1
sVplate
p43
I1
sVgood
p44
I2
sVfallin\u2019
p45
I1
sVdoors
p46
I1
sVyo
p47
I3
sVget
p48
I2
sVi\u2019m
p49
I5
sVdollar
p50
I1
sVspell
p51
I1
sVstop
p52
I1
sVlet\u2019s
p53
I1
sVchiefin
p54
I1
sVgame
p55
I1
sVmade
p56
I2
sVclusterfucks
p57
I1
sVrest
p58
I1
sVknot
p59
I1
sVwings
p60
I1
sVlike
p61
I3
sVcooks
p62
I1
sVammunition
p63
I1
sVbaking
p64
I1
sVcyhi
p65
I1
sVgift
p66
I1
sVever
p67
I1
sVwait
p68
I1
sVmorning
p69
I3
sVashes
p70
I2
sVfake
p71
I1
sVrace
p72
I2
sVcommon
p73
I2
sVrock
p74
I2
sVshows
p75
I1
sVinside
p76
I1
sVadded
p77
I1
sVmean
p78
I2
sVbody
p79
I2
sVnigga
p80
I5
sVcher
p81
I1
sVpeople
p82
I4
sVilluminati
p83
I3
sVchurch
p84
I1
sVback
p85
I2
sVfreeze
p86
I1
sVpusha
p87
I1
sVborn
p88
I1
sVsee
p89
I5
sVsittin\u2019and
p90
I1
sV\u2018\u2019what
p91
I1
sVgave
p92
I1
sVyellin\u2019
p93
I1
sVchicken
p94
I1
sVbest
p95
I1
sVreally
p96
I1
sVmist
p97
I1
sVgraveyard
p98
I1
sVfor
p99
I1
sVcarts
p100
I1
sVgod
p101
I5
sVlabel
p102
I1
sVflippin\u2019
p103
I1
sVmischievous
p104
I1
sVchainz
p105
I3
sVprops
p106
I1
sVit
p107
I1
sVgot
p108
I1
sVhustla
p109
I1
sVcause
p110
I1
sVexcept
p111
I1
sVbarbeque
p112
I1
sVscenery
p113
I1
sVnever
p114
I2
sVrun
p115
I1
sVdirt
p116
I1
sVcars
p117
I1
sVsold
p118
I3
sVburn
p119
I2
sVo\u2019s
p120
I1
sVguess
p121
I1
sVblame
p122
I1
sVbusy
p123
I1
sVlet
p124
I2
sVpistol
p125
I1
sVpull
p126
I2
sVdons
p127
I1
sVcome
p128
I1
sVcard
p129
I1
sVlivin\u2019
p130
I1
sVgolly
p131
I1
sVyelling
p132
I1
sVflames
p133
I1
sVgetting
p134
I4
sVcould
p135
I3
sVkeep
p136
I1
sVtippytoe
p137
I1
sVpockets
p138
I1
sVclothes
p139
I3
sVmakes
p140
I1
sVthink
p141
I2
sVblock
p142
I1
sVfirst
p143
I1
sVchillin\u2019
p144
I1
sVdbanj
p145
I1
sVlove
p146
I2
sVfeelin\u2019
p147
I3
sVspliff
p148
I1
sVmakin\u2019
p149
I1
sVfeel
p150
I1
sVgirls
p151
I1
sVkmart
p152
I1
sVjeans
p153
I1
sVsolitaires
p154
I1
sVcrib
p155
I1
sVone
p156
I1
sVnothing
p157
I2
sVtickelin\u2019
p158
I1
sVanother
p159
I3
sVguap
p160
I1
sVart
p161
I1
sVgivin\u2019em
p162
I1
sVtrust
p163
I2
sVarmed
p164
I1
sVwan
p165
I2
sVup\u2019\u2019
p166
I1
sVsonny
p167
I1
sVeye
p168
I1
sVtryin\u2019
p169
I1
sVwould
p170
I1
sVshack
p171
I1
sVwest
p172
I1
sVtop
p173
I3
sVillustrious
p174
I1
sVsoul
p175
I4
sVlong
p176
I1
sVmark
p177
I1
sV\u2018rari
p178
I1
sV2
I3
sVmusic
p179
I1
sVtreat
p180
I1
sVstatement
p181
I1
sVbruh
p182
I1
sVdamn
p183
I2
sVwhite
p184
I1
sVkid
p185
I2
sVwar
p186
I2
sV500
p187
I1
sVlife
p188
I1
sVhug
p189
I1
sVnickel
p190
I1
sVcan\u2019t
p191
I2
sV\u2018cause
p192
I1
sVgrabbing
p193
I1
sVmad
p194
I2
sVpark
p195
I1
sVfuck
p196
I1
sVstill\u2019ve
p197
I1
sVar
p198
I1
sVhear
p199
I1
sVcatch
p200
I1
sVsmoking
p201
I1
sVdeuce
p202
I2
sVbought
p203
I1
sVcheatin\u2019
p204
I1
sVchef
p205
I1
sVlegs
p206
I1
sV15
p207
I1
sVwhisperin\u2019
p208
I1
sVniggas
p209
I2
sVmuster
p210
I1
sVwish
p211
I1
sVain\u2019t
p212
I1
sVup
p213
I1
sVus
p214
I3
sVcost
p215
I1
sVdem
p216
I1
sVzuckerbergs
p217
I1
sVsituation
p218
I1
sVvoice
p219
I1
sVsomething
p220
I2
sVclaim
p221
I1
sVaw
p222
I2
sVlambo
p223
I1
sVi\u2019d
p224
I2
sVflow
p225
I1
sVmine
p226
I1
sVwatches
p227
I1
sVcluster
p228
I1
sVsay
p229
I1
sVglock
p230
I1
sVperformed
p231
I1
sVwant
p232
I1
sVin
p233
I2
sVay
p234
I2
sVmrs
p235
I1
sVshit
p236
I2
sVcar
p237
I1
sVsell
p238
I1
sVagain
p239
I2
sVbuilt
p240
I1
sVna
p241
I2
sVmake
p242
I1
sVsix
p243
I1
sVwhen
p244
I1
sVlogo\u2019s
p245
I1
sVnah
p246
I1
sVshit\u2019s
p247
I1
sVpitchin\u2019
p248
I1
sVnaw
p249
I1
sVcling
p250
I1
sVbetter
p251
I1
sVtest
p252
I1
sVcamo
p253
I1
sVsmell
p254
I1
sVchannel
p255
I1
sVdevelopment
p256
I1
sVstaying
p257
I1
sVexpress
p258
I1
sVtil\u2019
p259
I1
sVbrothers
p260
I1
sVflip
p261
I1
sVknew
p262
I1
sVvicious
p263
I1
sVchristening
p264
I1
sVsaid
p265
I1
sVdelicate
p266
I1
sVletter
p267
I1
sVposition
p268
I1
sVdust
p269
I2
sVhair
p270
I1
sVfeelin
p271
I1
sVfriends
p272
I1
sVman
p273
I4
sVyeah
p274
I4
sVcountin\u2019
p275
I1
sVcalls
p276
I1
sVamerican
p277
I1
sVwell
p278
I2
sVfrontin\u2019
p279
I2
sVcudi
p280
I1
sVswitch
p281
I1
sVwithout
p282
I1
sVgreen
p283
I1
sVmachinery
p284
I1
sVpush
p285
I2
sVknotty
p286
I1
sVcorporate
p287
I1
sVgon\u2019
p288
I1
sVknow
p289
I3
s.