(dp1
Vlighter
p2
I1
sVlyrics
p3
I2
sVblessin
p4
I1
sVvowels
p5
I1
sVsleep
p6
I3
sVkeyboard
p7
I1
sVgo
p8
I5
sVkanye
p9
I3
sVstill
p10
I1
sVaint
p11
I1
sVsunsets
p12
I1
sVproducer
p13
I1
sVla
p14
I1
sVwriter
p15
I1
sVcayenne
p16
I1
sVbetter
p17
I2
sVbrighter
p18
I1
sVjam
p19
I1
sVgon
p20
I1
sVlord
p21
I1
sVbout
p22
I1
sVtake
p23
I1
sVyo
p24
I1
sVget
p25
I1
sVya
p26
I1
sVstop
p27
I1
sVkayne
p28
I2
sVrighter
p29
I1
sVfeels
p30
I1
sVevery
p31
I1
sVknow
p32
I5
sVthey
p33
I1
sVnow
p34
I2
sVtowel
p35
I1
sVlike
p36
I5
sVlost
p37
I1
sValways
p38
I2
sVdrop
p39
I1
sVrapper
p40
I1
sVholdin
p41
I1
sVwent
p42
I1
sVwrote
p43
I1
sVyeah
p44
I1
sVsee
p45
I1
sVcost
p46
I1
sVvideo
p47
I1
sVrhymes
p48
I1
sVhell
p49
I1
sVgirl
p50
I1
sVwire
p51
I4
sVjewelry
p52
I1
sVgod
p53
I2
sVsince
p54
I1
sVplease
p55
I3
sVmason
p56
I1
sVcrush
p57
I1
sVfloss
p58
I1
sVbogus
p59
I1
sVgot
p60
I4
sVcause
p61
I1
sVnotice
p62
I1
sVsixth
p63
I1
sVsold
p64
I1
sVlet
p65
I2
sVdedication
p66
I1
sValong
p67
I1
sVthrow
p68
I2
sVwall
p69
I1
sVthank
p70
I3
sVon
p71
I1
sVaccident
p72
I2
sVlast
p73
I2
sVwouldnt
p74
I2
sVcould
p75
I1
sVairport
p76
I1
sVheck
p77
I1
sVchi
p78
I1
sVwhole
p79
I1
sVfirst
p80
I2
sVnamed
p81
I1
sVdestination
p82
I1
sVwhats
p83
I1
sVdont
p84
I2
sVfeel
p85
I3
sVmomma
p86
I1
sV65
p87
I1
sVcomin
p88
I1
sVbeats
p89
I6
sVwould
p90
I1
sVwest
p91
I1
sVsupport
p92
I1
sVporsche
p93
I1
sVgirls
p94
I1
sVvacation
p95
I1
sVferris
p96
I1
sVmuch
p97
I2
sVcall
p98
I1
sVlot
p99
I1
sVman
p100
I7
sVfinal
p101
I1
sVlisten
p102
I1
sVstopped
p103
I1
sVspit
p104
I1
sVboy
p105
I1
sVsunshine
p106
I1
sVpastor
p107
I1
sVfore
p108
I1
sVhear
p109
I1
sVdirected
p110
I1
sVrappin
p111
I1
sVlook
p112
I1
sVthis
p113
I2
sVsay
p114
I1
sVtellin
p115
I1
sVuh
p116
I2
sVmr
p117
I1
sVcheeks
p118
I2
sVdef
p119
I1
sVhistory
p120
I1
sValmost
p121
I3
sVcept
p122
I1
sVraw
p123
I2
sVcant
p124
I1
sVim
p125
I4
sVwant
p126
I1
sVsense
p127
I1
sVtrip
p128
I1
sVdoctor
p129
I2
sVna
p130
I1
sVmic
p131
I1
sVpoetry
p132
I1
sVid
p133
I1
sVnaw
p134
I1
sVchitown
p135
I1
sVquote
p136
I1
sVpaid
p137
I2
sVhand
p138
I1
sVcouldve
p139
I1
sVplan
p140
I1
sVmustve
p141
I1
sVfeelin
p142
I1
sVpayment
p143
I1
sVdied
p144
I1
sVgoin
p145
I2
sVsomethin
p146
I1
sVremix
p147
I2
sVlight
p148
I1
sVsometimes
p149
I1
sVpictures
p150
I1
sVthats
p151
I1
s.