(dp1
Vsummer
p2
I1
sVstandin
p3
I1
sVstorytellin
p4
I2
sVlyrics
p5
I2
sVshow
p6
I1
sVyea
p7
I1
sVchillin
p8
I1
sVfour
p9
I3
sVgo
p10
I3
sVstill
p11
I1
sVhate
p12
I1
sVfind
p13
I1
sVrow
p14
I1
sVone
p15
I1
sVcut
p16
I2
sVnumber
p17
I1
sVspite
p18
I1
sVlights
p19
I1
sVhump
p20
I3
sVdancin
p21
I1
sVcrew
p22
I1
sVbetter
p23
I3
sVoclock
p24
I1
sVlets
p25
I2
sVbackseats
p26
I1
sVbout
p27
I1
sVcool
p28
I1
sVta
p29
I1
sVreal
p30
I1
sVdo
p31
I1
sVtreatin
p32
I1
sVsomebody
p33
I1
sVabove
p34
I1
sVget
p35
I3
sVya
p36
I1
sVhopin
p37
I1
sVsafe
p38
I1
sVrhyme
p39
I1
sVda
p40
I2
sVshoot
p41
I3
sVgame
p42
I3
sVfive
p43
I3
sVlegitimate
p44
I1
sVfront
p45
I1
sVnow
p46
I10
sVday
p47
I2
sVminute
p48
I1
sVname
p49
I1
sVschool
p50
I1
sVlike
p51
I15
sVlost
p52
I1
sVyawnin
p53
I1
sVmorning
p54
I1
sVnight
p55
I1
sVfound
p56
I1
sVwent
p57
I2
sVeighthundredforty
p58
I1
sVslummer
p59
I1
sVnigga
p60
I3
sVart
p61
I2
sVback
p62
I6
sVjada
p63
I1
sVsex
p64
I1
sVunderstood
p65
I1
sVsee
p66
I1
sVcost
p67
I1
sVcollege
p68
I1
sVparking
p69
I1
sVhome
p70
I1
sVarm
p71
I1
sVreally
p72
I1
sVdungeon
p73
I1
sVgon
p74
I2
sVfine
p75
I1
sVthough
p76
I1
sVeverything
p77
I1
sVlaid
p78
I1
sVplaya
p79
I1
sVscrewed
p80
I1
sVgot
p81
I5
sVcause
p82
I2
sVoutkast
p83
I1
sVnature
p84
I1
sVnever
p85
I1
sVsingin
p86
I1
sVwanted
p87
I2
sVdecatur
p88
I1
sVon
p89
I3
sVdaughter
p90
I1
sVwould
p91
I1
sVslayed
p92
I1
sVcoulda
p93
I1
sVmonths
p94
I1
sVllac
p95
I3
sVvillain
p96
I1
sVkosher
p97
I1
sVstarin
p98
I1
sVplus
p99
I1
sVdue
p100
I1
sVpick
p101
I1
sVthink
p102
I1
sVfuckin
p103
I1
sVwig
p104
I1
sVnamed
p105
I1
sVdickin
p106
I1
sVblown
p107
I1
sVghetto
p108
I1
sVmakin
p109
I1
sVcrib
p110
I1
sVcd
p111
I1
sVthisll
p112
I1
sVright
p113
I1
sVbitch
p114
I2
sVduck
p115
I1
sVwan
p116
I2
sVstory
p117
I3
sVstrong
p118
I1
sVsporty
p119
I1
sVher
p120
I2
sVskrew
p121
I2
sVcaught
p122
I1
sVthree
p123
I1
sVspots
p124
I1
sVgrow
p125
I1
sVcats
p126
I3
sVcall
p127
I2
sVtoo
p128
I1
sVway
p129
I1
sVtime
p130
I1
sVbullshit
p131
I1
sVthrew
p132
I1
sVeyes
p133
I1
sVlot
p134
I2
sVform
p135
I3
sVbeeped
p136
I2
sVneedle
p137
I1
sVpark
p138
I1
sVshorty
p139
I1
sVyeah
p140
I4
sVchonk
p141
I1
sVhmm
p142
I1
sVpart
p143
I2
sValive
p144
I1
sVbaby
p145
I3
sVfoggy
p146
I1
sVstars
p147
I1
sVweeks
p148
I1
sVme
p149
I2
sVmade
p150
I2
sVwearin
p151
I1
sVslumber
p152
I1
sVstraight
p153
I1
sVwork
p154
I1
sVthumper
p155
I3
sVup
p156
I2
sVmall
p157
I1
sVstreet
p158
I1
sVcurb
p159
I1
sVgave
p160
I1
sVgone
p161
I1
sVseven
p162
I1
sVmind
p163
I1
sVfuck
p164
I1
sVmiddle
p165
I1
sVsay
p166
I1
sVim
p167
I1
sVrap
p168
I3
sVgoodie
p169
I1
sVsharp
p170
I1
sVfeelin
p171
I1
sVskirt
p172
I1
sVhit
p173
I3
sVhoe
p174
I2
sVpartna
p175
I1
sVlil
p176
I2
sVthings
p177
I1
sVsong
p178
I1
sVparks
p179
I1
sV1
I2
sVtight
p180
I1
sVsick
p181
I1
sVposter
p182
I1
sVparty
p183
I1
sVtalkin
p184
I1
sVgrown
p185
I1
sVsuzy
p186
I3
sVaww
p187
I1
sVeggs
p188
I1
sVrendezvous
p189
I1
sVdarth
p190
I1
sVpaid
p191
I1
sVfayette
p192
I1
sVwrong
p193
I1
sVsaid
p194
I7
sVtwo
p195
I2
sVfucked
p196
I1
sVsasha
p197
I4
sVthe
p198
I3
sVdied
p199
I1
sVman
p200
I1
sVkept
p201
I1
sVremember
p202
I1
sVmaybe
p203
I1
sVlater
p204
I1
sVwell
p205
I1
sVlooked
p206
I1
sVmamma
p207
I3
sVdaver
p208
I1
sVna
p209
I4
sVbeamer
p210
I1
sVspend
p211
I1
sVcame
p212
I1
sVsnake
p213
I1
s.