(dp1
Vsweatin
p2
I1
sVinterpretation
p3
I1
sVlyrics
p4
I2
sVmoney
p5
I1
sVcharles
p6
I1
sVyears
p7
I1
sVfour
p8
I3
sVbring
p9
I1
sVlincolns
p10
I1
sVhauled
p11
I1
sVgo
p12
I3
sVfeat
p13
I1
sVtil
p14
I2
sVfeeding
p15
I1
sVoffice
p16
I1
sVcall
p17
I1
sVthang
p18
I1
sVtroubles
p19
I1
sVyoung
p20
I2
sVyams
p21
I1
sVlets
p22
I1
sVpresidential
p23
I1
sVengulfed
p24
I1
sVgangsta
p25
I1
sVmight
p26
I1
sVreal
p27
I1
sVbrown
p28
I2
sVdj
p29
I1
sVparcel
p30
I1
sVnestled
p31
I1
sVsong
p32
I1
sVchecking
p33
I1
sVdope
p34
I1
sVwatch
p35
I1
sVgame
p36
I1
sVmade
p37
I1
sVknow
p38
I1
sVcompeting
p39
I1
sVworld
p40
I1
sVone
p41
I2
sVday
p42
I1
sVblends
p43
I1
sVapiece
p44
I1
sVbeating
p45
I1
sVlike
p46
I4
sVpatrick
p47
I1
sVbowlegged
p48
I1
sVcloudy
p49
I1
sVheart
p50
I1
sVgamble
p51
I1
sVjames
p52
I1
sVwhere
p53
I1
sVyall
p54
I1
sVknowing
p55
I1
sVnigga
p56
I3
sVold
p57
I1
sVlulls
p58
I1
sVcrowd
p59
I1
sVpeople
p60
I1
sVliquor
p61
I1
sVhard
p62
I1
sVback
p63
I2
sVhair
p64
I1
sVclubs
p65
I1
sVservice
p66
I1
sVspottieottiedopalicious
p67
I3
sVclose
p68
I1
sVgirl
p69
I1
sVleanin
p70
I1
sVniggaville
p71
I1
sVlukewarm
p72
I1
sVmarinate
p73
I1
sVfine
p74
I2
sVthats
p75
I2
sVreminiscent
p76
I1
sV3
I1
sVwon
p77
I1
sVgoes
p78
I1
sVgot
p79
I1
sVthree
p80
I1
sVpiss
p81
I1
sVass
p82
I1
sVcore
p83
I1
sVmen
p84
I1
sVoutkast
p85
I1
sVplot
p86
I1
sVspot
p87
I1
sVnever
p88
I3
sVstallion
p89
I1
sVridin
p90
I1
sVmet
p91
I1
sVlet
p92
I1
sVfuck
p93
I1
sVpost
p94
I1
sVcomb
p95
I1
sVcome
p96
I2
sValmost
p97
I1
sVdaughter
p98
I1
sVwould
p99
I1
sValways
p100
I1
sVraisin
p101
I1
sVexperience
p102
I1
sVholyfield
p103
I1
sVthing
p104
I1
sVyoungn
p105
I1
sVenough
p106
I1
sVwhole
p107
I1
sVfrequent
p108
I1
sVfirst
p109
I2
sVvia
p110
I1
sVdont
p111
I1
sVextra
p112
I1
sVscene
p113
I1
sVdickie
p114
I1
sVset
p115
I1
sVparalyzed
p116
I1
sVanother
p117
I1
sVbooty
p118
I1
sVnext
p119
I1
sVspeak
p120
I1
sVwan
p121
I2
sVhorse
p122
I1
sVchiefed
p123
I1
sVusa
p124
I1
sVtogether
p125
I1
sVtop
p126
I1
sVneck
p127
I1
sVhey
p128
I2
sVfast
p129
I1
sVfight
p130
I1
sVstart
p131
I1
sVdamn
p132
I5
sVway
p133
I1
sVlullabies
p134
I1
sVhollywood
p135
I1
sVperfectly
p136
I1
sVsyrup
p137
I1
sVtell
p138
I1
sVmore
p139
I1
sVeyes
p140
I1
sVdoor
p141
I1
sVshorts
p142
I1
sVclub
p143
I1
sVmoved
p144
I1
sVsufficient
p145
I1
sVminute
p146
I1
sVtook
p147
I1
sVelse
p148
I1
sVfolks
p149
I1
sVdiscotech
p150
I1
sVbaby
p151
I2
sVatlanta
p152
I1
sVear
p153
I1
sVbout
p154
I1
sVwomen
p155
I1
sVgeorgia
p156
I1
sVlook
p157
I1
sVkarats
p158
I1
sVniggas
p159
I2
sVbiggas
p160
I1
sVsmooth
p161
I1
sVnappy
p162
I1
sVghettoes
p163
I1
sVnightlife
p164
I1
sVsweeter
p165
I1
sVoutdoors
p166
I1
sVwild
p167
I1
sVsituation
p168
I1
sVgives
p169
I1
sVdidnt
p170
I1
sVbeautiful
p171
I1
sVive
p172
I1
sVyoure
p173
I1
sVangel
p174
I1
sVplate
p175
I1
sVtaste
p176
I1
sVam
p177
I1
sVit
p178
I1
sVtrap
p179
I1
sVcant
p180
I2
sVright
p181
I1
sVo
I1
sVplayin
p182
I1
sVhandle
p183
I1
sVblindin
p184
I1
sVshit
p185
I2
sVif
p186
I1
sVfunny
p187
I1
sVunited
p188
I1
sVcourt
p189
I1
sVshirt
p190
I1
sVperhaps
p191
I1
sVna
p192
I2
sVtrapped
p193
I1
sVreminded
p194
I1
sVlit
p195
I1
sVhot
p196
I1
sVsomebodys
p197
I1
sVdickens
p198
I1
sVskates
p199
I1
sVparty
p200
I1
sVactuality
p201
I1
sVtalkin
p202
I2
sVlife
p203
I2
sVfelt
p204
I1
sVproblems
p205
I1
sVyesterday
p206
I1
sVmoment
p207
I2
sVtwo
p208
I1
sVsmelling
p209
I1
sVbeaming
p210
I1
sVman
p211
I1
sVe
I1
sVremember
p212
I1
sVboys
p213
I1
sVthickens
p214
I1
sVsometimes
p215
I1
sVwell
p216
I2
sVbustin
p217
I1
sVwalked
p218
I1
sVlil
p219
I3
sVsituations
p220
I1
sVclean
p221
I1
sVambulance
p222
I1
sVthe
p223
I1
sVleft
p224
I1
sVonce
p225
I1
s.