(dp1
Vset
p2
I1
sVlyrics
p3
I2
sVmeetings
p4
I1
sVpta
p5
I1
sVcommitted
p6
I1
sVhell
p7
I2
sVcold
p8
I1
sVhold
p9
I1
sVfolks
p10
I1
sVteam
p11
I1
sVbuild
p12
I1
sVreal
p13
I1
sVdo
p14
I1
sVsomebody
p15
I1
sVstring
p16
I1
sVsong
p17
I1
sVfood
p18
I1
sVbig
p19
I1
sVko
p20
I1
sVbreak
p21
I1
sVsuffering
p22
I1
sVsmash
p23
I1
sVlike
p24
I3
sVsofa
p25
I1
sVmarried
p26
I1
sVoooh
p27
I2
sVtold
p28
I1
sVround
p29
I1
sVsign
p30
I1
sVeveryone
p31
I1
sVold
p32
I1
sVhouse
p33
I2
sVenergy
p34
I1
sVcds
p35
I1
sVback
p36
I3
sVup
p37
I1
sVhome
p38
I2
sVfuss
p39
I1
sVcanvas
p40
I1
sVsaid
p41
I1
sVjackson
p42
I1
sVoutkast
p43
I1
sVfact
p44
I1
sVplease
p45
I1
sVpissed
p46
I1
sVarguing
p47
I1
sVbehind
p48
I1
sVgot
p49
I4
sVcause
p50
I1
sVwomb
p51
I1
sVpeek
p52
I1
sVends
p53
I1
sVescaping
p54
I1
sVparent
p55
I1
sVsold
p56
I1
sVattention
p57
I1
sVknocked
p58
I1
sValone
p59
I1
sVpath
p60
I1
sVbeginning
p61
I1
sVprincess
p62
I1
sVchange
p63
I1
sVluther
p64
I1
sVdaughter
p65
I2
sVtapes
p66
I1
sVparrty
p67
I1
sVminds
p68
I1
sVkeep
p69
I1
sVpositive
p70
I1
sVargue
p71
I1
sVwhole
p72
I1
sVthink
p73
I1
sVfirst
p74
I1
sVblind
p75
I1
sVlove
p76
I1
sVdont
p77
I1
sVfamily
p78
I2
sVfeel
p79
I1
sVwin
p80
I1
sVswolle
p81
I1
sVson
p82
I1
sVminuses
p83
I1
sVdone
p84
I2
sVcouldnt
p85
I1
sVfight
p86
I1
sVvandross
p87
I1
sVhes
p88
I2
sVleading
p89
I1
sVpluses
p90
I1
sVslept
p91
I1
sVtwo
p92
I2
sVthrow
p93
I4
sVstart
p94
I2
sVuss
p95
I2
sVtherefore
p96
I1
sVvehicle
p97
I1
sVmama
p98
I2
sVmusic
p99
I1
sVhardly
p100
I1
sVwoke
p101
I1
sVwicked
p102
I1
sVlife
p103
I1
sVtempers
p104
I1
sVnobody
p105
I1
sVtook
p106
I1
sVcloned
p107
I1
sVpart
p108
I1
sVrepeatedly
p109
I1
sVbaby
p110
I4
sVok
p111
I1
sVtrying
p112
I1
sVme
p113
I3
sVroom
p114
I1
sVsingle
p115
I1
sVcat
p116
I1
sVmatter
p117
I1
sVlimit
p118
I1
sVfriend
p119
I1
sVms
p120
I1
sVsmashed
p121
I1
sVfeeling
p122
I1
sVexample
p123
I1
sVtheres
p124
I1
sVstubborn
p125
I1
sVoutta
p126
I1
sVwell
p127
I1
sVturned
p128
I1
sVcovers
p129
I1
sVrooster
p130
I2
sVpushed
p131
I1
sVcant
p132
I3
sVim
p133
I3
sVwant
p134
I2
sVtake
p135
I1
sVseem
p136
I1
sVkissed
p137
I1
sVsaw
p138
I1
sVshit
p139
I1
sVgrown
p140
I1
sVagain
p141
I1
sVend
p142
I1
sVpay
p143
I1
sVmake
p144
I3
sVdi
p145
I1
sVwax
p146
I1
sVboom
p147
I2
sVdismiss
p148
I1
sVtried
p149
I2
sVclash
p150
I1
sVtrack
p151
I1
sVtechnicality
p152
I1
sVstay
p153
I1
sVfart
p154
I1
sVwrong
p155
I1
sVmoving
p156
I1
sVmad
p157
I1
sVcoming
p158
I1
sVlving
p159
I1
sVtimid
p160
I1
sVdied
p161
I1
sVdraperies
p162
I1
sVpeeing
p163
I1
sVpuss
p164
I1
sVneck
p165
I1
sVyoure
p166
I1
sVupset
p167
I1
sVdog
p168
I1
sVsmooshed
p169
I1
sVtalk
p170
I1
sVpattern
p171
I1
sVstarting
p172
I1
sVscream
p173
I1
sVwind
p174
I1
sVleft
p175
I1
s.